--- !tapi-tbd-v2
archs:           [ armv7, armv7s, arm64 ]
uuids:           [ 'armv7: 095D412E-B290-3B93-9423-6246D71EAEA1', 'armv7s: D595B74D-9D6A-3F47-892C-2C8BA16BD154', 
                   'arm64: 728630B5-A171-36DF-84D5-FE625BDA6BB3' ]
platform:        ios
install-name:    /usr/lib/CarrierBundleUtilities.dylib
objc-constraint: none
exports:         
  - archs:           [ armv7, armv7s ]
    symbols:         [ _development_pubkeysize, _pkcs1_development_pubkey, _pkcs1_production_pubkey, 
                       _pkcs1_production_pubkey2, _production_pubkeysize, _production_pubkeysize2 ]
    weak-def-symbols: [ __ZTI15DigestGenerator, __ZTINSt3__120__shared_ptr_emplaceI18DigestGenerator160NS_9allocatorIS1_EEEE, 
                        __ZTINSt3__120__shared_ptr_emplaceI18DigestGenerator256NS_9allocatorIS1_EEEE, 
                        __ZTS15DigestGenerator, __ZTSNSt3__120__shared_ptr_emplaceI18DigestGenerator160NS_9allocatorIS1_EEEE, 
                        __ZTSNSt3__120__shared_ptr_emplaceI18DigestGenerator256NS_9allocatorIS1_EEEE ]
  - archs:           [ arm64 ]
    symbols:         [ __ZN16LegacyPublicKeys27get_sha1_production_keysizeEv, __ZN16LegacyPublicKeys27get_sha2_production_keysizeEv, 
                       __ZN16LegacyPublicKeys28get_sha1_development_keysizeEv, __ZN16LegacyPublicKeys28get_sha2_development_keysizeEv, 
                       __ZN16LegacyPublicKeys29get_sha1_production_publickeyEv, __ZN16LegacyPublicKeys29get_sha2_production_publickeyEv, 
                       __ZN16LegacyPublicKeys30get_sha1_development_publickeyEv, 
                       __ZN16LegacyPublicKeys30get_sha2_development_publickeyEv, 
                       __ZN16LegacyPublicKeys31pkcs1_sha1_production_publickeyE, 
                       __ZN16LegacyPublicKeys31pkcs1_sha2_production_publickeyE, 
                       __ZN16LegacyPublicKeys32pkcs1_sha1_development_publickeyE, 
                       __ZN16LegacyPublicKeysC1Ev, __ZN16LegacyPublicKeysC2Ev, __ZN17CurrentPublicKeys27get_sha1_production_keysizeEv, 
                       __ZN17CurrentPublicKeys27get_sha2_production_keysizeEv, __ZN17CurrentPublicKeys28get_sha1_development_keysizeEv, 
                       __ZN17CurrentPublicKeys28get_sha2_development_keysizeEv, __ZN17CurrentPublicKeys29get_sha1_production_publickeyEv, 
                       __ZN17CurrentPublicKeys29get_sha2_production_publickeyEv, 
                       __ZN17CurrentPublicKeys30get_sha1_development_publickeyEv, 
                       __ZN17CurrentPublicKeys30get_sha2_development_publickeyEv, 
                       __ZN17CurrentPublicKeys31pkcs1_sha1_production_publickeyE, 
                       __ZN17CurrentPublicKeys31pkcs1_sha2_production_publickeyE, 
                       __ZN17CurrentPublicKeys32pkcs1_sha1_development_publickeyE, 
                       __ZN17CurrentPublicKeys32pkcs1_sha2_development_publickeyE, 
                       __ZN17CurrentPublicKeysC1Ev, __ZN17CurrentPublicKeysC2Ev, 
                       __ZTI16LegacyPublicKeys, __ZTI17CurrentPublicKeys, __ZTS16LegacyPublicKeys, 
                       __ZTS17CurrentPublicKeys, __ZTV16LegacyPublicKeys, __ZTV17CurrentPublicKeys ]
  - archs:           [ armv7, armv7s, arm64 ]
    symbols:         [ __Z12VerifyDigestN3ctu2cf11CFSharedRefIK8__CFDataEES4_P8__SecKey12DigestPrefix, 
                       __Z15createSecKeyRefPKhi, __Z15doSecVerify_iOSN3ctu2cf11CFSharedRefIK8__CFDataEES4_P8__SecKey12DigestPrefix, 
                       __Z16findMatchingFileRKNSt3__112basic_stringIcNS_11char_traitsIcEENS_9allocatorIcEEEES7_S7_, 
                       __Z18defaultLogFunctionPKc, __Z19getSignatureDirPathRKNSt3__112basic_stringIcNS_11char_traitsIcEENS_9allocatorIcEEEE, 
                       __Z20getSignatureFileNameRKNSt3__112basic_stringIcNS_11char_traitsIcEENS_9allocatorIcEEEE, 
                       __Z21getDigestGeneratorFor12DigestPrefix, __Z22getPrefixForDigestType12DigestPrefix, 
                       __Z23VerifyPriSignatureOnSHARKNSt3__112basic_stringIcNS_11char_traitsIcEENS_9allocatorIcEEEEP8__SecKey12DigestPrefix, 
                       __Z25VerifyCarrierBundleForSHARKNSt3__112basic_stringIcNS_11char_traitsIcEENS_9allocatorIcEEEEb12DigestPrefix, 
                       __Z25VerifySignatureDictionaryRKNSt3__112basic_stringIcNS_11char_traitsIcEENS_9allocatorIcEEEENS_3mapIS5_N3ctu2cf11CFSharedRefIK8__CFDataEENS_4lessIS5_EENS3_INS_4pairIS6_SE_EEEEEES7_P8__SecKey12DigestPrefix, 
                       __Z25findMatchingFile_InternalRKNSt3__14listINS_12basic_stringIcNS_11char_traitsIcEENS_9allocatorIcEEEENS4_IS6_EEEERKS6_SC_, 
                       __Z28VerifyCarrierBundleSignatureRKNSt3__112basic_stringIcNS_11char_traitsIcEENS_9allocatorIcEEEEP8__SecKey, 
                       __Z28dictAfterMergingPlistsAtPathRKNSt3__112basic_stringIcNS_11char_traitsIcEENS_9allocatorIcEEEERKNS_6vectorIS5_NS3_IS5_EEEE, 
                       __Z29VerifyFileSignatureDictionaryRKNSt3__112basic_stringIcNS_11char_traitsIcEENS_9allocatorIcEEEERKNS_13unordered_mapIS5_NS_6vectorINS_4pairIS5_N3ctu2cf11CFSharedRefIK8__CFDataEEEENS3_ISH_EEEENS_4hashIS5_EENS_8equal_toIS5_EENS3_INSA_IS6_SJ_EEEEEEP8__SecKey12DigestPrefix, 
                       __Z33VerifyCarrierBundleSignatureOnSHARKNSt3__112basic_stringIcNS_11char_traitsIcEENS_9allocatorIcEEEEP8__SecKey12DigestPrefix, 
                       __Z34copyPRISignatureForDeviceNameOnSHARKNSt3__112basic_stringIcNS_11char_traitsIcEENS_9allocatorIcEEEES7_S7_12DigestPrefix, 
                       __Z8writeLogPKcz, __ZN11ComputeHash11digest_dataEN3ctu2cf11CFSharedRefIK8__CFDataEE, 
                       __ZN11ComputeHash11digest_fileEPKc, __ZN11ComputeHash11reset_stateEv, 
                       __ZN11ComputeHash12digest_filesERKNSt3__14listINS0_12basic_stringIcNS0_11char_traitsIcEENS0_9allocatorIcEEEENS5_IS7_EEEE, 
                       __ZN11ComputeHash13digest_lengthEl, __ZN11ComputeHash13digest_stringEN3ctu2cf11CFSharedRefIK10__CFStringEE, 
                       __ZN11ComputeHash15get_digest_sizeEv, __ZN11ComputeHash17digest_plist_fileEPKc, 
                       __ZN11ComputeHash18setDigestGeneratorENSt3__110shared_ptrI15DigestGeneratorEE, 
                       __ZN11ComputeHash4initEv, __ZN11ComputeHash8finalizeEv, __ZN11ComputeHashC1Ev, 
                       __ZN11ComputeHashC2Ev, __ZN11ComputeHashD1Ev, __ZN11ComputeHashD2Ev, 
                       __ZN17FileSystemManager10removeItemERKNSt3__112basic_stringIcNS0_11char_traitsIcEENS0_9allocatorIcEEEES8_, 
                       __ZN17FileSystemManager11isDirectoryERKNSt3__112basic_stringIcNS0_11char_traitsIcEENS0_9allocatorIcEEEE, 
                       __ZN17FileSystemManager12isHiddenFileERKNSt3__112basic_stringIcNS0_11char_traitsIcEENS0_9allocatorIcEEEE, 
                       __ZN17FileSystemManager13isRegularFileERKNSt3__112basic_stringIcNS0_11char_traitsIcEENS0_9allocatorIcEEEE, 
                       __ZN17FileSystemManager16getFileExtensionERKNSt3__112basic_stringIcNS0_11char_traitsIcEENS0_9allocatorIcEEEERS6_, 
                       __ZN17FileSystemManager18dictionaryFromPathERKNSt3__112basic_stringIcNS0_11char_traitsIcEENS0_9allocatorIcEEEE, 
                       __ZN17FileSystemManager18fileContentsAtPathEPKc, __ZN17FileSystemManager20copyBinaryPlistAsXMLERKNSt3__112basic_stringIcNS0_11char_traitsIcEENS0_9allocatorIcEEEE, 
                       __ZN17FileSystemManager23directoryContentsAtPathERKNSt3__112basic_stringIcNS0_11char_traitsIcEENS0_9allocatorIcEEEERNS0_4listIS6_NS4_IS6_EEEEb, 
                       __ZN17FileSystemManager31getFileNameWithExtensionRemovedERKNSt3__112basic_stringIcNS0_11char_traitsIcEENS0_9allocatorIcEEEERS6_, 
                       __ZN17FileSystemManager7dirnameERKNSt3__112basic_stringIcNS0_11char_traitsIcEENS0_9allocatorIcEEEE, 
                       __ZN17FileSystemManager8basenameERKNSt3__112basic_stringIcNS0_11char_traitsIcEENS0_9allocatorIcEEEE, 
                       __ZN17FileSystemManager8copyItemERKNSt3__112basic_stringIcNS0_11char_traitsIcEENS0_9allocatorIcEEEES8_, 
                       __ZN17FileSystemManager8readLinkERKNSt3__112basic_stringIcNS0_11char_traitsIcEENS0_9allocatorIcEEEE, 
                       __ZN17FileSystemManager9isSymlinkERKNSt3__112basic_stringIcNS0_11char_traitsIcEENS0_9allocatorIcEEEE, 
                       __ZN17FileSystemManagerC1Ev, __ZN17FileSystemManagerC2Ev, 
                       __ZN17FileSystemManagerD1Ev, __ZN17FileSystemManagerD2Ev, 
                       __ZN18DigestGenerator16010sha_updateEPKvj, __ZN18DigestGenerator16015get_digest_sizeEv, 
                       __ZN18DigestGenerator1608sha_initEv, __ZN18DigestGenerator1609sha_finalEPh, 
                       __ZN18DigestGenerator160C1Ev, __ZN18DigestGenerator160C2Ev, 
                       __ZN18DigestGenerator25610sha_updateEPKvj, __ZN18DigestGenerator25615get_digest_sizeEv, 
                       __ZN18DigestGenerator2568sha_initEv, __ZN18DigestGenerator2569sha_finalEPh, 
                       __ZN18DigestGenerator256C1Ev, __ZN18DigestGenerator256C2Ev, 
                       __ZN19CBSignUtilityLogger10myInstanceE, __ZN19CBSignUtilityLogger13getMyInstanceEv, 
                       __ZN19CBSignUtilityLogger14getLogFunctionEv, __ZN19CBSignUtilityLogger14setLogFunctionEPFvPKcE, 
                       __ZN19CBSignUtilityLogger17destroyMyInstanceEv, __ZN19CBSignUtilityLoggerC1Ev, 
                       __ZN19CBSignUtilityLoggerC2Ev, __ZN27ComputeHashForCarrierBundle18getDeviceModelNameERKNSt3__112basic_stringIcNS0_11char_traitsIcEENS0_9allocatorIcEEEE, 
                       __ZN27ComputeHashForCarrierBundle21computeDigestForFilesERKNSt3__112basic_stringIcNS0_11char_traitsIcEENS0_9allocatorIcEEEERNS0_13unordered_mapIS6_NS0_6vectorINS0_4pairIS6_N3ctu2cf11CFSharedRefIK8__CFDataEEEENS4_ISI_EEEENS0_4hashIS6_EENS0_8equal_toIS6_EENS4_INSB_IS7_SK_EEEEEES8_R11ComputeHash, 
                       __ZN27ComputeHashForCarrierBundle28printDeviceModelFilesMappingERKNSt3__13mapINS0_12basic_stringIcNS0_11char_traitsIcEENS0_9allocatorIcEEEENS0_4listIS7_NS5_IS7_EEEENS0_4lessIS7_EENS5_INS0_4pairIKS7_SA_EEEEEE, 
                       __ZN27ComputeHashForCarrierBundle32computeCBDigestForAllDeviceModelERKNSt3__112basic_stringIcNS0_11char_traitsIcEENS0_9allocatorIcEEEERNS0_3mapIS6_N3ctu2cf11CFSharedRefIK8__CFDataEENS0_4lessIS6_EENS4_INS0_4pairIS7_SF_EEEEEER11ComputeHash, 
                       __ZN27ComputeHashForCarrierBundle37prepareAndClassifyFileInCarrierBundleERKNSt3__112basic_stringIcNS0_11char_traitsIcEENS0_9allocatorIcEEEERNS0_3mapIS6_NS0_4listIS6_NS4_IS6_EEEENS0_4lessIS6_EENS4_INS0_4pairIS7_SC_EEEEEE, 
                       __ZTI11ComputeHash, __ZTI18DigestGenerator160, __ZTI18DigestGenerator256, 
                       __ZTS11ComputeHash, __ZTS18DigestGenerator160, __ZTS18DigestGenerator256, 
                       __ZTV11ComputeHash, __ZTV18DigestGenerator160, __ZTV18DigestGenerator256 ]
...
