--- !tapi-tbd-v2
archs:           [ armv7, armv7s, arm64 ]
uuids:           [ 'armv7: FAB8A13C-DE48-3FCE-8EB2-972FC114BDA0', 'armv7s: 95C18A38-45AF-3FD5-8D39-65BC4EB871B9', 
                   'arm64: B0254932-39AA-3758-AE16-0324E9980479' ]
platform:        ios
install-name:    /usr/lib/libARIServer.dylib
objc-constraint: none
exports:         
  - archs:           [ armv7, armv7s ]
    symbols:         [ __ZN11AriDispatch9Semaphore13createSessionEv, __ZN11AriDispatch9Semaphore7SessionC1ENSt3__110shared_ptrIS0_EE, 
                       __ZN11AriDispatch9Semaphore7SessionC2ENSt3__110shared_ptrIS0_EE, 
                       __ZN11AriDispatch9Semaphore7SessionD1Ev, __ZN11AriDispatch9Semaphore7SessionD2Ev, 
                       __ZN9AriFramer4initEPKcPFiPhmEPFiS2_m8AriIpcFdE, __ZN9AriHostRt13RtTransaction11isLaterThanENSt3__16chrono10time_pointINS2_12system_clockENS2_8durationIxNS1_5ratioILx1ELx1000000EEEEEEE, 
                       __ZN9AriHostRt9CommitLPMENSt3__16chrono10time_pointINS1_12system_clockENS1_8durationIxNS0_5ratioILx1ELx1000000EEEEEEEj ]
    weak-def-symbols: [ _ARI_AriACK_IMPL, _ARI_AriBBLogInd_IMPL, _ARI_AriGrpAttribResp_IMPL, 
                        _ARI_AriGrpMsgsAttribResp_IMPL, _ARI_AriMsgAttribResp_IMPL, 
                        _ARI_AriNACK_IMPL, _ARI_AriUtaModeInitialSwitchCompleteIndCb_IMPL, 
                        _ARI_AriUtaMsCallCsReleaseCallRspCb_IMPL, _ARI_AriUtaMsCallCsSetupCallRspCb_IMPL, 
                        _ARI_AriUtaMsCpsSetSvnRspCb_IMPL, _ARI_AriUtaMsNetAttachRspCb_IMPL, 
                        _ARI_AriUtaMsNetDetachRspCb_IMPL, _ARI_CsiBSPBBDumpInd_IMPL, 
                        _ARI_CsiBmmProvideBootTimeInfoRspCb_IMPL, _ARI_CsiBspDebugJtagModeRspCb_IMPL, 
                        _ARI_CsiBspStateGetRspCb_IMPL, _ARI_CsiBspStateSetRspCb_IMPL, 
                        _ARI_CsiGetCurrentBootStateRspCb_IMPL, _ARI_CsiGetSystemTimeResp_IMPL, 
                        _ARI_CsiModeGetRspCb_IMPL, _ARI_CsiModeSetIndCb_IMPL, _ARI_CsiModeSetRespCb_IMPL, 
                        _ARI_CsiMsCpsGetCurrentBootStateRspCb_IMPL, _ARI_CsiMsCpsReadImeiRspCb_IMPL, 
                        _ARI_CsiMsSimCardPresenceRspCb_IMPL, _ARI_CsiSecGetFusingStateRspCb_IMPL, 
                        _ARI_CsiSecGetRandomNumRspCb_IMPL, _ARI_CsiSecGetSNUMRspCb_IMPL, 
                        _ARI_CsiSysGetInfoRspCb_IMPL, __ZTIFvijRNSt3__110shared_ptrIN3Ari14AriClientProxyEEEE, 
                        __ZTIN3Ari14AriClientProxyE, __ZTINSt3__110__function6__baseIFiiRNS_4listINS_10shared_ptrIN3Ari14AriClientProxyEEENS_9allocatorIS6_EEEEEEE, 
                        __ZTINSt3__110__function6__baseIFvRNS_10shared_ptrIN3Ari14AriClientProxyEEEEEE, 
                        __ZTINSt3__110__function6__baseIFviRNS_4listINS_10shared_ptrIN3Ari14AriClientProxyEEENS_9allocatorIS6_EEEEEEE, 
                        __ZTINSt3__110__function6__baseIFvijRNS_10shared_ptrIN3Ari14AriClientProxyEEEEEE, 
                        __ZTINSt3__110__function6__baseIFvvEEE, __ZTINSt3__110__function6__funcIPFvijRNS_10shared_ptrIN3Ari14AriClientProxyEEEENS_9allocatorIS8_EES7_EE, 
                        __ZTINSt3__115basic_stringbufIcNS_11char_traitsIcEENS_9allocatorIcEEEE, 
                        __ZTINSt3__117bad_function_callE, __ZTINSt3__119basic_ostringstreamIcNS_11char_traitsIcEENS_9allocatorIcEEEE, 
                        __ZTINSt3__120__shared_ptr_emplaceIN11AriDispatch9Semaphore7SessionENS_9allocatorIS3_EEEE, 
                        __ZTINSt3__120__shared_ptr_emplaceIN11AriDispatch9SemaphoreENS_9allocatorIS2_EEEE, 
                        __ZTINSt3__120__shared_ptr_emplaceIN3Ari17AriClientGcdProxyENS_9allocatorIS2_EEEE, 
                        __ZTINSt3__120__shared_ptr_emplaceIN3Ari17AriClientXpcProxyENS_9allocatorIS2_EEEE, 
                        __ZTINSt3__120__shared_ptr_emplaceIN9AriHostRt13RtTransactionENS_9allocatorIS2_EEEE, 
                        __ZTINSt3__120__shared_ptr_emplaceIN9AriHostRt23ClientTransitionTrackerENS_9allocatorIS2_EEEE, 
                        __ZTINSt3__120__shared_ptr_emplaceINS_6vectorIhNS_9allocatorIhEEEENS2_IS4_EEEE, 
                        __ZTINSt3__123enable_shared_from_thisIN3Ari17AriClientGcdProxyEEE, 
                        __ZTINSt3__123enable_shared_from_thisIN3Ari17AriClientXpcProxyEEE, 
                        __ZTIPFvijRNSt3__110shared_ptrIN3Ari14AriClientProxyEEEE, 
                        __ZTSFvijRNSt3__110shared_ptrIN3Ari14AriClientProxyEEEE, 
                        __ZTSN3Ari14AriClientProxyE, __ZTSNSt3__110__function6__baseIFiiRNS_4listINS_10shared_ptrIN3Ari14AriClientProxyEEENS_9allocatorIS6_EEEEEEE, 
                        __ZTSNSt3__110__function6__baseIFvRNS_10shared_ptrIN3Ari14AriClientProxyEEEEEE, 
                        __ZTSNSt3__110__function6__baseIFviRNS_4listINS_10shared_ptrIN3Ari14AriClientProxyEEENS_9allocatorIS6_EEEEEEE, 
                        __ZTSNSt3__110__function6__baseIFvijRNS_10shared_ptrIN3Ari14AriClientProxyEEEEEE, 
                        __ZTSNSt3__110__function6__baseIFvvEEE, __ZTSNSt3__110__function6__funcIPFvijRNS_10shared_ptrIN3Ari14AriClientProxyEEEENS_9allocatorIS8_EES7_EE, 
                        __ZTSNSt3__115basic_stringbufIcNS_11char_traitsIcEENS_9allocatorIcEEEE, 
                        __ZTSNSt3__117bad_function_callE, __ZTSNSt3__119basic_ostringstreamIcNS_11char_traitsIcEENS_9allocatorIcEEEE, 
                        __ZTSNSt3__120__shared_ptr_emplaceIN11AriDispatch9Semaphore7SessionENS_9allocatorIS3_EEEE, 
                        __ZTSNSt3__120__shared_ptr_emplaceIN11AriDispatch9SemaphoreENS_9allocatorIS2_EEEE, 
                        __ZTSNSt3__120__shared_ptr_emplaceIN3Ari17AriClientGcdProxyENS_9allocatorIS2_EEEE, 
                        __ZTSNSt3__120__shared_ptr_emplaceIN3Ari17AriClientXpcProxyENS_9allocatorIS2_EEEE, 
                        __ZTSNSt3__120__shared_ptr_emplaceIN9AriHostRt13RtTransactionENS_9allocatorIS2_EEEE, 
                        __ZTSNSt3__120__shared_ptr_emplaceIN9AriHostRt23ClientTransitionTrackerENS_9allocatorIS2_EEEE, 
                        __ZTSNSt3__120__shared_ptr_emplaceINS_6vectorIhNS_9allocatorIhEEEENS2_IS4_EEEE, 
                        __ZTSNSt3__123enable_shared_from_thisIN3Ari17AriClientGcdProxyEEE, 
                        __ZTSNSt3__123enable_shared_from_thisIN3Ari17AriClientXpcProxyEEE, 
                        __ZTSPFvijRNSt3__110shared_ptrIN3Ari14AriClientProxyEEEE ]
  - archs:           [ arm64 ]
    symbols:         [ __ZN11AriDispatch4Once6CreateEv, __ZN11AriDispatch4Once7runOnceEU13block_pointerFvvE, 
                       __ZN11AriDispatch4OnceC1Ev, __ZN11AriDispatch4OnceC2Ev, __ZN11AriDispatch4OnceD1Ev, 
                       __ZN11AriDispatch4OnceD2Ev, __ZN11AriDispatch5Group4waitEj, 
                       __ZN11AriDispatch5Group5asyncEP16dispatch_queue_sU13block_pointerFvvE, 
                       __ZN11AriDispatch5Group5enterEv, __ZN11AriDispatch5Group5leaveEv, 
                       __ZN11AriDispatch5Group6CreateEv, __ZN11AriDispatch5Group6notifyEP16dispatch_queue_sjU13block_pointerFvvE, 
                       __ZN11AriDispatch5GroupC1Ev, __ZN11AriDispatch5GroupC2Ev, 
                       __ZN11AriDispatch5GroupD1Ev, __ZN11AriDispatch5GroupD2Ev, 
                       __ZN11AriDispatch5Queue6CreateEP16dispatch_queue_s, __ZN11AriDispatch5QueueC1EP16dispatch_queue_s, 
                       __ZN11AriDispatch5QueueC2EP16dispatch_queue_s, __ZN11AriDispatch5QueueD1Ev, 
                       __ZN11AriDispatch5QueueD2Ev, __ZN11AriDispatch5Timer10resetTimerEv, 
                       __ZN11AriDispatch5Timer11setPeriodicEyyU13block_pointerFvvE, 
                       __ZN11AriDispatch5Timer16safeReleaseTimerEv, __ZN11AriDispatch5Timer3setEyU13block_pointerFvvE, 
                       __ZN11AriDispatch5Timer6CreateEP16dispatch_queue_s, __ZN11AriDispatch5Timer6cancelEv, 
                       __ZN11AriDispatch5TimerC1EP16dispatch_queue_s, __ZN11AriDispatch5TimerC2EP16dispatch_queue_s, 
                       __ZN11AriDispatch5TimerD1Ev, __ZN11AriDispatch5TimerD2Ev, 
                       __ZN3Ari17AriClientXpcProxy13recordRequestEv, __ZN3Ari17AriClientXpcProxy14recordProgressEv, 
                       __ZN3Ari17AriClientXpcProxy16checkForProgressEv, __ZN3Ari29LoggerDisableNewLineAppendingEv, 
                       __ZN6AriOsa13OsTimeoutStopEP17dispatch_source_s, __ZN6AriOsa14OsTimeoutStartEP17dispatch_source_sjPFvPvES2_, 
                       __ZN6AriOsa15OsTimeoutCreateEPP17dispatch_source_s, __ZN6AriOsa16OsTimeoutDestroyEP17dispatch_source_s, 
                       __ZN6AriSdk26ARI_CsiSysGetInfoReqV2_SDK4packEPP6AriMsg, __ZN6AriSdk26ARI_CsiSysGetInfoReqV2_SDK6unpackEv, 
                       __ZN6AriSdk26ARI_CsiSysGetInfoReqV2_SDKC1EPKhj, __ZN6AriSdk26ARI_CsiSysGetInfoReqV2_SDKC1Ev, 
                       __ZN6AriSdk26ARI_CsiSysGetInfoReqV2_SDKC2EPKhj, __ZN6AriSdk26ARI_CsiSysGetInfoReqV2_SDKC2Ev, 
                       __ZN6AriSdk28ARI_CsiSysGetInfoRspCbV2_SDK4packEPP6AriMsg, 
                       __ZN6AriSdk28ARI_CsiSysGetInfoRspCbV2_SDK6unpackEv, __ZN6AriSdk28ARI_CsiSysGetInfoRspCbV2_SDKC1EPKhj, 
                       __ZN6AriSdk28ARI_CsiSysGetInfoRspCbV2_SDKC1Ev, __ZN6AriSdk28ARI_CsiSysGetInfoRspCbV2_SDKC2EPKhj, 
                       __ZN6AriSdk28ARI_CsiSysGetInfoRspCbV2_SDKC2Ev, __ZN6AriSdk7MsgBaseD0Ev, 
                       __ZN8ari_util3hexEPKvm, __ZN8ari_util6to_rleEPKvm, __ZN8ari_util6to_rleERNSt3__112basic_stringIcNS0_11char_traitsIcEENS0_9allocatorIcEEEE, 
                       __ZN9AriFramer4initEPKcPFiPhmEPFiS2_m8AriIpcFdEPFvN6AriOsa13IpcExceptionsEiE, 
                       __ZN9AriHostRt13RtTransaction11isLaterThanENSt3__16chrono10time_pointINS2_12system_clockENS2_8durationIxNS1_5ratioILl1ELl1000000EEEEEEE, 
                       __ZN9AriHostRt4InitEPKcU13block_pointerFvvEP16dispatch_queue_s, 
                       __ZN9AriHostRt9commitLPMEj, __ZN9AriHostRtC1Ev, __ZN9AriHostRtC2Ev, 
                       __ZNK11AriDispatch5Queue3getEv, __ZNK9AriHostRt13RtTransaction12getTimeoutMsEv, 
                       __ZTIN6AriSdk26ARI_CsiSysGetInfoReqV2_SDKE, __ZTIN6AriSdk28ARI_CsiSysGetInfoRspCbV2_SDKE, 
                       __ZTSN6AriSdk26ARI_CsiSysGetInfoReqV2_SDKE, __ZTSN6AriSdk28ARI_CsiSysGetInfoRspCbV2_SDKE, 
                       __ZTVN6AriSdk26ARI_CsiSysGetInfoReqV2_SDKE, __ZTVN6AriSdk28ARI_CsiSysGetInfoRspCbV2_SDKE, 
                       __ZTVN6AriSdk7MsgBaseE ]
  - archs:           [ armv7, armv7s, arm64 ]
    symbols:         [ _ARIMSGDEF_GROUP01_bsp, _ARIMSGDEF_GROUPS, _ARIMSGDEF_GROUPS_SZ, 
                       _ARI_AriACK_Extract, _ARI_AriBBLogInd_Extract, _ARI_AriGrpAttribReq_BLK, 
                       _ARI_AriGrpAttribReq_ENC, _ARI_AriGrpAttribResp_Extract, _ARI_AriGrpMsgsAttribReq_BLK, 
                       _ARI_AriGrpMsgsAttribReq_ENC, _ARI_AriGrpMsgsAttribResp_Extract, 
                       _ARI_AriMsgAttribReq_BLK, _ARI_AriMsgAttribReq_ENC, _ARI_AriMsgAttribResp_Extract, 
                       _ARI_AriNACK_Extract, _ARI_AriUtaModeInitialSwitchCompleteIndCb_Extract, 
                       _ARI_AriUtaMsCallCsReleaseCallRspCb_Extract, _ARI_AriUtaMsCallCsSetupCallRspCb_Extract, 
                       _ARI_AriUtaMsCpsSetSvnRspCb_Extract, _ARI_AriUtaMsNetAttachRspCb_Extract, 
                       _ARI_AriUtaMsNetDetachRspCb_Extract, _ARI_CsiBSPBBDumpInd_Extract, 
                       _ARI_CsiBmmProvideBootTimeInfoReq_BLK, _ARI_CsiBmmProvideBootTimeInfoReq_ENC, 
                       _ARI_CsiBmmProvideBootTimeInfoRspCb_Extract, _ARI_CsiBspDebugJtagModeReq_BLK, 
                       _ARI_CsiBspDebugJtagModeReq_ENC, _ARI_CsiBspDebugJtagModeRspCb_Extract, 
                       _ARI_CsiBspStateGetReq_BLK, _ARI_CsiBspStateGetReq_ENC, _ARI_CsiBspStateGetRspCb_Extract, 
                       _ARI_CsiBspStateSetReq_BLK, _ARI_CsiBspStateSetReq_ENC, _ARI_CsiBspStateSetRspCb_Extract, 
                       _ARI_CsiGetCurrentBootStateReq_BLK, _ARI_CsiGetCurrentBootStateReq_ENC, 
                       _ARI_CsiGetCurrentBootStateRspCb_Extract, _ARI_CsiGetSystemTimeReq_BLK, 
                       _ARI_CsiGetSystemTimeReq_ENC, _ARI_CsiGetSystemTimeResp_Extract, 
                       _ARI_CsiModeGetReq_BLK, _ARI_CsiModeGetReq_ENC, _ARI_CsiModeGetRspCb_Extract, 
                       _ARI_CsiModeSetIndCb_Extract, _ARI_CsiModeSetReq_BLK, _ARI_CsiModeSetReq_ENC, 
                       _ARI_CsiModeSetRespCb_Extract, _ARI_CsiMsCpsGetCurrentBootStateReq_BLK, 
                       _ARI_CsiMsCpsGetCurrentBootStateReq_ENC, _ARI_CsiMsCpsGetCurrentBootStateRspCb_Extract, 
                       _ARI_CsiMsCpsReadImeiReq_BLK, _ARI_CsiMsCpsReadImeiReq_ENC, 
                       _ARI_CsiMsCpsReadImeiRspCb_Extract, _ARI_CsiMsSimCardPresenceReq_BLK, 
                       _ARI_CsiMsSimCardPresenceReq_ENC, _ARI_CsiMsSimCardPresenceRspCb_Extract, 
                       _ARI_CsiSecGetFusingStateReq_BLK, _ARI_CsiSecGetFusingStateReq_ENC, 
                       _ARI_CsiSecGetFusingStateRspCb_Extract, _ARI_CsiSecGetRandomNumReq_BLK, 
                       _ARI_CsiSecGetRandomNumReq_ENC, _ARI_CsiSecGetRandomNumRspCb_Extract, 
                       _ARI_CsiSecGetSNUMReq_BLK, _ARI_CsiSecGetSNUMReq_ENC, _ARI_CsiSecGetSNUMRspCb_Extract, 
                       _ARI_CsiSysGetInfoReqV2_BLK, _ARI_CsiSysGetInfoReqV2_ENC, 
                       _ARI_CsiSysGetInfoReq_BLK, _ARI_CsiSysGetInfoReq_ENC, _ARI_CsiSysGetInfoRspCbV2_Extract, 
                       _ARI_CsiSysGetInfoRspCb_Extract, _ARI_UtaMsCallCsReleaseCallReq_BLK, 
                       _ARI_UtaMsCallCsReleaseCallReq_ENC, _ARI_UtaMsCallCsSetupVoiceCallReq_BLK, 
                       _ARI_UtaMsCallCsSetupVoiceCallReq_ENC, _ARI_UtaMsCpsSetSvnReq_BLK, 
                       _ARI_UtaMsCpsSetSvnReq_ENC, _ARI_UtaMsNetAttachReq_BLK, _ARI_UtaMsNetAttachReq_ENC, 
                       _ARI_UtaMsNetDetachReq_BLK, _ARI_UtaMsNetDetachReq_ENC, _AriRuntimeDeregisterClient, 
                       _AriRuntimeDeregisterIndication, _AriRuntimeNotifyAck, _AriRuntimeRegisterClient, 
                       _AriRuntimeRegisterIndication, _AriRuntimeReportError, _AriRuntimeSendRaw, 
                       __Z12GetBufDigestPKhmPKc, __Z18make_shared_bufferPKhm, __Z25AriFramer_HeaderMagicScanPKhmPiPm, 
                       __Z8asString13AriAttribType, __Z8asString14AriAttribValue, 
                       __Z8asString14AriResult_enum, __Z8asString18ARI_XPC_NOTIFY_IDS, 
                       __Z8asString19AriAttribActionType, __Z8asStringN3Ari7OpStateE, 
                       __Z8asStringN9AriHostRt20ARI_CLIENT_ERROR_EVTE, __ZN11AriDispatch9Semaphore4waitEy, 
                       __ZN11AriDispatch9Semaphore6CreateENSt3__112basic_stringIcNS1_11char_traitsIcEENS1_9allocatorIcEEEEl, 
                       __ZN11AriDispatch9Semaphore6signalEv, __ZN11AriDispatch9SemaphoreC1ENSt3__112basic_stringIcNS1_11char_traitsIcEENS1_9allocatorIcEEEEl, 
                       __ZN11AriDispatch9SemaphoreC2ENSt3__112basic_stringIcNS1_11char_traitsIcEENS1_9allocatorIcEEEEl, 
                       __ZN11AriDispatch9SemaphoreD1Ev, __ZN11AriDispatch9SemaphoreD2Ev, 
                       __ZN3Ari10MsgDefByIdEjj, __ZN3Ari10ScopeTimerC1ENSt3__112basic_stringIcNS1_11char_traitsIcEENS1_9allocatorIcEEEEjj, 
                       __ZN3Ari10ScopeTimerC2ENSt3__112basic_stringIcNS1_11char_traitsIcEENS1_9allocatorIcEEEEjj, 
                       __ZN3Ari10ScopeTimerD1Ev, __ZN3Ari10ScopeTimerD2Ev, __ZN3Ari10TlvDefByIdEjjjm, 
                       __ZN3Ari11LogConfigRtEjPFvjPKcEPFviNSt3__112basic_stringIcNS4_11char_traitsIcEENS4_9allocatorIcEEEEjPKvjE, 
                       __ZN3Ari11MsgNameByIdEj, __ZN3Ari12GetLogLevelsEv, __ZN3Ari12MsgDefByNameEPKc, 
                       __ZN3Ari12TlvDefByNameEPKcS1_, __ZN3Ari14AriClientProxy23AriClientProxyDebugDumpEijRNSt3__110shared_ptrIS0_EE, 
                       __ZN3Ari15LogTransportBufENSt3__112basic_stringIcNS0_11char_traitsIcEENS0_9allocatorIcEEEEjPKvi, 
                       __ZN3Ari17AriClientGcdProxy11notifyEventE18ARI_XPC_NOTIFY_IDSy, 
                       __ZN3Ari17AriClientGcdProxy15forwardResponseENSt3__110shared_ptrINS1_6vectorIhNS1_9allocatorIhEEEEEE, 
                       __ZN3Ari17AriClientGcdProxy17cancelTransactionEiji, __ZN3Ari17AriClientGcdProxy17forwardIndicationENSt3__110shared_ptrINS1_6vectorIhNS1_9allocatorIhEEEEEE, 
                       __ZN3Ari17AriClientGcdProxy21getConnectDescriptionEv, __ZN3Ari17AriClientGcdProxyC1EPKcP16dispatch_queue_s, 
                       __ZN3Ari17AriClientGcdProxyC2EPKcP16dispatch_queue_s, __ZN3Ari17AriClientGcdProxyD0Ev, 
                       __ZN3Ari17AriClientGcdProxyD1Ev, __ZN3Ari17AriClientGcdProxyD2Ev, 
                       __ZN3Ari17AriClientXpcProxy11notifyEventE18ARI_XPC_NOTIFY_IDSy, 
                       __ZN3Ari17AriClientXpcProxy15forwardResponseENSt3__110shared_ptrINS1_6vectorIhNS1_9allocatorIhEEEEEE, 
                       __ZN3Ari17AriClientXpcProxy17cancelTransactionEiji, __ZN3Ari17AriClientXpcProxy17forwardIndicationENSt3__110shared_ptrINS1_6vectorIhNS1_9allocatorIhEEEEEE, 
                       __ZN3Ari17AriClientXpcProxy17handleClientEventEPv, __ZN3Ari17AriClientXpcProxy18completeConnectionEv, 
                       __ZN3Ari17AriClientXpcProxy21getConnectDescriptionEv, __ZN3Ari17AriClientXpcProxyC1ERKNSt3__112basic_stringIcNS1_11char_traitsIcEENS1_9allocatorIcEEEEP17_xpc_connection_s, 
                       __ZN3Ari17AriClientXpcProxyC2ERKNSt3__112basic_stringIcNS1_11char_traitsIcEENS1_9allocatorIcEEEEP17_xpc_connection_s, 
                       __ZN3Ari17AriClientXpcProxyD0Ev, __ZN3Ari17AriClientXpcProxyD1Ev, 
                       __ZN3Ari17AriClientXpcProxyD2Ev, __ZN3Ari3LogEjPKcz, __ZN3Ari6LogBufEPKcPKvm, 
                       __ZN3Ari6LogBufEPKcS1_jPKvmj, __ZN3Ari6MsgSet3addEj, __ZN3Ari6MsgSet3addEjj, 
                       __ZN3Ari6MsgSet6removeEj, __ZN3Ari6MsgSet7foreachENSt3__18functionIFvPK9ARIMSGDEFEEE, 
                       __ZN3Ari6MsgSetC1EPKc, __ZN3Ari6MsgSetC2EPKc, __ZN3Ari6MsgSetD1Ev, 
                       __ZN3Ari6MsgSetD2Ev, __ZN3Ari6MsgSetixEj, __ZN3Ari6SWTrapEbPKcS1_i, 
                       __ZN3Ari9LogConfigEjPFvjPKcE, __ZN3Ari9LogConfigEjPFvjPKcEPFviNSt3__112basic_stringIcNS4_11char_traitsIcEENS4_9allocatorIcEEEEjPKvjE, 
                       __ZN3Ari9LogHeaderEPKh, __ZN5IDMgr4dumpEb, __ZN5IDMgr4freeEib, 
                       __ZN5IDMgr5_freeEiRNSt3__13setINS_5RangeENS0_4lessIS2_EENS0_9allocatorIS2_EEEE, 
                       __ZN5IDMgr5resetEv, __ZN5IDMgr7isAllocEi, __ZN5IDMgr8allocateEPib, 
                       __ZN5IDMgr8allocateEi, __ZN5IDMgr9_allocateEPiRNSt3__13setINS_5RangeENS1_4lessIS3_EENS1_9allocatorIS3_EEEE, 
                       __ZN5IDMgr9_allocateEiRNSt3__13setINS_5RangeENS0_4lessIS2_EENS0_9allocatorIS2_EEEE, 
                       __ZN5IDMgrC1Eii, __ZN5IDMgrC2Eii, __ZN6AriMsg10GetBufGmidEPKhm, 
                       __ZN6AriMsg10extractCtxEPi, __ZN6AriMsg11FreeTlvListEPNS_6AriTLVE, 
                       __ZN6AriMsg11GetBufMsgSzEPKhm, __ZN6AriMsg12GetBufAckOptEPKhm, 
                       __ZN6AriMsg12GetBufHeaderEPKhm, __ZN6AriMsg12GetBufMsgDirEPKhm, 
                       __ZN6AriMsg13getEncodedBufEPj, __ZN6AriMsg21ReleaseEncodedMessageEPh, 
                       __ZN6AriMsg4packEjPKvm, __ZN6AriMsg6unpackEjPvmPbPm, __ZN6AriMsg7unparamEhPvm, 
                       __ZN6AriMsg9GetBufCtxEPKhm, __ZN6AriMsg9GetBufGidEPKhm, __ZN6AriMsg9GetBufMidEPKhm, 
                       __ZN6AriMsg9GetBufSeqEPKhmPj, __ZN6AriMsg9SetBufCtxEPKhmj, 
                       __ZN6AriMsg9SetBufSeqEPKhmj, __ZN6AriMsg9packParamEjPKvm, 
                       __ZN6AriMsg9updateCtxEi, __ZN6AriMsgC1EPKhj, __ZN6AriMsgC1Ej, 
                       __ZN6AriMsgC2EPKhj, __ZN6AriMsgC2Ej, __ZN6AriMsgD1Ev, __ZN6AriMsgD2Ev, 
                       __ZN6AriOsa10IpcFreeBufEPhm, __ZN6AriOsa10LogSrcInfoEPKcS1_, 
                       __ZN6AriOsa11OsMutexFreeEP20dispatch_semaphore_s, __ZN6AriOsa11OsMutexGiveEP20dispatch_semaphore_s, 
                       __ZN6AriOsa11OsMutexTakeEP20dispatch_semaphore_sj, __ZN6AriOsa11OsTimeStampEv, 
                       __ZN6AriOsa13OsMutexCreateEPP20dispatch_semaphore_s, __ZN6AriOsa22OsGetCurrentThreadNameEPcm, 
                       __ZN6AriOsa3LogEjPKc, __ZN6AriOsa4InitEv, __ZN6AriOsa6SWTrapEbPKcS1_i, 
                       __ZN6AriOsa7IpcInitEPNS_13IpcDescriptorE, __ZN6AriOsa7IpcPollEPNS_13IpcDescriptorEPm, 
                       __ZN6AriOsa7IpcReadEPNS_13IpcDescriptorEPhm, __ZN6AriOsa7MemFreeEjPv, 
                       __ZN6AriOsa7OsSleepEj, __ZN6AriOsa8IpcCloseEPNS_13IpcDescriptorE, 
                       __ZN6AriOsa8IpcWriteEPNS_13IpcDescriptorEPKhmPKNS_10IpcOptionsE, 
                       __ZN6AriOsa8MemAllocEjm, __ZN6AriSdk14ARI_AriACK_SDK4packEPP6AriMsg, 
                       __ZN6AriSdk14ARI_AriACK_SDK6unpackEv, __ZN6AriSdk14ARI_AriACK_SDKC1EPKhj, 
                       __ZN6AriSdk14ARI_AriACK_SDKC1Ev, __ZN6AriSdk14ARI_AriACK_SDKC2EPKhj, 
                       __ZN6AriSdk14ARI_AriACK_SDKC2Ev, __ZN6AriSdk15ARI_AriNACK_SDK4packEPP6AriMsg, 
                       __ZN6AriSdk15ARI_AriNACK_SDK6unpackEv, __ZN6AriSdk15ARI_AriNACK_SDKC1EPKhj, 
                       __ZN6AriSdk15ARI_AriNACK_SDKC1Ev, __ZN6AriSdk15ARI_AriNACK_SDKC2EPKhj, 
                       __ZN6AriSdk15ARI_AriNACK_SDKC2Ev, __ZN6AriSdk19ARI_AriBBLogInd_SDK4packEPP6AriMsg, 
                       __ZN6AriSdk19ARI_AriBBLogInd_SDK6unpackEv, __ZN6AriSdk19ARI_AriBBLogInd_SDKC1EPKhj, 
                       __ZN6AriSdk19ARI_AriBBLogInd_SDKC1Ev, __ZN6AriSdk19ARI_AriBBLogInd_SDKC2EPKhj, 
                       __ZN6AriSdk19ARI_AriBBLogInd_SDKC2Ev, __ZN6AriSdk21ARI_CsiModeGetReq_SDK4packEPP6AriMsg, 
                       __ZN6AriSdk21ARI_CsiModeGetReq_SDK6unpackEv, __ZN6AriSdk21ARI_CsiModeGetReq_SDKC1EPKhj, 
                       __ZN6AriSdk21ARI_CsiModeGetReq_SDKC1Ev, __ZN6AriSdk21ARI_CsiModeGetReq_SDKC2EPKhj, 
                       __ZN6AriSdk21ARI_CsiModeGetReq_SDKC2Ev, __ZN6AriSdk21ARI_CsiModeSetReq_SDK4packEPP6AriMsg, 
                       __ZN6AriSdk21ARI_CsiModeSetReq_SDK6unpackEv, __ZN6AriSdk21ARI_CsiModeSetReq_SDKC1EPKhj, 
                       __ZN6AriSdk21ARI_CsiModeSetReq_SDKC1Ev, __ZN6AriSdk21ARI_CsiModeSetReq_SDKC2EPKhj, 
                       __ZN6AriSdk21ARI_CsiModeSetReq_SDKC2Ev, __ZN6AriSdk23ARI_AriGrpAttribReq_SDK4packEPP6AriMsg, 
                       __ZN6AriSdk23ARI_AriGrpAttribReq_SDK6unpackEv, __ZN6AriSdk23ARI_AriGrpAttribReq_SDKC1EPKhj, 
                       __ZN6AriSdk23ARI_AriGrpAttribReq_SDKC1Ev, __ZN6AriSdk23ARI_AriGrpAttribReq_SDKC2EPKhj, 
                       __ZN6AriSdk23ARI_AriGrpAttribReq_SDKC2Ev, __ZN6AriSdk23ARI_AriMsgAttribReq_SDK4packEPP6AriMsg, 
                       __ZN6AriSdk23ARI_AriMsgAttribReq_SDK6unpackEv, __ZN6AriSdk23ARI_AriMsgAttribReq_SDKC1EPKhj, 
                       __ZN6AriSdk23ARI_AriMsgAttribReq_SDKC1Ev, __ZN6AriSdk23ARI_AriMsgAttribReq_SDKC2EPKhj, 
                       __ZN6AriSdk23ARI_AriMsgAttribReq_SDKC2Ev, __ZN6AriSdk23ARI_CsiBSPBBDumpInd_SDK4packEPP6AriMsg, 
                       __ZN6AriSdk23ARI_CsiBSPBBDumpInd_SDK6unpackEv, __ZN6AriSdk23ARI_CsiBSPBBDumpInd_SDKC1EPKhj, 
                       __ZN6AriSdk23ARI_CsiBSPBBDumpInd_SDKC1Ev, __ZN6AriSdk23ARI_CsiBSPBBDumpInd_SDKC2EPKhj, 
                       __ZN6AriSdk23ARI_CsiBSPBBDumpInd_SDKC2Ev, __ZN6AriSdk23ARI_CsiModeGetRspCb_SDK4packEPP6AriMsg, 
                       __ZN6AriSdk23ARI_CsiModeGetRspCb_SDK6unpackEv, __ZN6AriSdk23ARI_CsiModeGetRspCb_SDKC1EPKhj, 
                       __ZN6AriSdk23ARI_CsiModeGetRspCb_SDKC1Ev, __ZN6AriSdk23ARI_CsiModeGetRspCb_SDKC2EPKhj, 
                       __ZN6AriSdk23ARI_CsiModeGetRspCb_SDKC2Ev, __ZN6AriSdk23ARI_CsiModeSetIndCb_SDK4packEPP6AriMsg, 
                       __ZN6AriSdk23ARI_CsiModeSetIndCb_SDK6unpackEv, __ZN6AriSdk23ARI_CsiModeSetIndCb_SDKC1EPKhj, 
                       __ZN6AriSdk23ARI_CsiModeSetIndCb_SDKC1Ev, __ZN6AriSdk23ARI_CsiModeSetIndCb_SDKC2EPKhj, 
                       __ZN6AriSdk23ARI_CsiModeSetIndCb_SDKC2Ev, __ZN6AriSdk24ARI_AriGrpAttribResp_SDK4packEPP6AriMsg, 
                       __ZN6AriSdk24ARI_AriGrpAttribResp_SDK6unpackEv, __ZN6AriSdk24ARI_AriGrpAttribResp_SDKC1EPKhj, 
                       __ZN6AriSdk24ARI_AriGrpAttribResp_SDKC1Ev, __ZN6AriSdk24ARI_AriGrpAttribResp_SDKC2EPKhj, 
                       __ZN6AriSdk24ARI_AriGrpAttribResp_SDKC2Ev, __ZN6AriSdk24ARI_AriMsgAttribResp_SDK4packEPP6AriMsg, 
                       __ZN6AriSdk24ARI_AriMsgAttribResp_SDK6unpackEv, __ZN6AriSdk24ARI_AriMsgAttribResp_SDKC1EPKhj, 
                       __ZN6AriSdk24ARI_AriMsgAttribResp_SDKC1Ev, __ZN6AriSdk24ARI_AriMsgAttribResp_SDKC2EPKhj, 
                       __ZN6AriSdk24ARI_AriMsgAttribResp_SDKC2Ev, __ZN6AriSdk24ARI_CsiModeSetRespCb_SDK4packEPP6AriMsg, 
                       __ZN6AriSdk24ARI_CsiModeSetRespCb_SDK6unpackEv, __ZN6AriSdk24ARI_CsiModeSetRespCb_SDKC1EPKhj, 
                       __ZN6AriSdk24ARI_CsiModeSetRespCb_SDKC1Ev, __ZN6AriSdk24ARI_CsiModeSetRespCb_SDKC2EPKhj, 
                       __ZN6AriSdk24ARI_CsiModeSetRespCb_SDKC2Ev, __ZN6AriSdk24ARI_CsiSecGetSNUMReq_SDK4packEPP6AriMsg, 
                       __ZN6AriSdk24ARI_CsiSecGetSNUMReq_SDK6unpackEv, __ZN6AriSdk24ARI_CsiSecGetSNUMReq_SDKC1EPKhj, 
                       __ZN6AriSdk24ARI_CsiSecGetSNUMReq_SDKC1Ev, __ZN6AriSdk24ARI_CsiSecGetSNUMReq_SDKC2EPKhj, 
                       __ZN6AriSdk24ARI_CsiSecGetSNUMReq_SDKC2Ev, __ZN6AriSdk24ARI_CsiSysGetInfoReq_SDK4packEPP6AriMsg, 
                       __ZN6AriSdk24ARI_CsiSysGetInfoReq_SDK6unpackEv, __ZN6AriSdk24ARI_CsiSysGetInfoReq_SDKC1EPKhj, 
                       __ZN6AriSdk24ARI_CsiSysGetInfoReq_SDKC1Ev, __ZN6AriSdk24ARI_CsiSysGetInfoReq_SDKC2EPKhj, 
                       __ZN6AriSdk24ARI_CsiSysGetInfoReq_SDKC2Ev, __ZN6AriSdk25ARI_CsiBspStateGetReq_SDK4packEPP6AriMsg, 
                       __ZN6AriSdk25ARI_CsiBspStateGetReq_SDK6unpackEv, __ZN6AriSdk25ARI_CsiBspStateGetReq_SDKC1EPKhj, 
                       __ZN6AriSdk25ARI_CsiBspStateGetReq_SDKC1Ev, __ZN6AriSdk25ARI_CsiBspStateGetReq_SDKC2EPKhj, 
                       __ZN6AriSdk25ARI_CsiBspStateGetReq_SDKC2Ev, __ZN6AriSdk25ARI_CsiBspStateSetReq_SDK4packEPP6AriMsg, 
                       __ZN6AriSdk25ARI_CsiBspStateSetReq_SDK6unpackEv, __ZN6AriSdk25ARI_CsiBspStateSetReq_SDKC1EPKhj, 
                       __ZN6AriSdk25ARI_CsiBspStateSetReq_SDKC1Ev, __ZN6AriSdk25ARI_CsiBspStateSetReq_SDKC2EPKhj, 
                       __ZN6AriSdk25ARI_CsiBspStateSetReq_SDKC2Ev, __ZN6AriSdk25ARI_UtaMsCpsSetSvnReq_SDK4packEPP6AriMsg, 
                       __ZN6AriSdk25ARI_UtaMsCpsSetSvnReq_SDK6unpackEv, __ZN6AriSdk25ARI_UtaMsCpsSetSvnReq_SDKC1EPKhj, 
                       __ZN6AriSdk25ARI_UtaMsCpsSetSvnReq_SDKC1Ev, __ZN6AriSdk25ARI_UtaMsCpsSetSvnReq_SDKC2EPKhj, 
                       __ZN6AriSdk25ARI_UtaMsCpsSetSvnReq_SDKC2Ev, __ZN6AriSdk25ARI_UtaMsNetAttachReq_SDK4packEPP6AriMsg, 
                       __ZN6AriSdk25ARI_UtaMsNetAttachReq_SDK6unpackEv, __ZN6AriSdk25ARI_UtaMsNetAttachReq_SDKC1EPKhj, 
                       __ZN6AriSdk25ARI_UtaMsNetAttachReq_SDKC1Ev, __ZN6AriSdk25ARI_UtaMsNetAttachReq_SDKC2EPKhj, 
                       __ZN6AriSdk25ARI_UtaMsNetAttachReq_SDKC2Ev, __ZN6AriSdk25ARI_UtaMsNetDetachReq_SDK4packEPP6AriMsg, 
                       __ZN6AriSdk25ARI_UtaMsNetDetachReq_SDK6unpackEv, __ZN6AriSdk25ARI_UtaMsNetDetachReq_SDKC1EPKhj, 
                       __ZN6AriSdk25ARI_UtaMsNetDetachReq_SDKC1Ev, __ZN6AriSdk25ARI_UtaMsNetDetachReq_SDKC2EPKhj, 
                       __ZN6AriSdk25ARI_UtaMsNetDetachReq_SDKC2Ev, __ZN6AriSdk26ARI_CsiSecGetSNUMRspCb_SDK4packEPP6AriMsg, 
                       __ZN6AriSdk26ARI_CsiSecGetSNUMRspCb_SDK6unpackEv, __ZN6AriSdk26ARI_CsiSecGetSNUMRspCb_SDKC1EPKhj, 
                       __ZN6AriSdk26ARI_CsiSecGetSNUMRspCb_SDKC1Ev, __ZN6AriSdk26ARI_CsiSecGetSNUMRspCb_SDKC2EPKhj, 
                       __ZN6AriSdk26ARI_CsiSecGetSNUMRspCb_SDKC2Ev, __ZN6AriSdk26ARI_CsiSysGetInfoRspCb_SDK4packEPP6AriMsg, 
                       __ZN6AriSdk26ARI_CsiSysGetInfoRspCb_SDK6unpackEv, __ZN6AriSdk26ARI_CsiSysGetInfoRspCb_SDKC1EPKhj, 
                       __ZN6AriSdk26ARI_CsiSysGetInfoRspCb_SDKC1Ev, __ZN6AriSdk26ARI_CsiSysGetInfoRspCb_SDKC2EPKhj, 
                       __ZN6AriSdk26ARI_CsiSysGetInfoRspCb_SDKC2Ev, __ZN6AriSdk27ARI_AriGrpMsgsAttribReq_SDK4packEPP6AriMsg, 
                       __ZN6AriSdk27ARI_AriGrpMsgsAttribReq_SDK6unpackEv, __ZN6AriSdk27ARI_AriGrpMsgsAttribReq_SDKC1EPKhj, 
                       __ZN6AriSdk27ARI_AriGrpMsgsAttribReq_SDKC1Ev, __ZN6AriSdk27ARI_AriGrpMsgsAttribReq_SDKC2EPKhj, 
                       __ZN6AriSdk27ARI_AriGrpMsgsAttribReq_SDKC2Ev, __ZN6AriSdk27ARI_CsiBspStateGetRspCb_SDK4packEPP6AriMsg, 
                       __ZN6AriSdk27ARI_CsiBspStateGetRspCb_SDK6unpackEv, __ZN6AriSdk27ARI_CsiBspStateGetRspCb_SDKC1EPKhj, 
                       __ZN6AriSdk27ARI_CsiBspStateGetRspCb_SDKC1Ev, __ZN6AriSdk27ARI_CsiBspStateGetRspCb_SDKC2EPKhj, 
                       __ZN6AriSdk27ARI_CsiBspStateGetRspCb_SDKC2Ev, __ZN6AriSdk27ARI_CsiBspStateSetRspCb_SDK4packEPP6AriMsg, 
                       __ZN6AriSdk27ARI_CsiBspStateSetRspCb_SDK6unpackEv, __ZN6AriSdk27ARI_CsiBspStateSetRspCb_SDKC1EPKhj, 
                       __ZN6AriSdk27ARI_CsiBspStateSetRspCb_SDKC1Ev, __ZN6AriSdk27ARI_CsiBspStateSetRspCb_SDKC2EPKhj, 
                       __ZN6AriSdk27ARI_CsiBspStateSetRspCb_SDKC2Ev, __ZN6AriSdk27ARI_CsiGetSystemTimeReq_SDK4packEPP6AriMsg, 
                       __ZN6AriSdk27ARI_CsiGetSystemTimeReq_SDK6unpackEv, __ZN6AriSdk27ARI_CsiGetSystemTimeReq_SDKC1EPKhj, 
                       __ZN6AriSdk27ARI_CsiGetSystemTimeReq_SDKC1Ev, __ZN6AriSdk27ARI_CsiGetSystemTimeReq_SDKC2EPKhj, 
                       __ZN6AriSdk27ARI_CsiGetSystemTimeReq_SDKC2Ev, __ZN6AriSdk27ARI_CsiMsCpsReadImeiReq_SDK4packEPP6AriMsg, 
                       __ZN6AriSdk27ARI_CsiMsCpsReadImeiReq_SDK6unpackEv, __ZN6AriSdk27ARI_CsiMsCpsReadImeiReq_SDKC1EPKhj, 
                       __ZN6AriSdk27ARI_CsiMsCpsReadImeiReq_SDKC1Ev, __ZN6AriSdk27ARI_CsiMsCpsReadImeiReq_SDKC2EPKhj, 
                       __ZN6AriSdk27ARI_CsiMsCpsReadImeiReq_SDKC2Ev, __ZN6AriSdk28ARI_AriGrpMsgsAttribResp_SDK4packEPP6AriMsg, 
                       __ZN6AriSdk28ARI_AriGrpMsgsAttribResp_SDK6unpackEv, __ZN6AriSdk28ARI_AriGrpMsgsAttribResp_SDKC1EPKhj, 
                       __ZN6AriSdk28ARI_AriGrpMsgsAttribResp_SDKC1Ev, __ZN6AriSdk28ARI_AriGrpMsgsAttribResp_SDKC2EPKhj, 
                       __ZN6AriSdk28ARI_AriGrpMsgsAttribResp_SDKC2Ev, __ZN6AriSdk28ARI_CsiGetSystemTimeResp_SDK4packEPP6AriMsg, 
                       __ZN6AriSdk28ARI_CsiGetSystemTimeResp_SDK6unpackEv, __ZN6AriSdk28ARI_CsiGetSystemTimeResp_SDKC1EPKhj, 
                       __ZN6AriSdk28ARI_CsiGetSystemTimeResp_SDKC1Ev, __ZN6AriSdk28ARI_CsiGetSystemTimeResp_SDKC2EPKhj, 
                       __ZN6AriSdk28ARI_CsiGetSystemTimeResp_SDKC2Ev, __ZN6AriSdk29ARI_CsiMsCpsReadImeiRspCb_SDK4packEPP6AriMsg, 
                       __ZN6AriSdk29ARI_CsiMsCpsReadImeiRspCb_SDK6unpackEv, __ZN6AriSdk29ARI_CsiMsCpsReadImeiRspCb_SDKC1EPKhj, 
                       __ZN6AriSdk29ARI_CsiMsCpsReadImeiRspCb_SDKC1Ev, __ZN6AriSdk29ARI_CsiMsCpsReadImeiRspCb_SDKC2EPKhj, 
                       __ZN6AriSdk29ARI_CsiMsCpsReadImeiRspCb_SDKC2Ev, __ZN6AriSdk29ARI_CsiSecGetRandomNumReq_SDK4packEPP6AriMsg, 
                       __ZN6AriSdk29ARI_CsiSecGetRandomNumReq_SDK6unpackEv, __ZN6AriSdk29ARI_CsiSecGetRandomNumReq_SDKC1EPKhj, 
                       __ZN6AriSdk29ARI_CsiSecGetRandomNumReq_SDKC1Ev, __ZN6AriSdk29ARI_CsiSecGetRandomNumReq_SDKC2EPKhj, 
                       __ZN6AriSdk29ARI_CsiSecGetRandomNumReq_SDKC2Ev, __ZN6AriSdk30ARI_AriUtaMsCpsSetSvnRspCb_SDK4packEPP6AriMsg, 
                       __ZN6AriSdk30ARI_AriUtaMsCpsSetSvnRspCb_SDK6unpackEv, __ZN6AriSdk30ARI_AriUtaMsCpsSetSvnRspCb_SDKC1EPKhj, 
                       __ZN6AriSdk30ARI_AriUtaMsCpsSetSvnRspCb_SDKC1Ev, __ZN6AriSdk30ARI_AriUtaMsCpsSetSvnRspCb_SDKC2EPKhj, 
                       __ZN6AriSdk30ARI_AriUtaMsCpsSetSvnRspCb_SDKC2Ev, __ZN6AriSdk30ARI_AriUtaMsNetAttachRspCb_SDK4packEPP6AriMsg, 
                       __ZN6AriSdk30ARI_AriUtaMsNetAttachRspCb_SDK6unpackEv, __ZN6AriSdk30ARI_AriUtaMsNetAttachRspCb_SDKC1EPKhj, 
                       __ZN6AriSdk30ARI_AriUtaMsNetAttachRspCb_SDKC1Ev, __ZN6AriSdk30ARI_AriUtaMsNetAttachRspCb_SDKC2EPKhj, 
                       __ZN6AriSdk30ARI_AriUtaMsNetAttachRspCb_SDKC2Ev, __ZN6AriSdk30ARI_AriUtaMsNetDetachRspCb_SDK4packEPP6AriMsg, 
                       __ZN6AriSdk30ARI_AriUtaMsNetDetachRspCb_SDK6unpackEv, __ZN6AriSdk30ARI_AriUtaMsNetDetachRspCb_SDKC1EPKhj, 
                       __ZN6AriSdk30ARI_AriUtaMsNetDetachRspCb_SDKC1Ev, __ZN6AriSdk30ARI_AriUtaMsNetDetachRspCb_SDKC2EPKhj, 
                       __ZN6AriSdk30ARI_AriUtaMsNetDetachRspCb_SDKC2Ev, __ZN6AriSdk30ARI_CsiBspDebugJtagModeReq_SDK4packEPP6AriMsg, 
                       __ZN6AriSdk30ARI_CsiBspDebugJtagModeReq_SDK6unpackEv, __ZN6AriSdk30ARI_CsiBspDebugJtagModeReq_SDKC1EPKhj, 
                       __ZN6AriSdk30ARI_CsiBspDebugJtagModeReq_SDKC1Ev, __ZN6AriSdk30ARI_CsiBspDebugJtagModeReq_SDKC2EPKhj, 
                       __ZN6AriSdk30ARI_CsiBspDebugJtagModeReq_SDKC2Ev, __ZN6AriSdk31ARI_CsiMsSimCardPresenceReq_SDK4packEPP6AriMsg, 
                       __ZN6AriSdk31ARI_CsiMsSimCardPresenceReq_SDK6unpackEv, __ZN6AriSdk31ARI_CsiMsSimCardPresenceReq_SDKC1EPKhj, 
                       __ZN6AriSdk31ARI_CsiMsSimCardPresenceReq_SDKC1Ev, __ZN6AriSdk31ARI_CsiMsSimCardPresenceReq_SDKC2EPKhj, 
                       __ZN6AriSdk31ARI_CsiMsSimCardPresenceReq_SDKC2Ev, __ZN6AriSdk31ARI_CsiSecGetFusingStateReq_SDK4packEPP6AriMsg, 
                       __ZN6AriSdk31ARI_CsiSecGetFusingStateReq_SDK6unpackEv, __ZN6AriSdk31ARI_CsiSecGetFusingStateReq_SDKC1EPKhj, 
                       __ZN6AriSdk31ARI_CsiSecGetFusingStateReq_SDKC1Ev, __ZN6AriSdk31ARI_CsiSecGetFusingStateReq_SDKC2EPKhj, 
                       __ZN6AriSdk31ARI_CsiSecGetFusingStateReq_SDKC2Ev, __ZN6AriSdk31ARI_CsiSecGetRandomNumRspCb_SDK4packEPP6AriMsg, 
                       __ZN6AriSdk31ARI_CsiSecGetRandomNumRspCb_SDK6unpackEv, __ZN6AriSdk31ARI_CsiSecGetRandomNumRspCb_SDKC1EPKhj, 
                       __ZN6AriSdk31ARI_CsiSecGetRandomNumRspCb_SDKC1Ev, __ZN6AriSdk31ARI_CsiSecGetRandomNumRspCb_SDKC2EPKhj, 
                       __ZN6AriSdk31ARI_CsiSecGetRandomNumRspCb_SDKC2Ev, __ZN6AriSdk32ARI_CsiBspDebugJtagModeRspCb_SDK4packEPP6AriMsg, 
                       __ZN6AriSdk32ARI_CsiBspDebugJtagModeRspCb_SDK6unpackEv, __ZN6AriSdk32ARI_CsiBspDebugJtagModeRspCb_SDKC1EPKhj, 
                       __ZN6AriSdk32ARI_CsiBspDebugJtagModeRspCb_SDKC1Ev, __ZN6AriSdk32ARI_CsiBspDebugJtagModeRspCb_SDKC2EPKhj, 
                       __ZN6AriSdk32ARI_CsiBspDebugJtagModeRspCb_SDKC2Ev, __ZN6AriSdk33ARI_CsiGetCurrentBootStateReq_SDK4packEPP6AriMsg, 
                       __ZN6AriSdk33ARI_CsiGetCurrentBootStateReq_SDK6unpackEv, __ZN6AriSdk33ARI_CsiGetCurrentBootStateReq_SDKC1EPKhj, 
                       __ZN6AriSdk33ARI_CsiGetCurrentBootStateReq_SDKC1Ev, __ZN6AriSdk33ARI_CsiGetCurrentBootStateReq_SDKC2EPKhj, 
                       __ZN6AriSdk33ARI_CsiGetCurrentBootStateReq_SDKC2Ev, __ZN6AriSdk33ARI_CsiMsSimCardPresenceRspCb_SDK4packEPP6AriMsg, 
                       __ZN6AriSdk33ARI_CsiMsSimCardPresenceRspCb_SDK6unpackEv, __ZN6AriSdk33ARI_CsiMsSimCardPresenceRspCb_SDKC1EPKhj, 
                       __ZN6AriSdk33ARI_CsiMsSimCardPresenceRspCb_SDKC1Ev, __ZN6AriSdk33ARI_CsiMsSimCardPresenceRspCb_SDKC2EPKhj, 
                       __ZN6AriSdk33ARI_CsiMsSimCardPresenceRspCb_SDKC2Ev, __ZN6AriSdk33ARI_CsiSecGetFusingStateRspCb_SDK4packEPP6AriMsg, 
                       __ZN6AriSdk33ARI_CsiSecGetFusingStateRspCb_SDK6unpackEv, __ZN6AriSdk33ARI_CsiSecGetFusingStateRspCb_SDKC1EPKhj, 
                       __ZN6AriSdk33ARI_CsiSecGetFusingStateRspCb_SDKC1Ev, __ZN6AriSdk33ARI_CsiSecGetFusingStateRspCb_SDKC2EPKhj, 
                       __ZN6AriSdk33ARI_CsiSecGetFusingStateRspCb_SDKC2Ev, __ZN6AriSdk33ARI_UtaMsCallCsReleaseCallReq_SDK4packEPP6AriMsg, 
                       __ZN6AriSdk33ARI_UtaMsCallCsReleaseCallReq_SDK6unpackEv, __ZN6AriSdk33ARI_UtaMsCallCsReleaseCallReq_SDKC1EPKhj, 
                       __ZN6AriSdk33ARI_UtaMsCallCsReleaseCallReq_SDKC1Ev, __ZN6AriSdk33ARI_UtaMsCallCsReleaseCallReq_SDKC2EPKhj, 
                       __ZN6AriSdk33ARI_UtaMsCallCsReleaseCallReq_SDKC2Ev, __ZN6AriSdk35ARI_CsiGetCurrentBootStateRspCb_SDK4packEPP6AriMsg, 
                       __ZN6AriSdk35ARI_CsiGetCurrentBootStateRspCb_SDK6unpackEv, 
                       __ZN6AriSdk35ARI_CsiGetCurrentBootStateRspCb_SDKC1EPKhj, __ZN6AriSdk35ARI_CsiGetCurrentBootStateRspCb_SDKC1Ev, 
                       __ZN6AriSdk35ARI_CsiGetCurrentBootStateRspCb_SDKC2EPKhj, __ZN6AriSdk35ARI_CsiGetCurrentBootStateRspCb_SDKC2Ev, 
                       __ZN6AriSdk36ARI_AriUtaMsCallCsSetupCallRspCb_SDK4packEPP6AriMsg, 
                       __ZN6AriSdk36ARI_AriUtaMsCallCsSetupCallRspCb_SDK6unpackEv, 
                       __ZN6AriSdk36ARI_AriUtaMsCallCsSetupCallRspCb_SDKC1EPKhj, 
                       __ZN6AriSdk36ARI_AriUtaMsCallCsSetupCallRspCb_SDKC1Ev, __ZN6AriSdk36ARI_AriUtaMsCallCsSetupCallRspCb_SDKC2EPKhj, 
                       __ZN6AriSdk36ARI_AriUtaMsCallCsSetupCallRspCb_SDKC2Ev, __ZN6AriSdk36ARI_CsiBmmProvideBootTimeInfoReq_SDK4packEPP6AriMsg, 
                       __ZN6AriSdk36ARI_CsiBmmProvideBootTimeInfoReq_SDK6unpackEv, 
                       __ZN6AriSdk36ARI_CsiBmmProvideBootTimeInfoReq_SDKC1EPKhj, 
                       __ZN6AriSdk36ARI_CsiBmmProvideBootTimeInfoReq_SDKC1Ev, __ZN6AriSdk36ARI_CsiBmmProvideBootTimeInfoReq_SDKC2EPKhj, 
                       __ZN6AriSdk36ARI_CsiBmmProvideBootTimeInfoReq_SDKC2Ev, __ZN6AriSdk36ARI_UtaMsCallCsSetupVoiceCallReq_SDK4packEPP6AriMsg, 
                       __ZN6AriSdk36ARI_UtaMsCallCsSetupVoiceCallReq_SDK6unpackEv, 
                       __ZN6AriSdk36ARI_UtaMsCallCsSetupVoiceCallReq_SDKC1EPKhj, 
                       __ZN6AriSdk36ARI_UtaMsCallCsSetupVoiceCallReq_SDKC1Ev, __ZN6AriSdk36ARI_UtaMsCallCsSetupVoiceCallReq_SDKC2EPKhj, 
                       __ZN6AriSdk36ARI_UtaMsCallCsSetupVoiceCallReq_SDKC2Ev, __ZN6AriSdk38ARI_AriUtaMsCallCsReleaseCallRspCb_SDK4packEPP6AriMsg, 
                       __ZN6AriSdk38ARI_AriUtaMsCallCsReleaseCallRspCb_SDK6unpackEv, 
                       __ZN6AriSdk38ARI_AriUtaMsCallCsReleaseCallRspCb_SDKC1EPKhj, 
                       __ZN6AriSdk38ARI_AriUtaMsCallCsReleaseCallRspCb_SDKC1Ev, __ZN6AriSdk38ARI_AriUtaMsCallCsReleaseCallRspCb_SDKC2EPKhj, 
                       __ZN6AriSdk38ARI_AriUtaMsCallCsReleaseCallRspCb_SDKC2Ev, __ZN6AriSdk38ARI_CsiBmmProvideBootTimeInfoRspCb_SDK4packEPP6AriMsg, 
                       __ZN6AriSdk38ARI_CsiBmmProvideBootTimeInfoRspCb_SDK6unpackEv, 
                       __ZN6AriSdk38ARI_CsiBmmProvideBootTimeInfoRspCb_SDKC1EPKhj, 
                       __ZN6AriSdk38ARI_CsiBmmProvideBootTimeInfoRspCb_SDKC1Ev, __ZN6AriSdk38ARI_CsiBmmProvideBootTimeInfoRspCb_SDKC2EPKhj, 
                       __ZN6AriSdk38ARI_CsiBmmProvideBootTimeInfoRspCb_SDKC2Ev, __ZN6AriSdk38ARI_CsiMsCpsGetCurrentBootStateReq_SDK4packEPP6AriMsg, 
                       __ZN6AriSdk38ARI_CsiMsCpsGetCurrentBootStateReq_SDK6unpackEv, 
                       __ZN6AriSdk38ARI_CsiMsCpsGetCurrentBootStateReq_SDKC1EPKhj, 
                       __ZN6AriSdk38ARI_CsiMsCpsGetCurrentBootStateReq_SDKC1Ev, __ZN6AriSdk38ARI_CsiMsCpsGetCurrentBootStateReq_SDKC2EPKhj, 
                       __ZN6AriSdk38ARI_CsiMsCpsGetCurrentBootStateReq_SDKC2Ev, __ZN6AriSdk40ARI_CsiMsCpsGetCurrentBootStateRspCb_SDK4packEPP6AriMsg, 
                       __ZN6AriSdk40ARI_CsiMsCpsGetCurrentBootStateRspCb_SDK6unpackEv, 
                       __ZN6AriSdk40ARI_CsiMsCpsGetCurrentBootStateRspCb_SDKC1EPKhj, 
                       __ZN6AriSdk40ARI_CsiMsCpsGetCurrentBootStateRspCb_SDKC1Ev, 
                       __ZN6AriSdk40ARI_CsiMsCpsGetCurrentBootStateRspCb_SDKC2EPKhj, 
                       __ZN6AriSdk40ARI_CsiMsCpsGetCurrentBootStateRspCb_SDKC2Ev, 
                       __ZN6AriSdk44ARI_AriUtaModeInitialSwitchCompleteIndCb_SDK4packEPP6AriMsg, 
                       __ZN6AriSdk44ARI_AriUtaModeInitialSwitchCompleteIndCb_SDK6unpackEv, 
                       __ZN6AriSdk44ARI_AriUtaModeInitialSwitchCompleteIndCb_SDKC1EPKhj, 
                       __ZN6AriSdk44ARI_AriUtaModeInitialSwitchCompleteIndCb_SDKC1Ev, 
                       __ZN6AriSdk44ARI_AriUtaModeInitialSwitchCompleteIndCb_SDKC2EPKhj, 
                       __ZN6AriSdk44ARI_AriUtaModeInitialSwitchCompleteIndCb_SDKC2Ev, 
                       __ZN6AriSdk7MsgBase4sendEiU13block_pointerFiPhjE, __ZN6AriSdk7MsgBaseC2EPKhj, 
                       __ZN6AriSdk7MsgBaseC2Ejb, __ZN6AriSdk7MsgBaseD1Ev, __ZN6AriSdk7MsgBaseD2Ev, 
                       __ZN7AriHost4SendER6AriMsgiU13block_pointerFiPhjEbj, __ZN9AriFramer5closeEv, 
                       __ZN9AriFramer8fmrMsgCbEPhm, __ZN9AriFramer9IpcDataCbEPhmPv, 
                       __ZN9AriHostRt11GetInstanceEv, __ZN9AriHostRt12InboundIndCBENSt3__110shared_ptrINS0_6vectorIhNS0_9allocatorIhEEEEEE, 
                       __ZN9AriHostRt12InboundMsgCBEPhm, __ZN9AriHostRt12SetMsgAttribEP17AriMsgAttribParam, 
                       __ZN9AriHostRt13InboundRespCBENSt3__110shared_ptrINS0_6vectorIhNS0_9allocatorIhEEEEEE, 
                       __ZN9AriHostRt13RegIndicationEjj, __ZN9AriHostRt13RtTransaction14getClientProxyEv, 
                       __ZN9AriHostRt13RtTransaction16getFullContextIdEv, __ZN9AriHostRt13RtTransaction21startTimeoutCountDownEv, 
                       __ZN9AriHostRt13RtTransaction6cancelEi, __ZN9AriHostRt13RtTransaction6createEPKhjNSt3__110shared_ptrIN3Ari14AriClientProxyEEEP16dispatch_queue_syy, 
                       __ZN9AriHostRt13RtTransaction7getGMIDEv, __ZN9AriHostRt13RtTransaction9updateSeqEj, 
                       __ZN9AriHostRt13RtTransactionC1ENSt3__110shared_ptrINS1_6vectorIhNS1_9allocatorIhEEEEEENS2_IN3Ari14AriClientProxyEEEP16dispatch_queue_syy, 
                       __ZN9AriHostRt13RtTransactionC2ENSt3__110shared_ptrINS1_6vectorIhNS1_9allocatorIhEEEEEENS2_IN3Ari14AriClientProxyEEEP16dispatch_queue_syy, 
                       __ZN9AriHostRt13RtTransactionD1Ev, __ZN9AriHostRt13RtTransactionD2Ev, 
                       __ZN9AriHostRt14HasEntitlementEPv, __ZN9AriHostRt14RegisterClientEPKcPjP16dispatch_queue_s, 
                       __ZN9AriHostRt14RegisterClientEPv, __ZN9AriHostRt15DeregIndicationEjj, 
                       __ZN9AriHostRt15IsBasebandReadyEv, __ZN9AriHostRt15RegisterSnifferEP16dispatch_queue_sPFiPhmEb, 
                       __ZN9AriHostRt15SendRawInternalEPhj, __ZN9AriHostRt16DeregisterClientEj, 
                       __ZN9AriHostRt18ProcessClientErrorEi21ARI_CLIENT_ERROR_TYPENSt3__112basic_stringIcNS1_11char_traitsIcEENS1_9allocatorIcEEEE, 
                       __ZN9AriHostRt20SendBootStateRequestEv, __ZN9AriHostRt21CancelAllTransactionsEv, 
                       __ZN9AriHostRt22ProcessClientNotifyAckEi18ARI_XPC_NOTIFY_IDSy, 
                       __ZN9AriHostRt23ClientTransitionTracker11trackClientENSt3__110shared_ptrIN3Ari14AriClientProxyEEE18ARI_XPC_NOTIFY_IDS, 
                       __ZN9AriHostRt23ClientTransitionTracker12removeClientEiy, 
                       __ZN9AriHostRt23ClientTransitionTracker14tokenGeneratorE, 
                       __ZN9AriHostRt23ClientTransitionTracker19logRemainingClientsEv, 
                       __ZN9AriHostRt23ClientTransitionTracker6createENSt3__18functionIFvvEEE, 
                       __ZN9AriHostRt23ClientTransitionTrackerC1ENSt3__18functionIFvvEEE, 
                       __ZN9AriHostRt23ClientTransitionTrackerC2ENSt3__18functionIFvvEEE, 
                       __ZN9AriHostRt23ClientTransitionTrackerD1Ev, __ZN9AriHostRt23ClientTransitionTrackerD2Ev, 
                       __ZN9AriHostRt26RegisterEntitlementCheckerENSt3__18functionIFbPvEEE, 
                       __ZN9AriHostRt29RegisterBasebandResetDelegateENSt3__18functionIFvNS_20ARI_CLIENT_ERROR_EVTENS0_12basic_stringIcNS0_11char_traitsIcEENS0_9allocatorIcEEEEijEEE, 
                       __ZN9AriHostRt4InitEPKc, __ZN9AriHostRt4InitEv, __ZN9AriHostRt7SendRawEPhjj, 
                       __ZN9AriHostRt8ShutdownEv, __ZN9AriHostRt9DumpStateEv, __ZN9AriHostRt9SetOPModeENS_11ARI_OP_MODEEP16dispatch_group_sj, 
                       __ZN9AriHostRtD1Ev, __ZN9AriHostRtD2Ev, __ZNK6AriMsg10extractCtxEPi, 
                       __ZNK6AriMsg13getEncodedBufEPj, __ZNK6AriMsg14isTlvMandatoryEj, 
                       __ZNK6AriMsg6unpackEjPvmPbPm, __ZNK6AriMsg7getGmidEv, __ZNK6AriMsg7isValidEj, 
                       __ZNK6AriMsg7unparamEhPvm, __ZNK9AriHostRt13RtTransaction8asStringEv, 
                       __ZTIN3Ari17AriClientGcdProxyE, __ZTIN3Ari17AriClientXpcProxyE, 
                       __ZTIN6AriSdk14ARI_AriACK_SDKE, __ZTIN6AriSdk15ARI_AriNACK_SDKE, 
                       __ZTIN6AriSdk19ARI_AriBBLogInd_SDKE, __ZTIN6AriSdk21ARI_CsiModeGetReq_SDKE, 
                       __ZTIN6AriSdk21ARI_CsiModeSetReq_SDKE, __ZTIN6AriSdk23ARI_AriGrpAttribReq_SDKE, 
                       __ZTIN6AriSdk23ARI_AriMsgAttribReq_SDKE, __ZTIN6AriSdk23ARI_CsiBSPBBDumpInd_SDKE, 
                       __ZTIN6AriSdk23ARI_CsiModeGetRspCb_SDKE, __ZTIN6AriSdk23ARI_CsiModeSetIndCb_SDKE, 
                       __ZTIN6AriSdk24ARI_AriGrpAttribResp_SDKE, __ZTIN6AriSdk24ARI_AriMsgAttribResp_SDKE, 
                       __ZTIN6AriSdk24ARI_CsiModeSetRespCb_SDKE, __ZTIN6AriSdk24ARI_CsiSecGetSNUMReq_SDKE, 
                       __ZTIN6AriSdk24ARI_CsiSysGetInfoReq_SDKE, __ZTIN6AriSdk25ARI_CsiBspStateGetReq_SDKE, 
                       __ZTIN6AriSdk25ARI_CsiBspStateSetReq_SDKE, __ZTIN6AriSdk25ARI_UtaMsCpsSetSvnReq_SDKE, 
                       __ZTIN6AriSdk25ARI_UtaMsNetAttachReq_SDKE, __ZTIN6AriSdk25ARI_UtaMsNetDetachReq_SDKE, 
                       __ZTIN6AriSdk26ARI_CsiSecGetSNUMRspCb_SDKE, __ZTIN6AriSdk26ARI_CsiSysGetInfoRspCb_SDKE, 
                       __ZTIN6AriSdk27ARI_AriGrpMsgsAttribReq_SDKE, __ZTIN6AriSdk27ARI_CsiBspStateGetRspCb_SDKE, 
                       __ZTIN6AriSdk27ARI_CsiBspStateSetRspCb_SDKE, __ZTIN6AriSdk27ARI_CsiGetSystemTimeReq_SDKE, 
                       __ZTIN6AriSdk27ARI_CsiMsCpsReadImeiReq_SDKE, __ZTIN6AriSdk28ARI_AriGrpMsgsAttribResp_SDKE, 
                       __ZTIN6AriSdk28ARI_CsiGetSystemTimeResp_SDKE, __ZTIN6AriSdk29ARI_CsiMsCpsReadImeiRspCb_SDKE, 
                       __ZTIN6AriSdk29ARI_CsiSecGetRandomNumReq_SDKE, __ZTIN6AriSdk30ARI_AriUtaMsCpsSetSvnRspCb_SDKE, 
                       __ZTIN6AriSdk30ARI_AriUtaMsNetAttachRspCb_SDKE, __ZTIN6AriSdk30ARI_AriUtaMsNetDetachRspCb_SDKE, 
                       __ZTIN6AriSdk30ARI_CsiBspDebugJtagModeReq_SDKE, __ZTIN6AriSdk31ARI_CsiMsSimCardPresenceReq_SDKE, 
                       __ZTIN6AriSdk31ARI_CsiSecGetFusingStateReq_SDKE, __ZTIN6AriSdk31ARI_CsiSecGetRandomNumRspCb_SDKE, 
                       __ZTIN6AriSdk32ARI_CsiBspDebugJtagModeRspCb_SDKE, __ZTIN6AriSdk33ARI_CsiGetCurrentBootStateReq_SDKE, 
                       __ZTIN6AriSdk33ARI_CsiMsSimCardPresenceRspCb_SDKE, __ZTIN6AriSdk33ARI_CsiSecGetFusingStateRspCb_SDKE, 
                       __ZTIN6AriSdk33ARI_UtaMsCallCsReleaseCallReq_SDKE, __ZTIN6AriSdk35ARI_CsiGetCurrentBootStateRspCb_SDKE, 
                       __ZTIN6AriSdk36ARI_AriUtaMsCallCsSetupCallRspCb_SDKE, __ZTIN6AriSdk36ARI_CsiBmmProvideBootTimeInfoReq_SDKE, 
                       __ZTIN6AriSdk36ARI_UtaMsCallCsSetupVoiceCallReq_SDKE, __ZTIN6AriSdk38ARI_AriUtaMsCallCsReleaseCallRspCb_SDKE, 
                       __ZTIN6AriSdk38ARI_CsiBmmProvideBootTimeInfoRspCb_SDKE, __ZTIN6AriSdk38ARI_CsiMsCpsGetCurrentBootStateReq_SDKE, 
                       __ZTIN6AriSdk40ARI_CsiMsCpsGetCurrentBootStateRspCb_SDKE, 
                       __ZTIN6AriSdk44ARI_AriUtaModeInitialSwitchCompleteIndCb_SDKE, 
                       __ZTIN6AriSdk7MsgBaseE, __ZTSN3Ari17AriClientGcdProxyE, __ZTSN3Ari17AriClientXpcProxyE, 
                       __ZTSN6AriSdk14ARI_AriACK_SDKE, __ZTSN6AriSdk15ARI_AriNACK_SDKE, 
                       __ZTSN6AriSdk19ARI_AriBBLogInd_SDKE, __ZTSN6AriSdk21ARI_CsiModeGetReq_SDKE, 
                       __ZTSN6AriSdk21ARI_CsiModeSetReq_SDKE, __ZTSN6AriSdk23ARI_AriGrpAttribReq_SDKE, 
                       __ZTSN6AriSdk23ARI_AriMsgAttribReq_SDKE, __ZTSN6AriSdk23ARI_CsiBSPBBDumpInd_SDKE, 
                       __ZTSN6AriSdk23ARI_CsiModeGetRspCb_SDKE, __ZTSN6AriSdk23ARI_CsiModeSetIndCb_SDKE, 
                       __ZTSN6AriSdk24ARI_AriGrpAttribResp_SDKE, __ZTSN6AriSdk24ARI_AriMsgAttribResp_SDKE, 
                       __ZTSN6AriSdk24ARI_CsiModeSetRespCb_SDKE, __ZTSN6AriSdk24ARI_CsiSecGetSNUMReq_SDKE, 
                       __ZTSN6AriSdk24ARI_CsiSysGetInfoReq_SDKE, __ZTSN6AriSdk25ARI_CsiBspStateGetReq_SDKE, 
                       __ZTSN6AriSdk25ARI_CsiBspStateSetReq_SDKE, __ZTSN6AriSdk25ARI_UtaMsCpsSetSvnReq_SDKE, 
                       __ZTSN6AriSdk25ARI_UtaMsNetAttachReq_SDKE, __ZTSN6AriSdk25ARI_UtaMsNetDetachReq_SDKE, 
                       __ZTSN6AriSdk26ARI_CsiSecGetSNUMRspCb_SDKE, __ZTSN6AriSdk26ARI_CsiSysGetInfoRspCb_SDKE, 
                       __ZTSN6AriSdk27ARI_AriGrpMsgsAttribReq_SDKE, __ZTSN6AriSdk27ARI_CsiBspStateGetRspCb_SDKE, 
                       __ZTSN6AriSdk27ARI_CsiBspStateSetRspCb_SDKE, __ZTSN6AriSdk27ARI_CsiGetSystemTimeReq_SDKE, 
                       __ZTSN6AriSdk27ARI_CsiMsCpsReadImeiReq_SDKE, __ZTSN6AriSdk28ARI_AriGrpMsgsAttribResp_SDKE, 
                       __ZTSN6AriSdk28ARI_CsiGetSystemTimeResp_SDKE, __ZTSN6AriSdk29ARI_CsiMsCpsReadImeiRspCb_SDKE, 
                       __ZTSN6AriSdk29ARI_CsiSecGetRandomNumReq_SDKE, __ZTSN6AriSdk30ARI_AriUtaMsCpsSetSvnRspCb_SDKE, 
                       __ZTSN6AriSdk30ARI_AriUtaMsNetAttachRspCb_SDKE, __ZTSN6AriSdk30ARI_AriUtaMsNetDetachRspCb_SDKE, 
                       __ZTSN6AriSdk30ARI_CsiBspDebugJtagModeReq_SDKE, __ZTSN6AriSdk31ARI_CsiMsSimCardPresenceReq_SDKE, 
                       __ZTSN6AriSdk31ARI_CsiSecGetFusingStateReq_SDKE, __ZTSN6AriSdk31ARI_CsiSecGetRandomNumRspCb_SDKE, 
                       __ZTSN6AriSdk32ARI_CsiBspDebugJtagModeRspCb_SDKE, __ZTSN6AriSdk33ARI_CsiGetCurrentBootStateReq_SDKE, 
                       __ZTSN6AriSdk33ARI_CsiMsSimCardPresenceRspCb_SDKE, __ZTSN6AriSdk33ARI_CsiSecGetFusingStateRspCb_SDKE, 
                       __ZTSN6AriSdk33ARI_UtaMsCallCsReleaseCallReq_SDKE, __ZTSN6AriSdk35ARI_CsiGetCurrentBootStateRspCb_SDKE, 
                       __ZTSN6AriSdk36ARI_AriUtaMsCallCsSetupCallRspCb_SDKE, __ZTSN6AriSdk36ARI_CsiBmmProvideBootTimeInfoReq_SDKE, 
                       __ZTSN6AriSdk36ARI_UtaMsCallCsSetupVoiceCallReq_SDKE, __ZTSN6AriSdk38ARI_AriUtaMsCallCsReleaseCallRspCb_SDKE, 
                       __ZTSN6AriSdk38ARI_CsiBmmProvideBootTimeInfoRspCb_SDKE, __ZTSN6AriSdk38ARI_CsiMsCpsGetCurrentBootStateReq_SDKE, 
                       __ZTSN6AriSdk40ARI_CsiMsCpsGetCurrentBootStateRspCb_SDKE, 
                       __ZTSN6AriSdk44ARI_AriUtaModeInitialSwitchCompleteIndCb_SDKE, 
                       __ZTSN6AriSdk7MsgBaseE, __ZTVN3Ari17AriClientGcdProxyE, __ZTVN3Ari17AriClientXpcProxyE, 
                       __ZTVN6AriSdk14ARI_AriACK_SDKE, __ZTVN6AriSdk15ARI_AriNACK_SDKE, 
                       __ZTVN6AriSdk19ARI_AriBBLogInd_SDKE, __ZTVN6AriSdk21ARI_CsiModeGetReq_SDKE, 
                       __ZTVN6AriSdk21ARI_CsiModeSetReq_SDKE, __ZTVN6AriSdk23ARI_AriGrpAttribReq_SDKE, 
                       __ZTVN6AriSdk23ARI_AriMsgAttribReq_SDKE, __ZTVN6AriSdk23ARI_CsiBSPBBDumpInd_SDKE, 
                       __ZTVN6AriSdk23ARI_CsiModeGetRspCb_SDKE, __ZTVN6AriSdk23ARI_CsiModeSetIndCb_SDKE, 
                       __ZTVN6AriSdk24ARI_AriGrpAttribResp_SDKE, __ZTVN6AriSdk24ARI_AriMsgAttribResp_SDKE, 
                       __ZTVN6AriSdk24ARI_CsiModeSetRespCb_SDKE, __ZTVN6AriSdk24ARI_CsiSecGetSNUMReq_SDKE, 
                       __ZTVN6AriSdk24ARI_CsiSysGetInfoReq_SDKE, __ZTVN6AriSdk25ARI_CsiBspStateGetReq_SDKE, 
                       __ZTVN6AriSdk25ARI_CsiBspStateSetReq_SDKE, __ZTVN6AriSdk25ARI_UtaMsCpsSetSvnReq_SDKE, 
                       __ZTVN6AriSdk25ARI_UtaMsNetAttachReq_SDKE, __ZTVN6AriSdk25ARI_UtaMsNetDetachReq_SDKE, 
                       __ZTVN6AriSdk26ARI_CsiSecGetSNUMRspCb_SDKE, __ZTVN6AriSdk26ARI_CsiSysGetInfoRspCb_SDKE, 
                       __ZTVN6AriSdk27ARI_AriGrpMsgsAttribReq_SDKE, __ZTVN6AriSdk27ARI_CsiBspStateGetRspCb_SDKE, 
                       __ZTVN6AriSdk27ARI_CsiBspStateSetRspCb_SDKE, __ZTVN6AriSdk27ARI_CsiGetSystemTimeReq_SDKE, 
                       __ZTVN6AriSdk27ARI_CsiMsCpsReadImeiReq_SDKE, __ZTVN6AriSdk28ARI_AriGrpMsgsAttribResp_SDKE, 
                       __ZTVN6AriSdk28ARI_CsiGetSystemTimeResp_SDKE, __ZTVN6AriSdk29ARI_CsiMsCpsReadImeiRspCb_SDKE, 
                       __ZTVN6AriSdk29ARI_CsiSecGetRandomNumReq_SDKE, __ZTVN6AriSdk30ARI_AriUtaMsCpsSetSvnRspCb_SDKE, 
                       __ZTVN6AriSdk30ARI_AriUtaMsNetAttachRspCb_SDKE, __ZTVN6AriSdk30ARI_AriUtaMsNetDetachRspCb_SDKE, 
                       __ZTVN6AriSdk30ARI_CsiBspDebugJtagModeReq_SDKE, __ZTVN6AriSdk31ARI_CsiMsSimCardPresenceReq_SDKE, 
                       __ZTVN6AriSdk31ARI_CsiSecGetFusingStateReq_SDKE, __ZTVN6AriSdk31ARI_CsiSecGetRandomNumRspCb_SDKE, 
                       __ZTVN6AriSdk32ARI_CsiBspDebugJtagModeRspCb_SDKE, __ZTVN6AriSdk33ARI_CsiGetCurrentBootStateReq_SDKE, 
                       __ZTVN6AriSdk33ARI_CsiMsSimCardPresenceRspCb_SDKE, __ZTVN6AriSdk33ARI_CsiSecGetFusingStateRspCb_SDKE, 
                       __ZTVN6AriSdk33ARI_UtaMsCallCsReleaseCallReq_SDKE, __ZTVN6AriSdk35ARI_CsiGetCurrentBootStateRspCb_SDKE, 
                       __ZTVN6AriSdk36ARI_AriUtaMsCallCsSetupCallRspCb_SDKE, __ZTVN6AriSdk36ARI_CsiBmmProvideBootTimeInfoReq_SDKE, 
                       __ZTVN6AriSdk36ARI_UtaMsCallCsSetupVoiceCallReq_SDKE, __ZTVN6AriSdk38ARI_AriUtaMsCallCsReleaseCallRspCb_SDKE, 
                       __ZTVN6AriSdk38ARI_CsiBmmProvideBootTimeInfoRspCb_SDKE, __ZTVN6AriSdk38ARI_CsiMsCpsGetCurrentBootStateReq_SDKE, 
                       __ZTVN6AriSdk40ARI_CsiMsCpsGetCurrentBootStateRspCb_SDKE, 
                       __ZTVN6AriSdk44ARI_AriUtaModeInitialSwitchCompleteIndCb_SDKE ]
    weak-def-symbols: [ _ARI_AriGroupAttribParam_DEC_F, _ARI_AriGroupAttribParam_ENC_F, 
                        _ARI_AriGrpMsgsAttribParam_DEC_F, _ARI_AriGrpMsgsAttribParam_ENC_F, 
                        _ARI_AriLog2APParam_DEC_F, _ARI_AriLog2APParam_ENC_F, _ARI_AriMsgAttribParam_DEC_F, 
                        _ARI_AriMsgAttribParam_ENC_F, _ARI_AriStatusTlv_DEC_F, _ARI_AriStatusTlv_ENC_F, 
                        _ARI_CsiBmmBootTimeInfoReport_DEC_F, _ARI_CsiBmmBootTimeInfoReport_ENC_F, 
                        _ARI_CsiBootStateRspParam_DEC_F, _ARI_CsiBootStateRspParam_ENC_F, 
                        _ARI_CsiBspDebugJtagMode_DEC_F, _ARI_CsiBspDebugJtagMode_ENC_F, 
                        _ARI_CsiModeGetRspParam_DEC_F, _ARI_CsiModeGetRspParam_ENC_F, 
                        _ARI_CsiModeSetIndParam_DEC_F, _ARI_CsiModeSetIndParam_ENC_F, 
                        _ARI_CsiMsCpsBootStateRspParam_DEC_F, _ARI_CsiMsCpsBootStateRspParam_ENC_F, 
                        _ARI_CsiMsCpsReadImeiRspParam_DEC_F, _ARI_CsiMsCpsReadImeiRspParam_ENC_F, 
                        _ARI_CsiSecNonce_DEC_F, _ARI_CsiSecNonce_ENC_F, _ARI_CsiSecSnumInfo_DEC_F, 
                        _ARI_CsiSecSnumInfo_ENC_F, _ARI_CsiSimCardStatusInfo_DEC_F, 
                        _ARI_CsiSimCardStatusInfo_ENC_F, _ARI_CsiVerInfoStringV2_DEC_F, 
                        _ARI_CsiVerInfoStringV2_ENC_F, _ARI_CsiVerInfoString_DEC_F, 
                        _ARI_CsiVerInfoString_ENC_F, _ARI_UtaBool_DEC_F, _ARI_UtaBool_ENC_F, 
                        _ARI_UtaCallCsReleaseCallReqParams_DEC_F, _ARI_UtaCallCsReleaseCallReqParams_ENC_F, 
                        _ARI_UtaCallCsReleaseCallRspCbParams_DEC_F, _ARI_UtaCallCsReleaseCallRspCbParams_ENC_F, 
                        _ARI_UtaCallCsSetupCallRspCbParams_DEC_F, _ARI_UtaCallCsSetupCallRspCbParams_ENC_F, 
                        _ARI_UtaCallCsSetupVoiceCallReqParams_DEC_F, _ARI_UtaCallCsSetupVoiceCallReqParams_ENC_F, 
                        _ARI_UtaChar_DEC_F, _ARI_UtaChar_ENC_F, _ARI_UtaCpsSetSvnReqParam_DEC_F, 
                        _ARI_UtaCpsSetSvnReqParam_ENC_F, _ARI_UtaCpsSvnResult_DEC_F, 
                        _ARI_UtaCpsSvnResult_ENC_F, _ARI_UtaInt32_DEC_F, _ARI_UtaInt32_ENC_F, 
                        _ARI_UtaMode_DEC_F, _ARI_UtaMode_ENC_F, _ARI_UtaNetAttachReqParam_DEC_F, 
                        _ARI_UtaNetAttachReqParam_ENC_F, _ARI_UtaNetAttachRspParam_DEC_F, 
                        _ARI_UtaNetAttachRspParam_ENC_F, _ARI_UtaNetDetachResParam_DEC_F, 
                        _ARI_UtaNetDetachResParam_ENC_F, _ARI_UtaSysInfoType_DEC_F, 
                        _ARI_UtaSysInfoType_ENC_F, _ARI_UtaUInt32_DEC_F, _ARI_UtaUInt32_ENC_F, 
                        _ARI_UtaUInt64_DEC_F, _ARI_UtaUInt64_ENC_F ]
...
