--- !tapi-tbd-v2
archs:           [ armv7, armv7s, arm64 ]
uuids:           [ 'armv7: 8A2C41F4-4190-34D5-8C55-A75473EC3D1C', 'armv7s: ABA4CAC2-F9BA-3EFA-8C47-F7035C10AE35', 
                   'arm64: 61CA8AC0-7F8A-3F44-879A-8020CA607A84' ]
platform:        ios
install-name:    /usr/lib/libAWDSupport.dylib
objc-constraint: none
exports:         
  - archs:           [ armv7, armv7s ]
    symbols:         [ __Z12getHexStringy, __Z12getHexStringym, __Z14getStringVargsPKcz, 
                       __Z15getMetricStringR24MetricFileMetadataHelperj, __Z16getTriggerStringR24MetricFileMetadataHelperj, 
                       __Z19sConvertMetricToXpcRKNSt3__110shared_ptrI17AwdMetadataLoaderEERKNS_6vectorIhNS_9allocatorIhEEEE, 
                       __Z21getTimeDurationStringNSt3__16chrono8durationIlNS_5ratioILx3600ELx1EEEEE, 
                       __Z21getTimeDurationStringNSt3__16chrono8durationIlNS_5ratioILx60ELx1EEEEE, 
                       __Z21getTimeDurationStringNSt3__16chrono8durationIxNS_5ratioILx1ELx1000000000EEEEE, 
                       __Z21getTimeDurationStringNSt3__16chrono8durationIxNS_5ratioILx1ELx1000000EEEEE, 
                       __Z21getTimeDurationStringNSt3__16chrono8durationIxNS_5ratioILx1ELx1000EEEEE, 
                       __Z21getTimeDurationStringNSt3__16chrono8durationIxNS_5ratioILx1ELx1EEEEE, 
                       __Z24getStringForAwdTimestampy, __Z25getStringFor1970Timestampy, 
                       __Z25getStringFor2001Timestampy, __Z36sCreateLibraryMetadataLoaderDelegatev, 
                       __ZN10awdprofile10MessageDef8readFromERN2PB6ReaderE, __ZN10awdprofile10MessageDefC1EOS0_, 
                       __ZN10awdprofile10MessageDefC1ERKS0_, __ZN10awdprofile10MessageDefC1Ev, 
                       __ZN10awdprofile10MessageDefC2EOS0_, __ZN10awdprofile10MessageDefC2ERKS0_, 
                       __ZN10awdprofile10MessageDefC2Ev, __ZN10awdprofile10MessageDefD0Ev, 
                       __ZN10awdprofile10MessageDefD1Ev, __ZN10awdprofile10MessageDefD2Ev, 
                       __ZN10awdprofile10MessageDefaSEOS0_, __ZN10awdprofile10MessageDefaSERKS0_, 
                       __ZN10awdprofile14MetadataHeader8readFromERN2PB6ReaderE, __ZN10awdprofile14MetadataHeaderC1EOS0_, 
                       __ZN10awdprofile14MetadataHeaderC1ERKS0_, __ZN10awdprofile14MetadataHeaderC1Ev, 
                       __ZN10awdprofile14MetadataHeaderC2EOS0_, __ZN10awdprofile14MetadataHeaderC2ERKS0_, 
                       __ZN10awdprofile14MetadataHeaderC2Ev, __ZN10awdprofile14MetadataHeaderD0Ev, 
                       __ZN10awdprofile14MetadataHeaderD1Ev, __ZN10awdprofile14MetadataHeaderD2Ev, 
                       __ZN10awdprofile14MetadataHeaderaSEOS0_, __ZN10awdprofile14MetadataHeaderaSERKS0_, 
                       __ZN10awdprofile4swapERNS_10MessageDefES1_, __ZN10awdprofile4swapERNS_14MetadataHeaderES1_, 
                       __ZN10awdprofile4swapERNS_5FieldES1_, __ZN10awdprofile4swapERNS_7EnumDefES1_, 
                       __ZN10awdprofile4swapERNS_8MetadataES1_, __ZN10awdprofile4swapERNS_9EnumValueES1_, 
                       __ZN10awdprofile5Field8readFromERN2PB6ReaderE, __ZN10awdprofile5FieldC1EOS0_, 
                       __ZN10awdprofile5FieldC1ERKS0_, __ZN10awdprofile5FieldC1Ev, 
                       __ZN10awdprofile5FieldC2EOS0_, __ZN10awdprofile5FieldC2ERKS0_, 
                       __ZN10awdprofile5FieldC2Ev, __ZN10awdprofile5FieldD0Ev, __ZN10awdprofile5FieldD1Ev, 
                       __ZN10awdprofile5FieldD2Ev, __ZN10awdprofile5FieldaSEOS0_, 
                       __ZN10awdprofile5FieldaSERKS0_, __ZN10awdprofile7EnumDef8readFromERN2PB6ReaderE, 
                       __ZN10awdprofile7EnumDefC1EOS0_, __ZN10awdprofile7EnumDefC1ERKS0_, 
                       __ZN10awdprofile7EnumDefC1Ev, __ZN10awdprofile7EnumDefC2EOS0_, 
                       __ZN10awdprofile7EnumDefC2ERKS0_, __ZN10awdprofile7EnumDefC2Ev, 
                       __ZN10awdprofile7EnumDefD0Ev, __ZN10awdprofile7EnumDefD1Ev, 
                       __ZN10awdprofile7EnumDefD2Ev, __ZN10awdprofile7EnumDefaSEOS0_, 
                       __ZN10awdprofile7EnumDefaSERKS0_, __ZN10awdprofile8Metadata8readFromERN2PB6ReaderE, 
                       __ZN10awdprofile8MetadataC1EOS0_, __ZN10awdprofile8MetadataC1ERKS0_, 
                       __ZN10awdprofile8MetadataC1Ev, __ZN10awdprofile8MetadataC2EOS0_, 
                       __ZN10awdprofile8MetadataC2ERKS0_, __ZN10awdprofile8MetadataC2Ev, 
                       __ZN10awdprofile8MetadataD0Ev, __ZN10awdprofile8MetadataD1Ev, 
                       __ZN10awdprofile8MetadataD2Ev, __ZN10awdprofile8MetadataaSEOS0_, 
                       __ZN10awdprofile8MetadataaSERKS0_, __ZN10awdprofile9EnumValue8readFromERN2PB6ReaderE, 
                       __ZN10awdprofile9EnumValueC1EOS0_, __ZN10awdprofile9EnumValueC1ERKS0_, 
                       __ZN10awdprofile9EnumValueC1Ev, __ZN10awdprofile9EnumValueC2EOS0_, 
                       __ZN10awdprofile9EnumValueC2ERKS0_, __ZN10awdprofile9EnumValueC2Ev, 
                       __ZN10awdprofile9EnumValueD0Ev, __ZN10awdprofile9EnumValueD1Ev, 
                       __ZN10awdprofile9EnumValueD2Ev, __ZN10awdprofile9EnumValueaSEOS0_, 
                       __ZN10awdprofile9EnumValueaSERKS0_, __ZN29LibraryMetadataLoaderDelegate12findMetadataE21ComponentMetadataKindj, 
                       __ZN29LibraryMetadataLoaderDelegate17getMetadataBinaryEv, 
                       __ZN29LibraryMetadataLoaderDelegate17readComponentDataE21ComponentMetadataKindj, 
                       __ZN29LibraryMetadataLoaderDelegate17readMetadataIndexENSt3__14pairIPKhmEE, 
                       __ZN29LibraryMetadataLoaderDelegate22getComponentsAvailableE21ComponentMetadataKind, 
                       __ZN29LibraryMetadataLoaderDelegate22readMetricFileMetadataE21ComponentMetadataKind, 
                       __ZN29LibraryMetadataLoaderDelegate24findDeviceConfigMetadataEv, 
                       __ZN29LibraryMetadataLoaderDelegate24readDeviceConfigMetadataEv, 
                       __ZN29LibraryMetadataLoaderDelegate9parseDataENSt3__14pairIPKhmEE, 
                       __ZN29LibraryMetadataLoaderDelegateD0Ev, __ZN29LibraryMetadataLoaderDelegateD1Ev, 
                       __ZN29LibraryMetadataLoaderDelegateD2Ev, __ZN3awd21kAWDMetricInfoUnknownE, 
                       __ZN3awd7reflect18ProtobufWriterBase11writeIndentEv, __ZN3awd7reflect18ProtobufWriterBase16writeSimpleFieldEPKcRKNSt3__112basic_stringIcNS4_11char_traitsIcEENS4_9allocatorIcEEEE, 
                       __ZN3awd7reflect18ProtobufWriterBase18sGetBytesHexStringEPKvm, 
                       __ZNK10awdprofile10MessageDef10formatTextERN2PB13TextFormatterEPKc, 
                       __ZNK10awdprofile10MessageDef10hash_valueEv, __ZNK10awdprofile10MessageDef7writeToERN2PB6WriterE, 
                       __ZNK10awdprofile10MessageDefeqERKS0_, __ZNK10awdprofile14MetadataHeader10formatTextERN2PB13TextFormatterEPKc, 
                       __ZNK10awdprofile14MetadataHeader10hash_valueEv, __ZNK10awdprofile14MetadataHeader7writeToERN2PB6WriterE, 
                       __ZNK10awdprofile14MetadataHeadereqERKS0_, __ZNK10awdprofile5Field10formatTextERN2PB13TextFormatterEPKc, 
                       __ZNK10awdprofile5Field10hash_valueEv, __ZNK10awdprofile5Field7writeToERN2PB6WriterE, 
                       __ZNK10awdprofile5FieldeqERKS0_, __ZNK10awdprofile7EnumDef10formatTextERN2PB13TextFormatterEPKc, 
                       __ZNK10awdprofile7EnumDef10hash_valueEv, __ZNK10awdprofile7EnumDef7writeToERN2PB6WriterE, 
                       __ZNK10awdprofile7EnumDefeqERKS0_, __ZNK10awdprofile8Metadata10formatTextERN2PB13TextFormatterEPKc, 
                       __ZNK10awdprofile8Metadata10hash_valueEv, __ZNK10awdprofile8Metadata7writeToERN2PB6WriterE, 
                       __ZNK10awdprofile8MetadataeqERKS0_, __ZNK10awdprofile9EnumValue10formatTextERN2PB13TextFormatterEPKc, 
                       __ZNK10awdprofile9EnumValue10hash_valueEv, __ZNK10awdprofile9EnumValue7writeToERN2PB6WriterE, 
                       __ZNK10awdprofile9EnumValueeqERKS0_, __ZNK14MetadataHelper17getFieldForHandleE14MetadataHandle, 
                       __ZNK3awd7reflect18ProtobufWriterBase13getBoolStringEb, __ZNK3awd7reflect18ProtobufWriterBase15getNumberStringEd, 
                       __ZNK3awd7reflect18ProtobufWriterBase15getNumberStringEf, 
                       __ZNK3awd7reflect18ProtobufWriterBase15getNumberStringEi, 
                       __ZNK3awd7reflect18ProtobufWriterBase15getNumberStringEj, 
                       __ZNK3awd7reflect18ProtobufWriterBase15getNumberStringEx, 
                       __ZNK3awd7reflect18ProtobufWriterBase15getNumberStringEy, 
                       __ZNK3awd7reflect18ProtobufWriterBase15getQuotedStringERKNSt3__112basic_stringIcNS2_11char_traitsIcEENS2_9allocatorIcEEEE, 
                       __ZNK3awd7reflect18ProtobufWriterBase17getBytesHexStringEPKvm, 
                       __ZNK3awd7reflect18ProtobufWriterBase18getNumberHexStringEj, 
                       __ZNK3awd7reflect18ProtobufWriterBase18getNumberHexStringEy, 
                       __ZNK3awd7reflect18ProtobufWriterBase23getNumberShortHexStringEy, 
                       __ZNK3awd7reflect21ProtobufXpcWriterBase10createBoolEb, __ZNK3awd7reflect21ProtobufXpcWriterBase12createNumberEd, 
                       __ZNK3awd7reflect21ProtobufXpcWriterBase12createNumberEf, 
                       __ZNK3awd7reflect21ProtobufXpcWriterBase12createNumberEi, 
                       __ZNK3awd7reflect21ProtobufXpcWriterBase12createNumberEj, 
                       __ZNK3awd7reflect21ProtobufXpcWriterBase12createNumberEx, 
                       __ZNK3awd7reflect21ProtobufXpcWriterBase12createNumberEy, 
                       __ZNK3awd7reflect21ProtobufXpcWriterBase12createStringEPKc, 
                       __ZNK3awd7reflect21ProtobufXpcWriterBase17getBytesHexStringEPKvm, 
                       __ZNK3awd7reflect21ProtobufXpcWriterBase8setFieldEPKcN3xpc6objectEb, 
                       __ZNK3awd7reflect22ProtobufJsonWriterBase10createBoolEb, __ZNK3awd7reflect22ProtobufJsonWriterBase12createNumberEd, 
                       __ZNK3awd7reflect22ProtobufJsonWriterBase12createNumberEf, 
                       __ZNK3awd7reflect22ProtobufJsonWriterBase12createNumberEi, 
                       __ZNK3awd7reflect22ProtobufJsonWriterBase12createNumberEj, 
                       __ZNK3awd7reflect22ProtobufJsonWriterBase12createNumberEx, 
                       __ZNK3awd7reflect22ProtobufJsonWriterBase12createNumberEy, 
                       __ZNK3awd7reflect22ProtobufJsonWriterBase12createStringEPKc, 
                       __ZNK3awd7reflect22ProtobufJsonWriterBase17getBytesHexStringEPKvm, 
                       __ZNK3awd7reflect22ProtobufJsonWriterBase8setFieldEPKcP8NSObjectb, 
                       __ZTI29LibraryMetadataLoaderDelegate, __ZTIN10awdprofile10MessageDefE, 
                       __ZTIN10awdprofile14MetadataHeaderE, __ZTIN10awdprofile5FieldE, 
                       __ZTIN10awdprofile7EnumDefE, __ZTIN10awdprofile8MetadataE, 
                       __ZTIN10awdprofile9EnumValueE, __ZTS29LibraryMetadataLoaderDelegate, 
                       __ZTSN10awdprofile10MessageDefE, __ZTSN10awdprofile14MetadataHeaderE, 
                       __ZTSN10awdprofile5FieldE, __ZTSN10awdprofile7EnumDefE, __ZTSN10awdprofile8MetadataE, 
                       __ZTSN10awdprofile9EnumValueE, __ZTV29LibraryMetadataLoaderDelegate, 
                       __ZTVN10awdprofile10MessageDefE, __ZTVN10awdprofile14MetadataHeaderE, 
                       __ZTVN10awdprofile5FieldE, __ZTVN10awdprofile7EnumDefE, __ZTVN10awdprofile8MetadataE, 
                       __ZTVN10awdprofile9EnumValueE ]
    weak-def-symbols: [ __ZTIN5boost10filesystem16filesystem_errorE, __ZTIN5boost6detail15sp_counted_baseE, 
                        __ZTIN5boost6detail17sp_counted_impl_pINS_10filesystem6detail11dir_itr_impEEE, 
                        __ZTIN5boost6system12system_errorE, __ZTINSt3__120__shared_ptr_emplaceI17AwdMetadataLoaderNS_9allocatorIS1_EEEE, 
                        __ZTINSt3__120__shared_ptr_emplaceIN10awdprofile8MetadataENS_9allocatorIS2_EEEE, 
                        __ZTSN5boost10filesystem16filesystem_errorE, __ZTSN5boost6detail15sp_counted_baseE, 
                        __ZTSN5boost6detail17sp_counted_impl_pINS_10filesystem6detail11dir_itr_impEEE, 
                        __ZTSN5boost6system12system_errorE, __ZTSNSt3__120__shared_ptr_emplaceI17AwdMetadataLoaderNS_9allocatorIS1_EEEE, 
                        __ZTSNSt3__120__shared_ptr_emplaceIN10awdprofile8MetadataENS_9allocatorIS2_EEEE ]
  - archs:           [ arm64 ]
    symbols:         [ __Z14sGetMetricNameRKNSt3__110shared_ptrI17AwdMetadataLoaderEEj, 
                       __Z19sConvertMetricToXpcRKNSt3__110shared_ptrI17AwdMetadataLoaderEEPKhm, 
                       __Z20sConvertMetricToJsonRKNSt3__110shared_ptrI17AwdMetadataLoaderEEPKhm, 
                       __Z21sConvertTriggerToJsonRKNSt3__110shared_ptrI17AwdMetadataLoaderEEPKhm, 
                       __Z40sCreateAwdMetadataLoaderForXpcConversionv, __Z41sCreateAwdMetadataLoaderForJsonConversionv, 
                       __ZN32BestChoiceMetadataLoaderDelegate14getMetricIndexEv, 
                       __ZN3awd14GetProtobufTagEPKhm, __ZN3awd7reflect13getPackedTypeENS0_4TypeE, 
                       __ZNK14MetadataHandle10getMessageEv, __ZNK14MetadataHandle7getEnumEv, 
                       __ZNK14MetadataHandle8getFieldEv, __ZNK17AwdMetadataLoader14getMetricIndexEv ]
  - archs:           [ armv7, armv7s, arm64 ]
    symbols:         [ __Z14sDumpMetricLogNSt3__110shared_ptrI17AwdMetadataLoaderEEPKvm10DumpFormat, 
                       __Z15sDumpMetricFileNSt3__110shared_ptrI17AwdMetadataLoaderEEPKvm10DumpFormat, 
                       __Z19sResolveMetricNamesRKNSt3__110shared_ptrI17AwdMetadataLoaderEERKNS_13unordered_setINS_12basic_stringIcNS_11char_traitsIcEENS_9allocatorIcEEEENS_4hashISB_EENS_8equal_toISB_EENS9_ISB_EEEE, 
                       __Z24sDumpDeviceConfigurationNSt3__110shared_ptrI17AwdMetadataLoaderEEPKvm10DumpFormat, 
                       __Z39sCreateBestChoiceMetadataLoaderDelegatev, __ZN14MetadataHelperC1ERKNSt3__110shared_ptrI17AwdMetadataLoaderEE, 
                       __ZN14MetadataHelperC2ERKNSt3__110shared_ptrI17AwdMetadataLoaderEE, 
                       __ZN17AwdMetadataLoader21loadComponentMetadataEj, __ZN17AwdMetadataLoader22loadMetricFileMetadataEv, 
                       __ZN17AwdMetadataLoader24loadDeviceConfigMetadataEv, __ZN17AwdMetadataLoaderC1E21ComponentMetadataKindNSt3__110unique_ptrI25AwdMetadataLoaderDelegateNS1_14default_deleteIS3_EEEE, 
                       __ZN17AwdMetadataLoaderC2E21ComponentMetadataKindNSt3__110unique_ptrI25AwdMetadataLoaderDelegateNS1_14default_deleteIS3_EEEE, 
                       __ZN24MetricFileMetadataHelper23setupMetricFileSentinelEv, 
                       __ZN24MetricFileMetadataHelperC1E16MetricScopeTag_tRKNSt3__110shared_ptrI17AwdMetadataLoaderEEj, 
                       __ZN24MetricFileMetadataHelperC1E19MetricLogScopeTag_tRKNSt3__110shared_ptrI17AwdMetadataLoaderEE, 
                       __ZN24MetricFileMetadataHelperC1E20MetricFileScopeTag_tRKNSt3__110shared_ptrI17AwdMetadataLoaderEE, 
                       __ZN24MetricFileMetadataHelperC2E16MetricScopeTag_tRKNSt3__110shared_ptrI17AwdMetadataLoaderEEj, 
                       __ZN24MetricFileMetadataHelperC2E19MetricLogScopeTag_tRKNSt3__110shared_ptrI17AwdMetadataLoaderEE, 
                       __ZN24MetricFileMetadataHelperC2E20MetricFileScopeTag_tRKNSt3__110shared_ptrI17AwdMetadataLoaderEE, 
                       __ZN25AwdMetadataLoaderDelegateD0Ev, __ZN25AwdMetadataLoaderDelegateD1Ev, 
                       __ZN25AwdMetadataLoaderDelegateD2Ev, __ZN26DeviceConfigMetadataHelperC1ERKNSt3__110shared_ptrI17AwdMetadataLoaderEE, 
                       __ZN26DeviceConfigMetadataHelperC2ERKNSt3__110shared_ptrI17AwdMetadataLoaderEE, 
                       __ZN32BestChoiceMetadataLoaderDelegate16ensureCacheReadyEv, 
                       __ZN32BestChoiceMetadataLoaderDelegate16loadBaseMetadataEv, 
                       __ZN32BestChoiceMetadataLoaderDelegate16readOverrideFileEjRKNSt3__112basic_stringIcNS0_11char_traitsIcEENS0_9allocatorIcEEEE, 
                       __ZN32BestChoiceMetadataLoaderDelegate17readComponentDataE21ComponentMetadataKindj, 
                       __ZN32BestChoiceMetadataLoaderDelegate20loadOverrideMetadataEj, 
                       __ZN32BestChoiceMetadataLoaderDelegate20markOverrideFileUsedEjRK13MetadataIndex, 
                       __ZN32BestChoiceMetadataLoaderDelegate22getComponentsAvailableE21ComponentMetadataKind, 
                       __ZN32BestChoiceMetadataLoaderDelegate22readMetricFileMetadataE21ComponentMetadataKind, 
                       __ZN32BestChoiceMetadataLoaderDelegate23markOverrideFileSkippedEjRK13MetadataIndex, 
                       __ZN32BestChoiceMetadataLoaderDelegate7pickMapE21ComponentMetadataKind, 
                       __ZN32BestChoiceMetadataLoaderDelegateC1Ev, __ZN32BestChoiceMetadataLoaderDelegateC2Ev, 
                       __ZN32BestChoiceMetadataLoaderDelegateD0Ev, __ZN32BestChoiceMetadataLoaderDelegateD1Ev, 
                       __ZN32BestChoiceMetadataLoaderDelegateD2Ev, __ZN3awd14GetProtobufTagERKNSt3__16vectorIhNS0_9allocatorIhEEEE, 
                       __ZN3awd15getAWDTimestampEv, __ZN3awd15serializeMetricERKN2PB4BaseEj, 
                       __ZN3awd15serializeMetricERKN6google8protobuf11MessageLiteEj, 
                       __ZN3awd18timevalToTimestampER7timeval, __ZN3awd20createTagForProtobufEjm, 
                       __ZN3awd21tagSerializedProtobufEjRNSt3__16vectorIhNS0_9allocatorIhEEEE, 
                       __ZN3awd23getComponentForMetricIdEj, __ZN3awd27AwddStartedNotificationNameE, 
                       __ZN3awd29AwddStartedNotificationObjectE, __ZN3awd7reflect15getDecodingTypeENS0_4TypeENS0_8WireTypeE, 
                       __ZN3awd7reflect15getUnpackedTypeENS0_4TypeE, __ZN3awd7reflect18getWireTypeForTypeENS0_4TypeE, 
                       __ZN3awd7reflect9decodeTagEj, __ZN3awd7reflect9encodeTagENS0_8WireTypeEj, 
                       __ZN3awd8asStringENS_15DiagnosticsModeE, __ZN3awd8asStringERKNS_7TriggerE, 
                       __ZN3awd8protobuf15NumberConverterILNS_7reflect4TypeE1EE6decodeEy, 
                       __ZN3awd8protobuf15NumberConverterILNS_7reflect4TypeE1EE6encodeEd, 
                       __ZN3awd8protobuf15NumberConverterILNS_7reflect4TypeE2EE6decodeEy, 
                       __ZN3awd8protobuf15NumberConverterILNS_7reflect4TypeE2EE6encodeEf, 
                       __ZN3awd8protobuf15NumberConverterILNS_7reflect4TypeE5EE6decodeEy, 
                       __ZN3awd8protobuf15NumberConverterILNS_7reflect4TypeE5EE6encodeEx, 
                       __ZN3awd8protobuf15NumberConverterILNS_7reflect4TypeE8EE6decodeEy, 
                       __ZN3awd8protobuf15NumberConverterILNS_7reflect4TypeE8EE6encodeEi, 
                       __ZN3awd8protobuf9skipFieldERN6google8protobuf2io16CodedInputStreamENS_7reflect8WireTypeE, 
                       __ZNK14MetadataHelper14getBuiltinTypeE14MetadataHandle, __ZNK14MetadataHelper18descendIntoMessageE14MetadataHandle, 
                       __ZNK14MetadataHelper23resolveSubfieldInHandleE14MetadataHandlej, 
                       __ZNK14MetadataHelper8getFieldE14MetadataHandle, __ZNK17AwdMetadataLoader22getComponentsAvailableEv, 
                       __ZNK24MetricFileMetadataHelper11getSubfieldE14MetadataHandlej, 
                       __ZNK24MetricFileMetadataHelper15getComponentIdsEv, __ZNK24MetricFileMetadataHelper15getSubfieldTypeE14MetadataHandlej, 
                       __ZNK24MetricFileMetadataHelper15isTopLevelFieldE14MetadataHandle, 
                       __ZNK24MetricFileMetadataHelper18getHandleForMetricEj, __ZNK24MetricFileMetadataHelper21getMetricsInComponentEj, 
                       __ZNK24MetricFileMetadataHelper23getMetadataForComponentEj, 
                       __ZNK24MetricFileMetadataHelper26createMetadataForComponentEj, 
                       __ZNK24MetricFileMetadataHelper29resolveSubfieldInMetricHandleE14MetadataHandlej, 
                       __ZNK26DeviceConfigMetadataHelper15getSubfieldTypeE14MetadataHandlej, 
                       __ZTI25AwdMetadataLoaderDelegate, __ZTI32BestChoiceMetadataLoaderDelegate, 
                       __ZTS25AwdMetadataLoaderDelegate, __ZTS32BestChoiceMetadataLoaderDelegate, 
                       __ZTV25AwdMetadataLoaderDelegate, __ZTV32BestChoiceMetadataLoaderDelegate, 
                       _createDescriptionForMetriclogFile, _setupAWDConnection, _teardownAWDConnection ]
...
