--- !tapi-tbd-v2
archs:           [ armv7, armv7s, arm64 ]
uuids:           [ 'armv7: D11FC713-CFF6-3100-8D1B-446C4511630C', 'armv7s: 10D93789-6D02-3ADA-847B-841000908211', 
                   'arm64: A653EA2F-B155-366F-83DD-2CB0F819E482' ]
platform:        ios
install-name:    /usr/lib/libARI.dylib
objc-constraint: none
exports:         
  - archs:           [ armv7, armv7s ]
    symbols:         [ _ARI_CsiIceGnssClockReq_BLK, _ARI_CsiIceGnssClockReq_ENC, 
                       _ARI_CsiIceGnssClockRspCb_Extract, _ARI_IBICallCsAlertingIndCb_Extract, 
                       _ARI_IBICallCsConnectedIndCb_Extract, _ARI_IBICallCsDialingIndCb_Extract, 
                       _ARI_IBICallCsDisconnectingIndCb_Extract, _ARI_IBICallCsDtmfBufferClearedIndCb_Extract, 
                       _ARI_IBICallCsProgressIndCb_Extract, _ARI_IBICallCsRedialStoppedIndCb_Extract, 
                       _ARI_IBICallCsVoimsCallRetryFailureIndCb_Extract, _ARI_IBICallCsVoimsCallRetryInitiatedIndCb_Extract, 
                       _ARI_IBICallCsVoimsCallRetrySetupIndCb_Extract, _ARI_IBICpsMultiSimModeIndCb_Extract, 
                       _ARI_IBICpsMultiSimModeSetModeReq_BLK, _ARI_IBICpsMultiSimModeSetModeReq_ENC, 
                       _ARI_IBICpsMultiSimModeSetModeRspCb_Extract, _ARI_IBICpsReadImeiReq_BLK, 
                       _ARI_IBICpsReadImeiReq_ENC, _ARI_IBICpsReadImeiRspCb_Extract, 
                       _ARI_IBICpsSetModeIndCb_Extract, _ARI_IBICpsSetModeReq_BLK, 
                       _ARI_IBICpsSetModeReq_ENC, _ARI_IBICpsSetModeRspCb_Extract, 
                       _ARI_IBICpsSetStackModeConfiguration_BLK, _ARI_IBICpsStartupIndCb_Extract, 
                       _ARI_IBINetCellChangeIndCb_Extract, _ARI_IBINetConnRrcStateInfoIndCb_Extract, 
                       _ARI_IBINetDcVoiceDomainPreferenceIndCb_Extract, _ARI_IBINetExtScanReq_V1_BLK, 
                       _ARI_IBINetExtScanReq_V1_ENC, _ARI_IBINetExtScanRspCb_V1_Extract, 
                       _ARI_IBINetGetRrcReportingConfigReq_BLK, _ARI_IBINetGetRrcReportingConfigReq_ENC, 
                       _ARI_IBINetGetRrcReportingConfigRspCb_Extract, _ARI_IBINetHspaInfoIndCb_Extract, 
                       _ARI_IBINetSetRrcReportingConfigReq_BLK, _ARI_IBINetSetRrcReportingConfigReq_ENC, 
                       _ARI_IBINetSetRrcReportingConfigRspCb_Extract, _ARI_IBISimBdnStateIndCb_Extract, 
                       _ARI_IBISimFdnStateIndCb_Extract, _ARI_IBISimImsiIndCb_Extract, 
                       _ARI_IBISimLockStatusIndCb_Extract, _ARI_IBISimMccMncIndCb_Extract, 
                       _ARI_IBISimTkExecDtmfEndIndCb_Extract, _ARI_IBISmsSendReq_BLK, 
                       _ARI_IBISmsSendReq_ENC, _ARI_IBISmsSendRspCb_Extract, _ARI_IBISsCcServiceIndCb_Extract, 
                       __Z39ARI_IBICpsSetStackModeConfiguration_ENCj10UtaCpsModePPhPj, 
                       __Z8asString26UtaCallPsPcoContentBitMask, __Z8asString28UtaCallPsPcoIEPresentBitMask, 
                       __ZN11AriDispatch9Semaphore13createSessionEv, __ZN11AriDispatch9Semaphore7SessionC1ENSt3__110shared_ptrIS0_EE, 
                       __ZN11AriDispatch9Semaphore7SessionC2ENSt3__110shared_ptrIS0_EE, 
                       __ZN11AriDispatch9Semaphore7SessionD1Ev, __ZN11AriDispatch9Semaphore7SessionD2Ev, 
                       __ZN3Ari15ClientWorkQueue3addENSt3__110shared_ptrINS_14ClientWorkItemEEE, 
                       __ZN3Ari15ClientWorkQueueC1Eb, __ZN3Ari15ClientWorkQueueC2Eb, 
                       __ZN6AriSdk21ARI_IBISmsSendReq_SDK4packEPP6AriMsg, __ZN6AriSdk21ARI_IBISmsSendReq_SDK6unpackEv, 
                       __ZN6AriSdk21ARI_IBISmsSendReq_SDKC1EPKhj, __ZN6AriSdk21ARI_IBISmsSendReq_SDKC1Ev, 
                       __ZN6AriSdk21ARI_IBISmsSendReq_SDKC2EPKhj, __ZN6AriSdk21ARI_IBISmsSendReq_SDKC2Ev, 
                       __ZN6AriSdk23ARI_IBISimImsiIndCb_SDK4packEPP6AriMsg, __ZN6AriSdk23ARI_IBISimImsiIndCb_SDK6unpackEv, 
                       __ZN6AriSdk23ARI_IBISimImsiIndCb_SDKC1EPKhj, __ZN6AriSdk23ARI_IBISimImsiIndCb_SDKC1Ev, 
                       __ZN6AriSdk23ARI_IBISimImsiIndCb_SDKC2EPKhj, __ZN6AriSdk23ARI_IBISimImsiIndCb_SDKC2Ev, 
                       __ZN6AriSdk23ARI_IBISmsSendRspCb_SDK4packEPP6AriMsg, __ZN6AriSdk23ARI_IBISmsSendRspCb_SDK6unpackEv, 
                       __ZN6AriSdk23ARI_IBISmsSendRspCb_SDKC1EPKhj, __ZN6AriSdk23ARI_IBISmsSendRspCb_SDKC1Ev, 
                       __ZN6AriSdk23ARI_IBISmsSendRspCb_SDKC2EPKhj, __ZN6AriSdk23ARI_IBISmsSendRspCb_SDKC2Ev, 
                       __ZN6AriSdk24ARI_IBICpsSetModeReq_SDK4packEPP6AriMsg, __ZN6AriSdk24ARI_IBICpsSetModeReq_SDK6unpackEv, 
                       __ZN6AriSdk24ARI_IBICpsSetModeReq_SDKC1EPKhj, __ZN6AriSdk24ARI_IBICpsSetModeReq_SDKC1Ev, 
                       __ZN6AriSdk24ARI_IBICpsSetModeReq_SDKC2EPKhj, __ZN6AriSdk24ARI_IBICpsSetModeReq_SDKC2Ev, 
                       __ZN6AriSdk25ARI_IBICpsReadImeiReq_SDK4packEPP6AriMsg, __ZN6AriSdk25ARI_IBICpsReadImeiReq_SDK6unpackEv, 
                       __ZN6AriSdk25ARI_IBICpsReadImeiReq_SDKC1EPKhj, __ZN6AriSdk25ARI_IBICpsReadImeiReq_SDKC1Ev, 
                       __ZN6AriSdk25ARI_IBICpsReadImeiReq_SDKC2EPKhj, __ZN6AriSdk25ARI_IBICpsReadImeiReq_SDKC2Ev, 
                       __ZN6AriSdk25ARI_IBISimMccMncIndCb_SDK4packEPP6AriMsg, __ZN6AriSdk25ARI_IBISimMccMncIndCb_SDK6unpackEv, 
                       __ZN6AriSdk25ARI_IBISimMccMncIndCb_SDKC1EPKhj, __ZN6AriSdk25ARI_IBISimMccMncIndCb_SDKC1Ev, 
                       __ZN6AriSdk25ARI_IBISimMccMncIndCb_SDKC2EPKhj, __ZN6AriSdk25ARI_IBISimMccMncIndCb_SDKC2Ev, 
                       __ZN6AriSdk26ARI_CsiIceGnssClockReq_SDK4packEPP6AriMsg, __ZN6AriSdk26ARI_CsiIceGnssClockReq_SDK6unpackEv, 
                       __ZN6AriSdk26ARI_CsiIceGnssClockReq_SDKC1EPKhj, __ZN6AriSdk26ARI_CsiIceGnssClockReq_SDKC1Ev, 
                       __ZN6AriSdk26ARI_CsiIceGnssClockReq_SDKC2EPKhj, __ZN6AriSdk26ARI_CsiIceGnssClockReq_SDKC2Ev, 
                       __ZN6AriSdk26ARI_IBICpsSetModeIndCb_SDK4packEPP6AriMsg, __ZN6AriSdk26ARI_IBICpsSetModeIndCb_SDK6unpackEv, 
                       __ZN6AriSdk26ARI_IBICpsSetModeIndCb_SDKC1EPKhj, __ZN6AriSdk26ARI_IBICpsSetModeIndCb_SDKC1Ev, 
                       __ZN6AriSdk26ARI_IBICpsSetModeIndCb_SDKC2EPKhj, __ZN6AriSdk26ARI_IBICpsSetModeIndCb_SDKC2Ev, 
                       __ZN6AriSdk26ARI_IBICpsSetModeRspCb_SDK4packEPP6AriMsg, __ZN6AriSdk26ARI_IBICpsSetModeRspCb_SDK6unpackEv, 
                       __ZN6AriSdk26ARI_IBICpsSetModeRspCb_SDKC1EPKhj, __ZN6AriSdk26ARI_IBICpsSetModeRspCb_SDKC1Ev, 
                       __ZN6AriSdk26ARI_IBICpsSetModeRspCb_SDKC2EPKhj, __ZN6AriSdk26ARI_IBICpsSetModeRspCb_SDKC2Ev, 
                       __ZN6AriSdk26ARI_IBICpsStartupIndCb_SDK4packEPP6AriMsg, __ZN6AriSdk26ARI_IBICpsStartupIndCb_SDK6unpackEv, 
                       __ZN6AriSdk26ARI_IBICpsStartupIndCb_SDKC1EPKhj, __ZN6AriSdk26ARI_IBICpsStartupIndCb_SDKC1Ev, 
                       __ZN6AriSdk26ARI_IBICpsStartupIndCb_SDKC2EPKhj, __ZN6AriSdk26ARI_IBICpsStartupIndCb_SDKC2Ev, 
                       __ZN6AriSdk27ARI_IBICpsReadImeiRspCb_SDK4packEPP6AriMsg, __ZN6AriSdk27ARI_IBICpsReadImeiRspCb_SDK6unpackEv, 
                       __ZN6AriSdk27ARI_IBICpsReadImeiRspCb_SDKC1EPKhj, __ZN6AriSdk27ARI_IBICpsReadImeiRspCb_SDKC1Ev, 
                       __ZN6AriSdk27ARI_IBICpsReadImeiRspCb_SDKC2EPKhj, __ZN6AriSdk27ARI_IBICpsReadImeiRspCb_SDKC2Ev, 
                       __ZN6AriSdk27ARI_IBINetExtScanReq_V1_SDK4packEPP6AriMsg, __ZN6AriSdk27ARI_IBINetExtScanReq_V1_SDK6unpackEv, 
                       __ZN6AriSdk27ARI_IBINetExtScanReq_V1_SDKC1EPKhj, __ZN6AriSdk27ARI_IBINetExtScanReq_V1_SDKC1Ev, 
                       __ZN6AriSdk27ARI_IBINetExtScanReq_V1_SDKC2EPKhj, __ZN6AriSdk27ARI_IBINetExtScanReq_V1_SDKC2Ev, 
                       __ZN6AriSdk27ARI_IBINetHspaInfoIndCb_SDK4packEPP6AriMsg, __ZN6AriSdk27ARI_IBINetHspaInfoIndCb_SDK6unpackEv, 
                       __ZN6AriSdk27ARI_IBINetHspaInfoIndCb_SDKC1EPKhj, __ZN6AriSdk27ARI_IBINetHspaInfoIndCb_SDKC1Ev, 
                       __ZN6AriSdk27ARI_IBINetHspaInfoIndCb_SDKC2EPKhj, __ZN6AriSdk27ARI_IBINetHspaInfoIndCb_SDKC2Ev, 
                       __ZN6AriSdk27ARI_IBISimBdnStateIndCb_SDK4packEPP6AriMsg, __ZN6AriSdk27ARI_IBISimBdnStateIndCb_SDK6unpackEv, 
                       __ZN6AriSdk27ARI_IBISimBdnStateIndCb_SDKC1EPKhj, __ZN6AriSdk27ARI_IBISimBdnStateIndCb_SDKC1Ev, 
                       __ZN6AriSdk27ARI_IBISimBdnStateIndCb_SDKC2EPKhj, __ZN6AriSdk27ARI_IBISimBdnStateIndCb_SDKC2Ev, 
                       __ZN6AriSdk27ARI_IBISimFdnStateIndCb_SDK4packEPP6AriMsg, __ZN6AriSdk27ARI_IBISimFdnStateIndCb_SDK6unpackEv, 
                       __ZN6AriSdk27ARI_IBISimFdnStateIndCb_SDKC1EPKhj, __ZN6AriSdk27ARI_IBISimFdnStateIndCb_SDKC1Ev, 
                       __ZN6AriSdk27ARI_IBISimFdnStateIndCb_SDKC2EPKhj, __ZN6AriSdk27ARI_IBISimFdnStateIndCb_SDKC2Ev, 
                       __ZN6AriSdk27ARI_IBISsCcServiceIndCb_SDK4packEPP6AriMsg, __ZN6AriSdk27ARI_IBISsCcServiceIndCb_SDK6unpackEv, 
                       __ZN6AriSdk27ARI_IBISsCcServiceIndCb_SDKC1EPKhj, __ZN6AriSdk27ARI_IBISsCcServiceIndCb_SDKC1Ev, 
                       __ZN6AriSdk27ARI_IBISsCcServiceIndCb_SDKC2EPKhj, __ZN6AriSdk27ARI_IBISsCcServiceIndCb_SDKC2Ev, 
                       __ZN6AriSdk28ARI_CsiIceGnssClockRspCb_SDK4packEPP6AriMsg, 
                       __ZN6AriSdk28ARI_CsiIceGnssClockRspCb_SDK6unpackEv, __ZN6AriSdk28ARI_CsiIceGnssClockRspCb_SDKC1EPKhj, 
                       __ZN6AriSdk28ARI_CsiIceGnssClockRspCb_SDKC1Ev, __ZN6AriSdk28ARI_CsiIceGnssClockRspCb_SDKC2EPKhj, 
                       __ZN6AriSdk28ARI_CsiIceGnssClockRspCb_SDKC2Ev, __ZN6AriSdk29ARI_IBICallCsDialingIndCb_SDK4packEPP6AriMsg, 
                       __ZN6AriSdk29ARI_IBICallCsDialingIndCb_SDK6unpackEv, __ZN6AriSdk29ARI_IBICallCsDialingIndCb_SDKC1EPKhj, 
                       __ZN6AriSdk29ARI_IBICallCsDialingIndCb_SDKC1Ev, __ZN6AriSdk29ARI_IBICallCsDialingIndCb_SDKC2EPKhj, 
                       __ZN6AriSdk29ARI_IBICallCsDialingIndCb_SDKC2Ev, __ZN6AriSdk29ARI_IBINetCellChangeIndCb_SDK4packEPP6AriMsg, 
                       __ZN6AriSdk29ARI_IBINetCellChangeIndCb_SDK6unpackEv, __ZN6AriSdk29ARI_IBINetCellChangeIndCb_SDKC1EPKhj, 
                       __ZN6AriSdk29ARI_IBINetCellChangeIndCb_SDKC1Ev, __ZN6AriSdk29ARI_IBINetCellChangeIndCb_SDKC2EPKhj, 
                       __ZN6AriSdk29ARI_IBINetCellChangeIndCb_SDKC2Ev, __ZN6AriSdk29ARI_IBINetExtScanRspCb_V1_SDK4packEPP6AriMsg, 
                       __ZN6AriSdk29ARI_IBINetExtScanRspCb_V1_SDK6unpackEv, __ZN6AriSdk29ARI_IBINetExtScanRspCb_V1_SDKC1EPKhj, 
                       __ZN6AriSdk29ARI_IBINetExtScanRspCb_V1_SDKC1Ev, __ZN6AriSdk29ARI_IBINetExtScanRspCb_V1_SDKC2EPKhj, 
                       __ZN6AriSdk29ARI_IBINetExtScanRspCb_V1_SDKC2Ev, __ZN6AriSdk29ARI_IBISimLockStatusIndCb_SDK4packEPP6AriMsg, 
                       __ZN6AriSdk29ARI_IBISimLockStatusIndCb_SDK6unpackEv, __ZN6AriSdk29ARI_IBISimLockStatusIndCb_SDKC1EPKhj, 
                       __ZN6AriSdk29ARI_IBISimLockStatusIndCb_SDKC1Ev, __ZN6AriSdk29ARI_IBISimLockStatusIndCb_SDKC2EPKhj, 
                       __ZN6AriSdk29ARI_IBISimLockStatusIndCb_SDKC2Ev, __ZN6AriSdk30ARI_IBICallCsAlertingIndCb_SDK4packEPP6AriMsg, 
                       __ZN6AriSdk30ARI_IBICallCsAlertingIndCb_SDK6unpackEv, __ZN6AriSdk30ARI_IBICallCsAlertingIndCb_SDKC1EPKhj, 
                       __ZN6AriSdk30ARI_IBICallCsAlertingIndCb_SDKC1Ev, __ZN6AriSdk30ARI_IBICallCsAlertingIndCb_SDKC2EPKhj, 
                       __ZN6AriSdk30ARI_IBICallCsAlertingIndCb_SDKC2Ev, __ZN6AriSdk30ARI_IBICallCsProgressIndCb_SDK4packEPP6AriMsg, 
                       __ZN6AriSdk30ARI_IBICallCsProgressIndCb_SDK6unpackEv, __ZN6AriSdk30ARI_IBICallCsProgressIndCb_SDKC1EPKhj, 
                       __ZN6AriSdk30ARI_IBICallCsProgressIndCb_SDKC1Ev, __ZN6AriSdk30ARI_IBICallCsProgressIndCb_SDKC2EPKhj, 
                       __ZN6AriSdk30ARI_IBICallCsProgressIndCb_SDKC2Ev, __ZN6AriSdk31ARI_IBICallCsConnectedIndCb_SDK4packEPP6AriMsg, 
                       __ZN6AriSdk31ARI_IBICallCsConnectedIndCb_SDK6unpackEv, __ZN6AriSdk31ARI_IBICallCsConnectedIndCb_SDKC1EPKhj, 
                       __ZN6AriSdk31ARI_IBICallCsConnectedIndCb_SDKC1Ev, __ZN6AriSdk31ARI_IBICallCsConnectedIndCb_SDKC2EPKhj, 
                       __ZN6AriSdk31ARI_IBICallCsConnectedIndCb_SDKC2Ev, __ZN6AriSdk31ARI_IBICpsMultiSimModeIndCb_SDK4packEPP6AriMsg, 
                       __ZN6AriSdk31ARI_IBICpsMultiSimModeIndCb_SDK6unpackEv, __ZN6AriSdk31ARI_IBICpsMultiSimModeIndCb_SDKC1EPKhj, 
                       __ZN6AriSdk31ARI_IBICpsMultiSimModeIndCb_SDKC1Ev, __ZN6AriSdk31ARI_IBICpsMultiSimModeIndCb_SDKC2EPKhj, 
                       __ZN6AriSdk31ARI_IBICpsMultiSimModeIndCb_SDKC2Ev, __ZN6AriSdk32ARI_IBISimTkExecDtmfEndIndCb_SDK4packEPP6AriMsg, 
                       __ZN6AriSdk32ARI_IBISimTkExecDtmfEndIndCb_SDK6unpackEv, __ZN6AriSdk32ARI_IBISimTkExecDtmfEndIndCb_SDKC1EPKhj, 
                       __ZN6AriSdk32ARI_IBISimTkExecDtmfEndIndCb_SDKC1Ev, __ZN6AriSdk32ARI_IBISimTkExecDtmfEndIndCb_SDKC2EPKhj, 
                       __ZN6AriSdk32ARI_IBISimTkExecDtmfEndIndCb_SDKC2Ev, __ZN6AriSdk35ARI_IBICallCsDisconnectingIndCb_SDK4packEPP6AriMsg, 
                       __ZN6AriSdk35ARI_IBICallCsDisconnectingIndCb_SDK6unpackEv, 
                       __ZN6AriSdk35ARI_IBICallCsDisconnectingIndCb_SDKC1EPKhj, __ZN6AriSdk35ARI_IBICallCsDisconnectingIndCb_SDKC1Ev, 
                       __ZN6AriSdk35ARI_IBICallCsDisconnectingIndCb_SDKC2EPKhj, __ZN6AriSdk35ARI_IBICallCsDisconnectingIndCb_SDKC2Ev, 
                       __ZN6AriSdk35ARI_IBICallCsRedialStoppedIndCb_SDK4packEPP6AriMsg, 
                       __ZN6AriSdk35ARI_IBICallCsRedialStoppedIndCb_SDK6unpackEv, 
                       __ZN6AriSdk35ARI_IBICallCsRedialStoppedIndCb_SDKC1EPKhj, __ZN6AriSdk35ARI_IBICallCsRedialStoppedIndCb_SDKC1Ev, 
                       __ZN6AriSdk35ARI_IBICallCsRedialStoppedIndCb_SDKC2EPKhj, __ZN6AriSdk35ARI_IBICallCsRedialStoppedIndCb_SDKC2Ev, 
                       __ZN6AriSdk35ARI_IBINetConnRrcStateInfoIndCb_SDK4packEPP6AriMsg, 
                       __ZN6AriSdk35ARI_IBINetConnRrcStateInfoIndCb_SDK6unpackEv, 
                       __ZN6AriSdk35ARI_IBINetConnRrcStateInfoIndCb_SDKC1EPKhj, __ZN6AriSdk35ARI_IBINetConnRrcStateInfoIndCb_SDKC1Ev, 
                       __ZN6AriSdk35ARI_IBINetConnRrcStateInfoIndCb_SDKC2EPKhj, __ZN6AriSdk35ARI_IBINetConnRrcStateInfoIndCb_SDKC2Ev, 
                       __ZN6AriSdk36ARI_IBICpsMultiSimModeSetModeReq_SDK4packEPP6AriMsg, 
                       __ZN6AriSdk36ARI_IBICpsMultiSimModeSetModeReq_SDK6unpackEv, 
                       __ZN6AriSdk36ARI_IBICpsMultiSimModeSetModeReq_SDKC1EPKhj, 
                       __ZN6AriSdk36ARI_IBICpsMultiSimModeSetModeReq_SDKC1Ev, __ZN6AriSdk36ARI_IBICpsMultiSimModeSetModeReq_SDKC2EPKhj, 
                       __ZN6AriSdk36ARI_IBICpsMultiSimModeSetModeReq_SDKC2Ev, __ZN6AriSdk38ARI_IBICpsMultiSimModeSetModeRspCb_SDK4packEPP6AriMsg, 
                       __ZN6AriSdk38ARI_IBICpsMultiSimModeSetModeRspCb_SDK6unpackEv, 
                       __ZN6AriSdk38ARI_IBICpsMultiSimModeSetModeRspCb_SDKC1EPKhj, 
                       __ZN6AriSdk38ARI_IBICpsMultiSimModeSetModeRspCb_SDKC1Ev, __ZN6AriSdk38ARI_IBICpsMultiSimModeSetModeRspCb_SDKC2EPKhj, 
                       __ZN6AriSdk38ARI_IBICpsMultiSimModeSetModeRspCb_SDKC2Ev, __ZN6AriSdk38ARI_IBINetGetRrcReportingConfigReq_SDK4packEPP6AriMsg, 
                       __ZN6AriSdk38ARI_IBINetGetRrcReportingConfigReq_SDK6unpackEv, 
                       __ZN6AriSdk38ARI_IBINetGetRrcReportingConfigReq_SDKC1EPKhj, 
                       __ZN6AriSdk38ARI_IBINetGetRrcReportingConfigReq_SDKC1Ev, __ZN6AriSdk38ARI_IBINetGetRrcReportingConfigReq_SDKC2EPKhj, 
                       __ZN6AriSdk38ARI_IBINetGetRrcReportingConfigReq_SDKC2Ev, __ZN6AriSdk38ARI_IBINetSetRrcReportingConfigReq_SDK4packEPP6AriMsg, 
                       __ZN6AriSdk38ARI_IBINetSetRrcReportingConfigReq_SDK6unpackEv, 
                       __ZN6AriSdk38ARI_IBINetSetRrcReportingConfigReq_SDKC1EPKhj, 
                       __ZN6AriSdk38ARI_IBINetSetRrcReportingConfigReq_SDKC1Ev, __ZN6AriSdk38ARI_IBINetSetRrcReportingConfigReq_SDKC2EPKhj, 
                       __ZN6AriSdk38ARI_IBINetSetRrcReportingConfigReq_SDKC2Ev, __ZN6AriSdk39ARI_IBICallCsDtmfBufferClearedIndCb_SDK4packEPP6AriMsg, 
                       __ZN6AriSdk39ARI_IBICallCsDtmfBufferClearedIndCb_SDK6unpackEv, 
                       __ZN6AriSdk39ARI_IBICallCsDtmfBufferClearedIndCb_SDKC1EPKhj, 
                       __ZN6AriSdk39ARI_IBICallCsDtmfBufferClearedIndCb_SDKC1Ev, 
                       __ZN6AriSdk39ARI_IBICallCsDtmfBufferClearedIndCb_SDKC2EPKhj, 
                       __ZN6AriSdk39ARI_IBICallCsDtmfBufferClearedIndCb_SDKC2Ev, 
                       __ZN6AriSdk39ARI_IBICpsSetStackModeConfiguration_SDK4packEPP6AriMsg, 
                       __ZN6AriSdk39ARI_IBICpsSetStackModeConfiguration_SDK6unpackEv, 
                       __ZN6AriSdk39ARI_IBICpsSetStackModeConfiguration_SDKC1EPKhj, 
                       __ZN6AriSdk39ARI_IBICpsSetStackModeConfiguration_SDKC1Ev, 
                       __ZN6AriSdk39ARI_IBICpsSetStackModeConfiguration_SDKC2EPKhj, 
                       __ZN6AriSdk39ARI_IBICpsSetStackModeConfiguration_SDKC2Ev, 
                       __ZN6AriSdk40ARI_IBINetGetRrcReportingConfigRspCb_SDK4packEPP6AriMsg, 
                       __ZN6AriSdk40ARI_IBINetGetRrcReportingConfigRspCb_SDK6unpackEv, 
                       __ZN6AriSdk40ARI_IBINetGetRrcReportingConfigRspCb_SDKC1EPKhj, 
                       __ZN6AriSdk40ARI_IBINetGetRrcReportingConfigRspCb_SDKC1Ev, 
                       __ZN6AriSdk40ARI_IBINetGetRrcReportingConfigRspCb_SDKC2EPKhj, 
                       __ZN6AriSdk40ARI_IBINetGetRrcReportingConfigRspCb_SDKC2Ev, 
                       __ZN6AriSdk40ARI_IBINetSetRrcReportingConfigRspCb_SDK4packEPP6AriMsg, 
                       __ZN6AriSdk40ARI_IBINetSetRrcReportingConfigRspCb_SDK6unpackEv, 
                       __ZN6AriSdk40ARI_IBINetSetRrcReportingConfigRspCb_SDKC1EPKhj, 
                       __ZN6AriSdk40ARI_IBINetSetRrcReportingConfigRspCb_SDKC1Ev, 
                       __ZN6AriSdk40ARI_IBINetSetRrcReportingConfigRspCb_SDKC2EPKhj, 
                       __ZN6AriSdk40ARI_IBINetSetRrcReportingConfigRspCb_SDKC2Ev, 
                       __ZN6AriSdk41ARI_IBICallCsVoimsCallRetrySetupIndCb_SDK4packEPP6AriMsg, 
                       __ZN6AriSdk41ARI_IBICallCsVoimsCallRetrySetupIndCb_SDK6unpackEv, 
                       __ZN6AriSdk41ARI_IBICallCsVoimsCallRetrySetupIndCb_SDKC1EPKhj, 
                       __ZN6AriSdk41ARI_IBICallCsVoimsCallRetrySetupIndCb_SDKC1Ev, 
                       __ZN6AriSdk41ARI_IBICallCsVoimsCallRetrySetupIndCb_SDKC2EPKhj, 
                       __ZN6AriSdk41ARI_IBICallCsVoimsCallRetrySetupIndCb_SDKC2Ev, 
                       __ZN6AriSdk42ARI_IBINetDcVoiceDomainPreferenceIndCb_SDK4packEPP6AriMsg, 
                       __ZN6AriSdk42ARI_IBINetDcVoiceDomainPreferenceIndCb_SDK6unpackEv, 
                       __ZN6AriSdk42ARI_IBINetDcVoiceDomainPreferenceIndCb_SDKC1EPKhj, 
                       __ZN6AriSdk42ARI_IBINetDcVoiceDomainPreferenceIndCb_SDKC1Ev, 
                       __ZN6AriSdk42ARI_IBINetDcVoiceDomainPreferenceIndCb_SDKC2EPKhj, 
                       __ZN6AriSdk42ARI_IBINetDcVoiceDomainPreferenceIndCb_SDKC2Ev, 
                       __ZN6AriSdk43ARI_IBICallCsVoimsCallRetryFailureIndCb_SDK4packEPP6AriMsg, 
                       __ZN6AriSdk43ARI_IBICallCsVoimsCallRetryFailureIndCb_SDK6unpackEv, 
                       __ZN6AriSdk43ARI_IBICallCsVoimsCallRetryFailureIndCb_SDKC1EPKhj, 
                       __ZN6AriSdk43ARI_IBICallCsVoimsCallRetryFailureIndCb_SDKC1Ev, 
                       __ZN6AriSdk43ARI_IBICallCsVoimsCallRetryFailureIndCb_SDKC2EPKhj, 
                       __ZN6AriSdk43ARI_IBICallCsVoimsCallRetryFailureIndCb_SDKC2Ev, 
                       __ZN6AriSdk45ARI_IBICallCsVoimsCallRetryInitiatedIndCb_SDK4packEPP6AriMsg, 
                       __ZN6AriSdk45ARI_IBICallCsVoimsCallRetryInitiatedIndCb_SDK6unpackEv, 
                       __ZN6AriSdk45ARI_IBICallCsVoimsCallRetryInitiatedIndCb_SDKC1EPKhj, 
                       __ZN6AriSdk45ARI_IBICallCsVoimsCallRetryInitiatedIndCb_SDKC1Ev, 
                       __ZN6AriSdk45ARI_IBICallCsVoimsCallRetryInitiatedIndCb_SDKC2EPKhj, 
                       __ZN6AriSdk45ARI_IBICallCsVoimsCallRetryInitiatedIndCb_SDKC2Ev, 
                       __ZN7AriHost13stopClient_nlEi, __ZN7AriHost14SetMsgRTAttribENS_11MsgRTAttribEj14AriAttribValueiNSt3__18functionIFviEEE, 
                       __ZN7AriHost14SetMsgRTAttribENS_11MsgRTAttribEjiNSt3__18functionIFviEEE, 
                       __ZN7AriHost14SetMsgRTAttribENS_11MsgRTAttribEjiiNSt3__18functionIFviEEE, 
                       __ZTIN3Ari21ClientOutboundMessageE, __ZTIN6AriSdk21ARI_IBISmsSendReq_SDKE, 
                       __ZTIN6AriSdk23ARI_IBISimImsiIndCb_SDKE, __ZTIN6AriSdk23ARI_IBISmsSendRspCb_SDKE, 
                       __ZTIN6AriSdk24ARI_IBICpsSetModeReq_SDKE, __ZTIN6AriSdk25ARI_IBICpsReadImeiReq_SDKE, 
                       __ZTIN6AriSdk25ARI_IBISimMccMncIndCb_SDKE, __ZTIN6AriSdk26ARI_CsiIceGnssClockReq_SDKE, 
                       __ZTIN6AriSdk26ARI_IBICpsSetModeIndCb_SDKE, __ZTIN6AriSdk26ARI_IBICpsSetModeRspCb_SDKE, 
                       __ZTIN6AriSdk26ARI_IBICpsStartupIndCb_SDKE, __ZTIN6AriSdk27ARI_IBICpsReadImeiRspCb_SDKE, 
                       __ZTIN6AriSdk27ARI_IBINetExtScanReq_V1_SDKE, __ZTIN6AriSdk27ARI_IBINetHspaInfoIndCb_SDKE, 
                       __ZTIN6AriSdk27ARI_IBISimBdnStateIndCb_SDKE, __ZTIN6AriSdk27ARI_IBISimFdnStateIndCb_SDKE, 
                       __ZTIN6AriSdk27ARI_IBISsCcServiceIndCb_SDKE, __ZTIN6AriSdk28ARI_CsiIceGnssClockRspCb_SDKE, 
                       __ZTIN6AriSdk29ARI_IBICallCsDialingIndCb_SDKE, __ZTIN6AriSdk29ARI_IBINetCellChangeIndCb_SDKE, 
                       __ZTIN6AriSdk29ARI_IBINetExtScanRspCb_V1_SDKE, __ZTIN6AriSdk29ARI_IBISimLockStatusIndCb_SDKE, 
                       __ZTIN6AriSdk30ARI_IBICallCsAlertingIndCb_SDKE, __ZTIN6AriSdk30ARI_IBICallCsProgressIndCb_SDKE, 
                       __ZTIN6AriSdk31ARI_IBICallCsConnectedIndCb_SDKE, __ZTIN6AriSdk31ARI_IBICpsMultiSimModeIndCb_SDKE, 
                       __ZTIN6AriSdk32ARI_IBISimTkExecDtmfEndIndCb_SDKE, __ZTIN6AriSdk35ARI_IBICallCsDisconnectingIndCb_SDKE, 
                       __ZTIN6AriSdk35ARI_IBICallCsRedialStoppedIndCb_SDKE, __ZTIN6AriSdk35ARI_IBINetConnRrcStateInfoIndCb_SDKE, 
                       __ZTIN6AriSdk36ARI_IBICpsMultiSimModeSetModeReq_SDKE, __ZTIN6AriSdk38ARI_IBICpsMultiSimModeSetModeRspCb_SDKE, 
                       __ZTIN6AriSdk38ARI_IBINetGetRrcReportingConfigReq_SDKE, __ZTIN6AriSdk38ARI_IBINetSetRrcReportingConfigReq_SDKE, 
                       __ZTIN6AriSdk39ARI_IBICallCsDtmfBufferClearedIndCb_SDKE, __ZTIN6AriSdk39ARI_IBICpsSetStackModeConfiguration_SDKE, 
                       __ZTIN6AriSdk40ARI_IBINetGetRrcReportingConfigRspCb_SDKE, 
                       __ZTIN6AriSdk40ARI_IBINetSetRrcReportingConfigRspCb_SDKE, 
                       __ZTIN6AriSdk41ARI_IBICallCsVoimsCallRetrySetupIndCb_SDKE, 
                       __ZTIN6AriSdk42ARI_IBINetDcVoiceDomainPreferenceIndCb_SDKE, 
                       __ZTIN6AriSdk43ARI_IBICallCsVoimsCallRetryFailureIndCb_SDKE, 
                       __ZTIN6AriSdk45ARI_IBICallCsVoimsCallRetryInitiatedIndCb_SDKE, 
                       __ZTSN3Ari21ClientOutboundMessageE, __ZTSN6AriSdk21ARI_IBISmsSendReq_SDKE, 
                       __ZTSN6AriSdk23ARI_IBISimImsiIndCb_SDKE, __ZTSN6AriSdk23ARI_IBISmsSendRspCb_SDKE, 
                       __ZTSN6AriSdk24ARI_IBICpsSetModeReq_SDKE, __ZTSN6AriSdk25ARI_IBICpsReadImeiReq_SDKE, 
                       __ZTSN6AriSdk25ARI_IBISimMccMncIndCb_SDKE, __ZTSN6AriSdk26ARI_CsiIceGnssClockReq_SDKE, 
                       __ZTSN6AriSdk26ARI_IBICpsSetModeIndCb_SDKE, __ZTSN6AriSdk26ARI_IBICpsSetModeRspCb_SDKE, 
                       __ZTSN6AriSdk26ARI_IBICpsStartupIndCb_SDKE, __ZTSN6AriSdk27ARI_IBICpsReadImeiRspCb_SDKE, 
                       __ZTSN6AriSdk27ARI_IBINetExtScanReq_V1_SDKE, __ZTSN6AriSdk27ARI_IBINetHspaInfoIndCb_SDKE, 
                       __ZTSN6AriSdk27ARI_IBISimBdnStateIndCb_SDKE, __ZTSN6AriSdk27ARI_IBISimFdnStateIndCb_SDKE, 
                       __ZTSN6AriSdk27ARI_IBISsCcServiceIndCb_SDKE, __ZTSN6AriSdk28ARI_CsiIceGnssClockRspCb_SDKE, 
                       __ZTSN6AriSdk29ARI_IBICallCsDialingIndCb_SDKE, __ZTSN6AriSdk29ARI_IBINetCellChangeIndCb_SDKE, 
                       __ZTSN6AriSdk29ARI_IBINetExtScanRspCb_V1_SDKE, __ZTSN6AriSdk29ARI_IBISimLockStatusIndCb_SDKE, 
                       __ZTSN6AriSdk30ARI_IBICallCsAlertingIndCb_SDKE, __ZTSN6AriSdk30ARI_IBICallCsProgressIndCb_SDKE, 
                       __ZTSN6AriSdk31ARI_IBICallCsConnectedIndCb_SDKE, __ZTSN6AriSdk31ARI_IBICpsMultiSimModeIndCb_SDKE, 
                       __ZTSN6AriSdk32ARI_IBISimTkExecDtmfEndIndCb_SDKE, __ZTSN6AriSdk35ARI_IBICallCsDisconnectingIndCb_SDKE, 
                       __ZTSN6AriSdk35ARI_IBICallCsRedialStoppedIndCb_SDKE, __ZTSN6AriSdk35ARI_IBINetConnRrcStateInfoIndCb_SDKE, 
                       __ZTSN6AriSdk36ARI_IBICpsMultiSimModeSetModeReq_SDKE, __ZTSN6AriSdk38ARI_IBICpsMultiSimModeSetModeRspCb_SDKE, 
                       __ZTSN6AriSdk38ARI_IBINetGetRrcReportingConfigReq_SDKE, __ZTSN6AriSdk38ARI_IBINetSetRrcReportingConfigReq_SDKE, 
                       __ZTSN6AriSdk39ARI_IBICallCsDtmfBufferClearedIndCb_SDKE, __ZTSN6AriSdk39ARI_IBICpsSetStackModeConfiguration_SDKE, 
                       __ZTSN6AriSdk40ARI_IBINetGetRrcReportingConfigRspCb_SDKE, 
                       __ZTSN6AriSdk40ARI_IBINetSetRrcReportingConfigRspCb_SDKE, 
                       __ZTSN6AriSdk41ARI_IBICallCsVoimsCallRetrySetupIndCb_SDKE, 
                       __ZTSN6AriSdk42ARI_IBINetDcVoiceDomainPreferenceIndCb_SDKE, 
                       __ZTSN6AriSdk43ARI_IBICallCsVoimsCallRetryFailureIndCb_SDKE, 
                       __ZTSN6AriSdk45ARI_IBICallCsVoimsCallRetryInitiatedIndCb_SDKE, 
                       __ZTVN3Ari21ClientOutboundMessageE, __ZTVN6AriSdk21ARI_IBISmsSendReq_SDKE, 
                       __ZTVN6AriSdk23ARI_IBISimImsiIndCb_SDKE, __ZTVN6AriSdk23ARI_IBISmsSendRspCb_SDKE, 
                       __ZTVN6AriSdk24ARI_IBICpsSetModeReq_SDKE, __ZTVN6AriSdk25ARI_IBICpsReadImeiReq_SDKE, 
                       __ZTVN6AriSdk25ARI_IBISimMccMncIndCb_SDKE, __ZTVN6AriSdk26ARI_CsiIceGnssClockReq_SDKE, 
                       __ZTVN6AriSdk26ARI_IBICpsSetModeIndCb_SDKE, __ZTVN6AriSdk26ARI_IBICpsSetModeRspCb_SDKE, 
                       __ZTVN6AriSdk26ARI_IBICpsStartupIndCb_SDKE, __ZTVN6AriSdk27ARI_IBICpsReadImeiRspCb_SDKE, 
                       __ZTVN6AriSdk27ARI_IBINetExtScanReq_V1_SDKE, __ZTVN6AriSdk27ARI_IBINetHspaInfoIndCb_SDKE, 
                       __ZTVN6AriSdk27ARI_IBISimBdnStateIndCb_SDKE, __ZTVN6AriSdk27ARI_IBISimFdnStateIndCb_SDKE, 
                       __ZTVN6AriSdk27ARI_IBISsCcServiceIndCb_SDKE, __ZTVN6AriSdk28ARI_CsiIceGnssClockRspCb_SDKE, 
                       __ZTVN6AriSdk29ARI_IBICallCsDialingIndCb_SDKE, __ZTVN6AriSdk29ARI_IBINetCellChangeIndCb_SDKE, 
                       __ZTVN6AriSdk29ARI_IBINetExtScanRspCb_V1_SDKE, __ZTVN6AriSdk29ARI_IBISimLockStatusIndCb_SDKE, 
                       __ZTVN6AriSdk30ARI_IBICallCsAlertingIndCb_SDKE, __ZTVN6AriSdk30ARI_IBICallCsProgressIndCb_SDKE, 
                       __ZTVN6AriSdk31ARI_IBICallCsConnectedIndCb_SDKE, __ZTVN6AriSdk31ARI_IBICpsMultiSimModeIndCb_SDKE, 
                       __ZTVN6AriSdk32ARI_IBISimTkExecDtmfEndIndCb_SDKE, __ZTVN6AriSdk35ARI_IBICallCsDisconnectingIndCb_SDKE, 
                       __ZTVN6AriSdk35ARI_IBICallCsRedialStoppedIndCb_SDKE, __ZTVN6AriSdk35ARI_IBINetConnRrcStateInfoIndCb_SDKE, 
                       __ZTVN6AriSdk36ARI_IBICpsMultiSimModeSetModeReq_SDKE, __ZTVN6AriSdk38ARI_IBICpsMultiSimModeSetModeRspCb_SDKE, 
                       __ZTVN6AriSdk38ARI_IBINetGetRrcReportingConfigReq_SDKE, __ZTVN6AriSdk38ARI_IBINetSetRrcReportingConfigReq_SDKE, 
                       __ZTVN6AriSdk39ARI_IBICallCsDtmfBufferClearedIndCb_SDKE, __ZTVN6AriSdk39ARI_IBICpsSetStackModeConfiguration_SDKE, 
                       __ZTVN6AriSdk40ARI_IBINetGetRrcReportingConfigRspCb_SDKE, 
                       __ZTVN6AriSdk40ARI_IBINetSetRrcReportingConfigRspCb_SDKE, 
                       __ZTVN6AriSdk41ARI_IBICallCsVoimsCallRetrySetupIndCb_SDKE, 
                       __ZTVN6AriSdk42ARI_IBINetDcVoiceDomainPreferenceIndCb_SDKE, 
                       __ZTVN6AriSdk43ARI_IBICallCsVoimsCallRetryFailureIndCb_SDKE, 
                       __ZTVN6AriSdk45ARI_IBICallCsVoimsCallRetryInitiatedIndCb_SDKE ]
    weak-def-symbols: [ _ARI_AriACK_IMPL, _ARI_AriBBLogInd_IMPL, _ARI_AriGrpAttribResp_IMPL, 
                        _ARI_AriGrpMsgsAttribResp_IMPL, _ARI_AriMsgAttribResp_IMPL, 
                        _ARI_AriNACK_IMPL, _ARI_AriUtaModeInitialSwitchCompleteIndCb_IMPL, 
                        _ARI_AriUtaMsCallCsReleaseCallRspCb_IMPL, _ARI_AriUtaMsCallCsSetupCallRspCb_IMPL, 
                        _ARI_AriUtaMsCpsSetSvnRspCb_IMPL, _ARI_AriUtaMsNetAttachRspCb_IMPL, 
                        _ARI_AriUtaMsNetDetachRspCb_IMPL, _ARI_CsiAwdsAddConfigRspCb_IMPL, 
                        _ARI_CsiAwdsDeleteConfigRspCb_IMPL, _ARI_CsiAwdsGlobalSwitchRspCb_IMPL, 
                        _ARI_CsiAwdsMetricSubInd_IMPL, _ARI_CsiAwdsMetricSubSwitchRspCb_IMPL, 
                        _ARI_CsiAwdsMetricSubTriggerInd_IMPL, _ARI_CsiAwdsPiiLocConfigRspCb_IMPL, 
                        _ARI_CsiAwdsQueryRspCb_IMPL, _ARI_CsiBSPBBDumpInd_IMPL, _ARI_CsiBmmProvideBootTimeInfoRspCb_IMPL, 
                        _ARI_CsiBspDebugJtagModeRspCb_IMPL, _ARI_CsiBspGetCalibrationStatusRspCb_IMPL, 
                        _ARI_CsiBspNvmGroupEnumListRespCb_IMPL, _ARI_CsiBspNvmReadGroupBlockRespCb_IMPL, 
                        _ARI_CsiBspNvmReadGroupRespCb_IMPL, _ARI_CsiBspSetNvItemsToStateRspCb_IMPL, 
                        _ARI_CsiBspShutdownRspCb_IMPL, _ARI_CsiBspStartSysmonRspCb_IMPL, 
                        _ARI_CsiBspStateGetRspCb_IMPL, _ARI_CsiBspStateSetRspCb_IMPL, 
                        _ARI_CsiBspStopSysmonRspCb_IMPL, _ARI_CsiBspSwTrapRspCb_IMPL, 
                        _ARI_CsiCddGetDebugLogRspCb_IMPL, _ARI_CsiCddGetParamDumpRspCb_IMPL, 
                        _ARI_CsiFpGetStatusRsp_IMPL, _ARI_CsiFpPrioSyncReqInd_IMPL, 
                        _ARI_CsiFpRegisterRsp_IMPL, _ARI_CsiFpSnapshotRsp_IMPL, _ARI_CsiFpUpdateAckRsp_IMPL, 
                        _ARI_CsiFpUpdateHeaderData_IMPL, _ARI_CsiGetCurrentBootStateRspCb_IMPL, 
                        _ARI_CsiGetSystemTimeResp_IMPL, _ARI_CsiIceAccessoryStateArtdRspCb_IMPL, 
                        _ARI_CsiIceAccessoryStateRspCb_IMPL, _ARI_CsiIceAntennaPrefRspCb_IMPL, 
                        _ARI_CsiIceArfcnLockRspCb_IMPL, _ARI_CsiIceArtdSettingRspCb_IMPL, 
                        _ARI_CsiIceAtExtRsp_IMPL, _ARI_CsiIceAtRsp_IMPL, _ARI_CsiIceAudCallEventRespCb_IMPL, 
                        _ARI_CsiIceAudDeviceInfoIndCb_IMPL, _ARI_CsiIceAudDeviceInfoRespCb_IMPL, 
                        _ARI_CsiIceAudDisableAudioRespCb_IMPL, _ARI_CsiIceAudDisableLoopbackHWRespCb_IMPL, 
                        _ARI_CsiIceAudEnableAudioRespCb_IMPL, _ARI_CsiIceAudEnableLoopbackHWRespCb_IMPL, 
                        _ARI_CsiIceAudLoopbackRespCb_IMPL, _ARI_CsiIceAudSetAudioLoggingRespCb_IMPL, 
                        _ARI_CsiIceAudSetDeviceRespCb_IMPL, _ARI_CsiIceAudSetI2SRespCb_IMPL, 
                        _ARI_CsiIceAudToneEndIndCb_IMPL, _ARI_CsiIceAudToneStartRespCb_IMPL, 
                        _ARI_CsiIceAudToneStopRespCb_IMPL, _ARI_CsiIceAudVocoderInfoIndCb_IMPL, 
                        _ARI_CsiIceAudVocoderInfoRespCb_IMPL, _ARI_CsiIceBBSleepEnableRspCb_IMPL, 
                        _ARI_CsiIceBBTxStateIndEnableRspCb_IMPL, _ARI_CsiIceBBTxStateInd_IMPL, 
                        _ARI_CsiIceBspSetApWakeIntervalRspCb_IMPL, _ARI_CsiIceBspWakeInd_IMPL, 
                        _ARI_CsiIceCaEnableRspCb_IMPL, _ARI_CsiIceCltmRspCb_IMPL, 
                        _ARI_CsiIceFilerReadRspCb_IMPL, _ARI_CsiIceFilerWriteRspCb_IMPL, 
                        _ARI_CsiIceFinishProvisionResp_IMPL, _ARI_CsiIceGetAntennaStateRspCb_IMPL, 
                        _ARI_CsiIceGetArfcnLockRspCb_IMPL, _ARI_CsiIceGetArtdSettingRspCb_IMPL, 
                        _ARI_CsiIceGetCaEnableRspCb_IMPL, _ARI_CsiIceGetFactoryDebugEnabledResp_IMPL, 
                        _ARI_CsiIceGetManifestStatusResp_IMPL, _ARI_CsiIceGetRxDiversityRspCb_IMPL, 
                        _ARI_CsiIceGetTxAntennaRspCb_IMPL, _ARI_CsiIceGnssClockRspCb_IMPL, 
                        _ARI_CsiIceHearingAidRspCb_IMPL, _ARI_CsiIceRxDiversityRspCb_IMPL, 
                        _ARI_CsiIceSarEnableRspCb_IMPL, _ARI_CsiIceSarRspCb_IMPL, 
                        _ARI_CsiIceSarWaitTimeRspCb_IMPL, _ARI_CsiIceSecActivationRegisterIndCb_IMPL, 
                        _ARI_CsiIceSecActivationRegisterRespCb_IMPL, _ARI_CsiIceSecActivationTicketSetRespCb_IMPL, 
                        _ARI_CsiIceSetTxAntennaRspCb_IMPL, _ARI_CsiIceSpeakerStateRspCb_IMPL, 
                        _ARI_CsiIceStartProvisionResp_IMPL, _ARI_CsiIceTemperatureCloseRspCb_IMPL, 
                        _ARI_CsiIceTemperatureIndCb_IMPL, _ARI_CsiIceTemperatureRspCb_IMPL, 
                        _ARI_CsiIceWakeupReasonRspCb_IMPL, _ARI_CsiIdcCellConfigEventIndCb_IMPL, 
                        _ARI_CsiIdcControlEventRspCb_IMPL, _ARI_CsiIdcGetCellConfigRspCb_IMPL, 
                        _ARI_CsiIdcRTGetLinkQualityReportRspCb_IMPL, _ARI_CsiIdcRTLinkQualityReportEventIndCb_IMPL, 
                        _ARI_CsiIdcRTSetLinkQualityReportRspCb_IMPL, _ARI_CsiIdcRTSetScanFreqRspCb_IMPL, 
                        _ARI_CsiIdcSetRTConfigRspCb_IMPL, _ARI_CsiIdcTestModeCmdRsp_IMPL, 
                        _ARI_CsiIpcCtrlPathTestDataIndCb_IMPL, _ARI_CsiIpcCtrlPathTestDataOpRspCb_IMPL, 
                        _ARI_CsiIpcCtrlPathTestInitRspCb_IMPL, _ARI_CsiIpcCtrlPathTestSendDataRspCb_IMPL, 
                        _ARI_CsiIpcCtrlPathTestSrcCfgRspCb_IMPL, _ARI_CsiIpcCtrlPathTestSrcRspCb_IMPL, 
                        _ARI_CsiIpcCtrlPathTestUnInitRspCb_IMPL, _ARI_CsiIpcGetLogBufferListRsp_IMPL, 
                        _ARI_CsiIpcGetLogBufferRsp_IMPL, _ARI_CsiModeGetRspCb_IMPL, 
                        _ARI_CsiModeSetIndCb_IMPL, _ARI_CsiModeSetRespCb_IMPL, _ARI_CsiMonMemoryStatusRspCb_IMPL, 
                        _ARI_CsiMsCpsGetCurrentBootStateRspCb_IMPL, _ARI_CsiMsCpsReadImeiRspCb_IMPL, 
                        _ARI_CsiMsSimCardPresenceRspCb_IMPL, _ARI_CsiPowSleepSetSleepBlockerRspCb_IMPL, 
                        _ARI_CsiSahClearCrashResportRspCb_IMPL, _ARI_CsiSahGetCrashReportRspCb_IMPL, 
                        _ARI_CsiSahGetDebugLogRspCb_IMPL, _ARI_CsiSecGetChipIdRspCb_IMPL, 
                        _ARI_CsiSecGetFusingStateRspCb_IMPL, _ARI_CsiSecGetPkHashRspCb_IMPL, 
                        _ARI_CsiSecGetRandomNumRspCb_IMPL, _ARI_CsiSecGetSNUMRspCb_IMPL, 
                        _ARI_CsiSysGetInfoRspCb_IMPL, _ARI_CsiTraceAddMasksRspCb_IMPL, 
                        _ARI_CsiTraceModeInitRspCb_IMPL, _ARI_CsiTraceProfileInitRspCb_IMPL, 
                        _ARI_CsiTraceProfileSelectRspCb_IMPL, _ARI_CsiXsioSetRspCb_IMPL, 
                        _ARI_IBIApacsDataStatusRspCb_IMPL, _ARI_IBICallCsAcceptCallRspCb_IMPL, 
                        _ARI_IBICallCsAlertingIndCb_IMPL, _ARI_IBICallCsAutoAnswerRspCb_IMPL, 
                        _ARI_IBICallCsCallStatusIndCb_IMPL, _ARI_IBICallCsCallingNameInfoIndCb_IMPL, 
                        _ARI_IBICallCsConnectedIndCb_IMPL, _ARI_IBICallCsCrssRspCb_IMPL, 
                        _ARI_IBICallCsCtmInfoIndCb_IMPL, _ARI_IBICallCsDialingIndCb_IMPL, 
                        _ARI_IBICallCsDisconnectedIndCb_IMPL, _ARI_IBICallCsDisconnectingIndCb_IMPL, 
                        _ARI_IBICallCsDtmfBufferClearedIndCb_IMPL, _ARI_IBICallCsEmergencyCallIntermediateStatusIndCb_IMPL, 
                        _ARI_IBICallCsEmergencyNumberListIndCb_IMPL, _ARI_IBICallCsGetEccListRspCb_IMPL, 
                        _ARI_IBICallCsGetSpeechCodecOrderRspCb_IMPL, _ARI_IBICallCsGetTtyDeviceModeRspCb_V2_IMPL, 
                        _ARI_IBICallCsHoldCallRspCb_IMPL, _ARI_IBICallCsIncomingCallIndCb_IMPL, 
                        _ARI_IBICallCsJoinCallsRspCb_IMPL, _ARI_IBICallCsNotificationIndCb_IMPL, 
                        _ARI_IBICallCsProgressIndCb_IMPL, _ARI_IBICallCsProgressInfo_DEC_F, 
                        _ARI_IBICallCsProgressInfo_ENC_F, _ARI_IBICallCsRedialSetupIndCb_IMPL, 
                        _ARI_IBICallCsRedialStartedIndCb_IMPL, _ARI_IBICallCsRedialStoppedIndCb_IMPL, 
                        _ARI_IBICallCsReleaseCallRspCb_IMPL, _ARI_IBICallCsRetrieveCallRspCb_IMPL, 
                        _ARI_IBICallCsSetSpeechCodecOrderRspCb_IMPL, _ARI_IBICallCsSetTtyDeviceModeRspCb_IMPL, 
                        _ARI_IBICallCsSetupCallRspCb_IMPL, _ARI_IBICallCsSetupCallRspCb_V1_IMPL, 
                        _ARI_IBICallCsSplitMptyRspCb_IMPL, _ARI_IBICallCsStartDtmfIndCb_IMPL, 
                        _ARI_IBICallCsStartDtmfRspCb_IMPL, _ARI_IBICallCsStopDtmfExtRspCb_IMPL, 
                        _ARI_IBICallCsStopDtmfIndCb_IMPL, _ARI_IBICallCsSwapCallsRspCb_IMPL, 
                        _ARI_IBICallCsTransferCallsRspCb_IMPL, _ARI_IBICallCsVoimsCallRetryFailureIndCb_IMPL, 
                        _ARI_IBICallCsVoimsCallRetryInitiatedIndCb_IMPL, _ARI_IBICallCsVoimsCallRetrySetupIndCb_IMPL, 
                        _ARI_IBICallCsVoimsRetryCause_DEC_F, _ARI_IBICallCsVoimsRetryCause_ENC_F, 
                        _ARI_IBICallCsVoimsSessionTransferRspCb_IMPL, _ARI_IBICallCsVoimsSrvccHoStatusIndCb_IMPL, 
                        _ARI_IBICallPsActivateStatusIndCb_IMPL, _ARI_IBICallPsAllowMultiplePDNToSameApnRspCb_IMPL, 
                        _ARI_IBICallPsAttachApnConfigRspCb_IMPL, _ARI_IBICallPsDataCallStoppedIndCb_IMPL, 
                        _ARI_IBICallPsDataPathSetupRspCb_IMPL, _ARI_IBICallPsDataTransferTimeRspCb_IMPL, 
                        _ARI_IBICallPsFDBackOffTimeInd_IMPL, _ARI_IBICallPsFlushDataRspCb_IMPL, 
                        _ARI_IBICallPsImsTestModeIndCb_IMPL, _ARI_IBICallPsImsTestModeRspCb_IMPL, 
                        _ARI_IBICallPsLqmDataIndCb_IMPL, _ARI_IBICallPsLqmQueryRsbCb_IMPL, 
                        _ARI_IBICallPsLqmRegisterRspCb_IMPL, _ARI_IBICallPsModifyIndCb_IMPL, 
                        _ARI_IBICallPsNotificationIndCb_IMPL, _ARI_IBICallPsResumeIndCb_IMPL, 
                        _ARI_IBICallPsSetKeepaliveOffloadRspCb_IMPL, _ARI_IBICallPsStartDataCallRspCb_IMPL, 
                        _ARI_IBICallPsStopDataCallRspCb_IMPL, _ARI_IBICallPsSuspendIndCb_IMPL, 
                        _ARI_IBICallPsTrafficClassInfoRspCb_IMPL, _ARI_IBICallPsVoiceLQMLinkStateInd_IMPL, 
                        _ARI_IBICallPsVoiceLQMStateInd_IMPL, _ARI_IBICbsConfigRspCb_IMPL, 
                        _ARI_IBICbsEtwsNotifyPrimaryWarningInd_IMPL, _ARI_IBICbsEtwsNotifySecondaryWarningInd_IMPL, 
                        _ARI_IBICbsGetConfigRspCb_IMPL, _ARI_IBICbsMsgIndCb_IMPL, 
                        _ARI_IBICbsNewMessageIndCb_IMPL, _ARI_IBICpsImei_DEC_F, _ARI_IBICpsImei_ENC_F, 
                        _ARI_IBICpsMobileNetworkErrors_DEC_F, _ARI_IBICpsMobileNetworkErrors_ENC_F, 
                        _ARI_IBICpsMode_DEC_F, _ARI_IBICpsMode_ENC_F, _ARI_IBICpsMultiSimModeIndCb_IMPL, 
                        _ARI_IBICpsMultiSimModeSetModeRspCb_IMPL, _ARI_IBICpsMultiSimMode_DEC_F, 
                        _ARI_IBICpsMultiSimMode_ENC_F, _ARI_IBICpsReadImeiRspCb_IMPL, 
                        _ARI_IBICpsSetModeIndCb_IMPL, _ARI_IBICpsSetModeRspCb_IMPL, 
                        _ARI_IBICpsStartupIndCb_IMPL, _ARI_IBIImsMEConfigureAudioMediaRspCb_IMPL, 
                        _ARI_IBIImsMECreateAudioMediaSessionRspCb_IMPL, _ARI_IBIImsMEGetMediaCapabilityRspCb_IMPL, 
                        _ARI_IBIImsMEMediaSessionErrIndCb_IMPL, _ARI_IBIImsMERtcpReceiverReportIndCb_IMPL, 
                        _ARI_IBIImsMERtcpSDESReportIndCb_IMPL, _ARI_IBIImsMERtcpSenderReportIndCb_IMPL, 
                        _ARI_IBIImsMEStartDTMFCodeRspCb_IMPL, _ARI_IBIImsMEStartMediaRspCb_IMPL, 
                        _ARI_IBIImsMEStopDTMFCodeRspCb_IMPL, _ARI_IBIImsMEStopMediaRspCb_IMPL, 
                        _ARI_IBIImsMETerminateMediaSessionRspCb_IMPL, _ARI_IBILapsFetchIndCb_IMPL, 
                        _ARI_IBIMsAccCurrentFreqInfoIndCb_IMPL, _ARI_IBIMsAccCurrentFreqInfoRspCb_IMPL, 
                        _ARI_IBIMsCallCsVoimsProvideMMTelSessionStatusRspCb_IMPL, 
                        _ARI_IBIMsCpAssistanceDataInjectRspCb_IMPL, _ARI_IBIMsCpAssistanceDataNeededIndCb_IMPL, 
                        _ARI_IBIMsCpPosDisableMeasurementReportRspCb_IMPL, _ARI_IBIMsCpPosEnableMeasurementReportRspCb_IMPL, 
                        _ARI_IBIMsCpPosMeasurementAbortRspCb_IMPL, _ARI_IBIMsCpPosMeasurementRspCb_IMPL, 
                        _ARI_IBIMsCpPosReportMeasurementIndCb_IMPL, _ARI_IBIMsCpResetAssistanceDataRspCb_IMPL, 
                        _ARI_IBIMsLpAssistanceDataErrorIndCb_IMPL, _ARI_IBIMsLpDiscardedPosSessionIndCb_IMPL, 
                        _ARI_IBIMsLpGanssAcquisitionAssistanceIndCb_IMPL, _ARI_IBIMsLpGanssAddUtcModelIndCb_IMPL, 
                        _ARI_IBIMsLpGanssAdditionalIonosphericModelIndCb_IMPL, _ARI_IBIMsLpGanssAuxiliaryInfoIndCb_IMPL, 
                        _ARI_IBIMsLpGanssRealTimeIntegrityIndCb_IMPL, _ARI_IBIMsLpGanssReferenceLocationIndCb_IMPL, 
                        _ARI_IBIMsLpGanssReferenceTimeIndCb_IMPL, _ARI_IBIMsLpGanssTimeModelIndCb_IMPL, 
                        _ARI_IBIMsLpGlonassAlmanacIndCb_IMPL, _ARI_IBIMsLpGlonassNavigationModelIndCb_IMPL, 
                        _ARI_IBIMsLpGnssAbortCnfAckCb_IMPL, _ARI_IBIMsLpGnssAbortReqCb_IMPL, 
                        _ARI_IBIMsLpGnssSuspendIndCb_IMPL, _ARI_IBIMsLpGpsAcquisitionAssistanceIndCb_IMPL, 
                        _ARI_IBIMsLpGpsAlmanacIndCb_IMPL, _ARI_IBIMsLpGpsDgpsCorrectionsIndCb_IMPL, 
                        _ARI_IBIMsLpGpsIonosphericModelIndCb_IMPL, _ARI_IBIMsLpGpsNavigationModelIndCb_IMPL, 
                        _ARI_IBIMsLpGpsRealTimeIntegrityIndCb_IMPL, _ARI_IBIMsLpGpsReferenceLocationIndCb_IMPL, 
                        _ARI_IBIMsLpGpsReferenceTimeIndCb_IMPL, _ARI_IBIMsLpGpsUtcModelIndCb_IMPL, 
                        _ARI_IBIMsLpMeasurePositionAssistanceRequestRspAckCb_IMPL, 
                        _ARI_IBIMsLpMeasurePositionLocationInfoRspAckCb_IMPL, _ARI_IBIMsLpMeasurePositionMeasurementsRspAckCb_IMPL, 
                        _ARI_IBIMsLpMeasurePositionMeasurementsShortRspAckCb_IMPL, 
                        _ARI_IBIMsLpMeasurePositionReqCb_IMPL, _ARI_IBIMsLpPosLocationRequestStatusIndCb_IMPL, 
                        _ARI_IBIMsLpResetGnssAssistanceDataCb_IMPL, _ARI_IBIMsNetIceCsgAsfSearchCnfCb_IMPL, 
                        _ARI_IBIMsNetSrvccConfigurationStatusIndCb_IMPL, _ARI_IBIMsSsLcsMtlrNotificationIndCb_IMPL, 
                        _ARI_IBIMsSsLcsMtlrNotificationRspAckCb_IMPL, _ARI_IBIMsSsLcsMtlrRejectIndCb_IMPL, 
                        _ARI_IBIMsSsLcsPositioningCapabilityRspCb_IMPL, _ARI_IBINetAttachRspCb_V1_IMPL, 
                        _ARI_IBINetBandStatusIndCb_IMPL, _ARI_IBINetBandStatusRspCb_IMPL, 
                        _ARI_IBINetCellChangeIndCb_IMPL, _ARI_IBINetCellInfoIndCb_IMPL, 
                        _ARI_IBINetCellLteAcBarringStatusIndCb_IMPL, _ARI_IBINetConfigureNetworkModeRspCb_IMPL, 
                        _ARI_IBINetConnRrcStateInfoIndCb_IMPL, _ARI_IBINetConnectionInfoIndCb_IMPL, 
                        _ARI_IBINetDcGetVoiceDomainPreferenceConfigurationRspCb_IMPL, 
                        _ARI_IBINetDcImsGetImsRegStatusInfoRspCb_IMPL, _ARI_IBINetDcImsProvideImsRegStatusRspCb_IMPL, 
                        _ARI_IBINetDcImsVoiceTerminationConfigIndCb_IMPL, _ARI_IBINetDcSetVoiceDomainPreferenceConfigRspCb_IMPL, 
                        _ARI_IBINetDcSsacBarringInfoIndCb_IMPL, _ARI_IBINetDcSsacBarringInfoRspCb_IMPL, 
                        _ARI_IBINetDcVoiceDomainPreferenceIndCb_IMPL, _ARI_IBINetDetachRspCb_IMPL, 
                        _ARI_IBINetEmergencyCellEndRspCb_IMPL, _ARI_IBINetExtScanRspCb_V1_IMPL, 
                        _ARI_IBINetGetAcBarringInfoRspCb_IMPL, _ARI_IBINetGetCellInfoIndCb_IMPL, 
                        _ARI_IBINetGetCellInfoRespCb_IMPL, _ARI_IBINetGetCurrCellInfoRspCb_IMPL, 
                        _ARI_IBINetGetEmergencyCellIndCb_IMPL, _ARI_IBINetGetEmergencyCellInfoRspCb_IMPL, 
                        _ARI_IBINetGetEmergencyCellRspCb_IMPL, _ARI_IBINetGetPlmnNameInfoIndCb_IMPL, 
                        _ARI_IBINetGetPlmnNameInfoRspCb_V1_IMPL, _ARI_IBINetGetRegistrationInfoRspCb_IMPL, 
                        _ARI_IBINetGetRrcConnStateInfoRspCb_IMPL, _ARI_IBINetGetRrcReportingConfigRspCb_IMPL, 
                        _ARI_IBINetHspaInfoIndCb_IMPL, _ARI_IBINetIceApStatusRspCb_IMPL, 
                        _ARI_IBINetIceCellularSwitchStatusRspCb_IMPL, _ARI_IBINetIceFdReportIndCb_IMPL, 
                        _ARI_IBINetIceFdStatusCnfCb_IMPL, _ARI_IBINetIceManualPlmnModeIndCb_IMPL, 
                        _ARI_IBINetNetworkFeatureSupportInfoIndCb_IMPL, _ARI_IBINetNetworkModeChangeIndCb_IMPL, 
                        _ARI_IBINetNitzInfoIndCb_V1_IMPL, _ARI_IBINetPowerDownCnfCb_IMPL, 
                        _ARI_IBINetRadioSignalIndCb_IMPL, _ARI_IBINetRatModeStatusIndCb_IMPL, 
                        _ARI_IBINetRatModeStatusRspCb_IMPL, _ARI_IBINetRegisteredPlmnNameIndCb_V1_IMPL, 
                        _ARI_IBINetRegistrationInfoIndCb_IMPL, _ARI_IBINetRrcConnStateInfo_DEC_F, 
                        _ARI_IBINetRrcConnStateInfo_ENC_F, _ARI_IBINetRrcStateReportingConfig_DEC_F, 
                        _ARI_IBINetRrcStateReportingConfig_ENC_F, _ARI_IBINetSetRrcReportingConfigRspCb_IMPL, 
                        _ARI_IBINetSingleShotFdRspCb_IMPL, _ARI_IBINetSingleShotRadioSignalReportingRspCb_IMPL, 
                        _ARI_IBINetSwapRatSettingsRspCb_IMPL, _ARI_IBINetTimerInfoIndCb_IMPL, 
                        _ARI_IBIP2PMessageIndCb_IMPL, _ARI_IBIP2PProximityStatusRspCb_IMPL, 
                        _ARI_IBIPriWriteRspCb_IMPL, _ARI_IBIPriWriteRspCb_V2_IMPL, 
                        _ARI_IBIPriWriteStatusIndCb_IMPL, _ARI_IBISendApacsDataRspCb_IMPL, 
                        _ARI_IBISetFilterRspCb_IMPL, _ARI_IBISetRtcEpochTimeRspCb_IMPL, 
                        _ARI_IBISimAccessApduCmdRspCb_IMPL, _ARI_IBISimAccessFcpRspCb_IMPL, 
                        _ARI_IBISimAccessGetSimDataIndCb_IMPL, _ARI_IBISimAccessGetSimDataRspCb_IMPL, 
                        _ARI_IBISimAccessReadBinaryRspCb_IMPL, _ARI_IBISimAccessReadRecordRspCb_IMPL, 
                        _ARI_IBISimAccessUpdateBinaryRspCb_IMPL, _ARI_IBISimAccessUpdateRecordRspCb_IMPL, 
                        _ARI_IBISimApplicationRspCb_IMPL, _ARI_IBISimAuthRspCb_IMPL, 
                        _ARI_IBISimBdnStateIndCb_IMPL, _ARI_IBISimBdnState_DEC_F, 
                        _ARI_IBISimBdnState_ENC_F, _ARI_IBISimCloseChannelRspCb_IMPL, 
                        _ARI_IBISimEccListIndCb_IMPL, _ARI_IBISimErrorIndCb_IMPL, 
                        _ARI_IBISimExtSimlockIndCb_IMPL, _ARI_IBISimExtendedAuthRspCb_IMPL, 
                        _ARI_IBISimFdnListIndCb_IMPL, _ARI_IBISimFdnStateIndCbNew_IMPL, 
                        _ARI_IBISimFdnStateIndCb_IMPL, _ARI_IBISimFileReadBinaryRspCb_IMPL, 
                        _ARI_IBISimFileUpdateBinaryRspCb_IMPL, _ARI_IBISimFullAccessIndCb_IMPL, 
                        _ARI_IBISimGenPinRspCb_IMPL, _ARI_IBISimGetEccListRspCb_IMPL, 
                        _ARI_IBISimGetEfMwisParamsRspCb_IMPL, _ARI_IBISimGetEfSmsRspCb_IMPL, 
                        _ARI_IBISimGetFdnListRspCb_IMPL, _ARI_IBISimGetFullAccessStatusRspCb_IMPL, 
                        _ARI_IBISimGetMsgListRspCb_IMPL, _ARI_IBISimGetPlmnModeBitRspCb_IMPL, 
                        _ARI_IBISimGetSmscAddressRspCb_IMPL, _ARI_IBISimImsiIndCb_IMPL, 
                        _ARI_IBISimLockCause_DEC_F, _ARI_IBISimLockCause_ENC_F, _ARI_IBISimLockDescriptor_DEC_F, 
                        _ARI_IBISimLockDescriptor_ENC_F, _ARI_IBISimLockMmiConfigData_DEC_F, 
                        _ARI_IBISimLockMmiConfigData_ENC_F, _ARI_IBISimLockResult_DEC_F, 
                        _ARI_IBISimLockResult_ENC_F, _ARI_IBISimLockStatusIndCb_IMPL, 
                        _ARI_IBISimLockType_DEC_F, _ARI_IBISimLockType_ENC_F, _ARI_IBISimMccMncIndCb_IMPL, 
                        _ARI_IBISimMsgListIndCb_IMPL, _ARI_IBISimMsgWaitIndicatorIndCb_IMPL, 
                        _ARI_IBISimOpenChannelRspCb_IMPL, _ARI_IBISimPbCacheLoadIndCb_IMPL, 
                        _ARI_IBISimPbGetFreeRecordsRspCb_IMPL, _ARI_IBISimPbGetLocationRspCb_IMPL, 
                        _ARI_IBISimPbGetLocationRspCb_V1_IMPL, _ARI_IBISimPbGetMetaInformationIndCb_V1_IMPL, 
                        _ARI_IBISimPbGetMetaInformationRspCb_IMPL, _ARI_IBISimPbGetMetaInformationRspCb_V1_IMPL, 
                        _ARI_IBISimPbLocationIndCb_V1_IMPL, _ARI_IBISimPbReadAnrEntryIndCb_IMPL, 
                        _ARI_IBISimPbReadEmailEntryIndCb_IMPL, _ARI_IBISimPbReadEntryRspCb_IMPL, 
                        _ARI_IBISimPbReadSneEntryIndCb_IMPL, _ARI_IBISimPbUsimPbReadyIndCb_IMPL, 
                        _ARI_IBISimPbUsimPbSelectIndCb_V1_IMPL, _ARI_IBISimPbUsimPbSelectRspCb_IMPL, 
                        _ARI_IBISimPbUsimPbSelectRspCb_V1_IMPL, _ARI_IBISimPbWriteEntryRspCb_IMPL, 
                        _ARI_IBISimPlmnModeBitIndCb_IMPL, _ARI_IBISimSetEfMwisParamsRspCb_IMPL, 
                        _ARI_IBISimSetFdnRspCb_IMPL, _ARI_IBISimSetSmsTagRspCb_IMPL, 
                        _ARI_IBISimSetSmscAddressRspCb_IMPL, _ARI_IBISimSmscAddressIndCb_IMPL, 
                        _ARI_IBISimTestRspCb_IMPL, _ARI_IBISimTkCallControlInfoIndCb_IMPL, 
                        _ARI_IBISimTkConfigureStkCmdRspCb_IMPL, _ARI_IBISimTkEnvelopeCommandRspCb_IMPL, 
                        _ARI_IBISimTkExecDtmfEndIndCb_IMPL, _ARI_IBISimTkExecStkCmdIndCb_IMPL, 
                        _ARI_IBISimTkImsCallControlRspCb_IMPL, _ARI_IBISimTkMoSmsControlInfoIndCb_IMPL, 
                        _ARI_IBISimTkProactiveCmdIndCb_IMPL, _ARI_IBISimTkRefreshConfirmIndCb_IMPL, 
                        _ARI_IBISimTkRefreshFcnIndCb_IMPL, _ARI_IBISimTkRefreshQueryIndCb_IMPL, 
                        _ARI_IBISimTkResetCompletedIndCb_IMPL, _ARI_IBISimTkResetConfirmIndCb_IMPL, 
                        _ARI_IBISimTkResetQueryIndCb_IMPL, _ARI_IBISimTkSetRequiredFcnListRspCb_IMPL, 
                        _ARI_IBISmsDataDownloadRspCb_IMPL, _ARI_IBISmsDeliverySessionStatusCb_IMPL, 
                        _ARI_IBISmsGetMsgWaitIndRspCb_IMPL, _ARI_IBISmsGetServiceStatusRspCb_IMPL, 
                        _ARI_IBISmsIncomingIndCb_IMPL, _ARI_IBISmsQueryMoreMessagesStatusRspCb_IMPL, 
                        _ARI_IBISmsSendRspCb_IMPL, _ARI_IBISmsSendRspCb_V2_IMPL, 
                        _ARI_IBISmsServiceIndCb_IMPL, _ARI_IBISmsSetMemoryAvailableRspCb_IMPL, 
                        _ARI_IBISmsSetMsgWaitIndRspCb_IMPL, _ARI_IBISsAbortRspCb_IMPL, 
                        _ARI_IBISsCallBarringRspCb_IMPL, _ARI_IBISsCallBarringRspCb_V1_IMPL, 
                        _ARI_IBISsCallForwardRspCb_IMPL, _ARI_IBISsCallWaitingRspCb_IMPL, 
                        _ARI_IBISsCcServiceIndCb_IMPL, _ARI_IBISsExtendedUssdRspCb_IMPL, 
                        _ARI_IBISsFwdCheckIndCb_IMPL, _ARI_IBISsIdentificationRspCb_IMPL, 
                        _ARI_IBISsResultIndCb_IMPL, _ARI_IBISsServiceType_DEC_F, 
                        _ARI_IBISsServiceType_ENC_F, _ARI_IBISsUssdCcServiceReqInfo_DEC_F, 
                        _ARI_IBISsUssdCcServiceReqInfo_ENC_F, _ARI_IBISsUssdIndCb_IMPL, 
                        _ARI_IBISsUssdServiceRspInfo_DEC_F, _ARI_IBISsUssdServiceRspInfo_ENC_F, 
                        _ARI_IBISsUssdServiceStatus_DEC_F, _ARI_IBISsUssdServiceStatus_ENC_F, 
                        _ARI_IBISsUssdSessionEndIndCb_IMPL, _ARI_IBIXccClockControlIndCb_IMPL, 
                        _ARI_IBIXccClockControlRspCb_IMPL, _ARI_eCSI_ICE_BT_HIGHPOWER_STATUS_DEC_F, 
                        _ARI_eCSI_ICE_BT_HIGHPOWER_STATUS_ENC_F, __ZTIN3Ari14ClientWorkItemE, 
                        __ZTIN3Ari9AriClientE, __ZTINSt3__110__function6__baseIFviRNS_10shared_ptrIN7AriHost17InboundMsgHandlerEEEEEE, 
                        __ZTINSt3__110__function6__baseIFviRNS_10shared_ptrIN7AriHost18ClientEventHandlerEEEEEE, 
                        __ZTINSt3__117bad_function_callE, __ZTINSt3__120__shared_ptr_emplaceI6AriMsgNS_9allocatorIS1_EEEE, 
                        __ZTINSt3__120__shared_ptr_emplaceIN11AriDispatch9Semaphore7SessionENS_9allocatorIS3_EEEE, 
                        __ZTINSt3__120__shared_ptr_emplaceIN11AriDispatch9SemaphoreENS_9allocatorIS2_EEEE, 
                        __ZTINSt3__120__shared_ptr_emplaceIN3Ari12AriClientXpcENS_9allocatorIS2_EEEE, 
                        __ZTINSt3__120__shared_ptr_emplaceIN3Ari21ClientOutboundMessageENS_9allocatorIS2_EEEE, 
                        __ZTINSt3__120__shared_ptr_emplaceIN7AriHost17InboundMsgHandlerENS_9allocatorIS2_EEEE, 
                        __ZTINSt3__120__shared_ptr_emplaceIN7AriHost18ClientEventHandlerENS_9allocatorIS2_EEEE, 
                        __ZTINSt3__120__shared_ptr_emplaceIN7AriHost18ClientQueueHandlerENS_9allocatorIS2_EEEE, 
                        __ZTINSt3__120__shared_ptr_emplaceINS_6vectorIhNS_9allocatorIhEEEENS2_IS4_EEEE, 
                        __ZTINSt3__120__shared_ptr_pointerIP7AriHostNS_14default_deleteIS1_EENS_9allocatorIS1_EEEE, 
                        __ZTINSt3__123enable_shared_from_thisIN3Ari12AriClientXpcEEE, 
                        __ZTINSt3__123enable_shared_from_thisIN3Ari14ClientWorkItemEEE, 
                        __ZTSN3Ari14ClientWorkItemE, __ZTSN3Ari9AriClientE, __ZTSNSt3__110__function6__baseIFviRNS_10shared_ptrIN7AriHost17InboundMsgHandlerEEEEEE, 
                        __ZTSNSt3__110__function6__baseIFviRNS_10shared_ptrIN7AriHost18ClientEventHandlerEEEEEE, 
                        __ZTSNSt3__114default_deleteI7AriHostEE, __ZTSNSt3__117bad_function_callE, 
                        __ZTSNSt3__120__shared_ptr_emplaceI6AriMsgNS_9allocatorIS1_EEEE, 
                        __ZTSNSt3__120__shared_ptr_emplaceIN11AriDispatch9Semaphore7SessionENS_9allocatorIS3_EEEE, 
                        __ZTSNSt3__120__shared_ptr_emplaceIN11AriDispatch9SemaphoreENS_9allocatorIS2_EEEE, 
                        __ZTSNSt3__120__shared_ptr_emplaceIN3Ari12AriClientXpcENS_9allocatorIS2_EEEE, 
                        __ZTSNSt3__120__shared_ptr_emplaceIN3Ari21ClientOutboundMessageENS_9allocatorIS2_EEEE, 
                        __ZTSNSt3__120__shared_ptr_emplaceIN7AriHost17InboundMsgHandlerENS_9allocatorIS2_EEEE, 
                        __ZTSNSt3__120__shared_ptr_emplaceIN7AriHost18ClientEventHandlerENS_9allocatorIS2_EEEE, 
                        __ZTSNSt3__120__shared_ptr_emplaceIN7AriHost18ClientQueueHandlerENS_9allocatorIS2_EEEE, 
                        __ZTSNSt3__120__shared_ptr_emplaceINS_6vectorIhNS_9allocatorIhEEEENS2_IS4_EEEE, 
                        __ZTSNSt3__120__shared_ptr_pointerIP7AriHostNS_14default_deleteIS1_EENS_9allocatorIS1_EEEE, 
                        __ZTSNSt3__123enable_shared_from_thisIN3Ari12AriClientXpcEEE, 
                        __ZTSNSt3__123enable_shared_from_thisIN3Ari14ClientWorkItemEEE ]
  - archs:           [ arm64 ]
    symbols:         [ __Z19SdkGmidIsAwdRequestj, __Z20SdkGmidIsLowPriorityj, __Z27SdkGmidIsAllowedDuringStallj, 
                       __Z8asString23UtaCpsPcoContentBitMask, __Z8asString25UtaCpsPcoIEPresentBitMask, 
                       __ZN11AriDispatch4Once6CreateEv, __ZN11AriDispatch4Once7runOnceEU13block_pointerFvvE, 
                       __ZN11AriDispatch4OnceC1Ev, __ZN11AriDispatch4OnceC2Ev, __ZN11AriDispatch4OnceD1Ev, 
                       __ZN11AriDispatch4OnceD2Ev, __ZN11AriDispatch5Group4waitEj, 
                       __ZN11AriDispatch5Group5asyncEP16dispatch_queue_sU13block_pointerFvvE, 
                       __ZN11AriDispatch5Group5enterEv, __ZN11AriDispatch5Group5leaveEv, 
                       __ZN11AriDispatch5Group6CreateEv, __ZN11AriDispatch5Group6notifyEP16dispatch_queue_sjU13block_pointerFvvE, 
                       __ZN11AriDispatch5GroupC1Ev, __ZN11AriDispatch5GroupC2Ev, 
                       __ZN11AriDispatch5GroupD1Ev, __ZN11AriDispatch5GroupD2Ev, 
                       __ZN11AriDispatch5Queue6CreateEP16dispatch_queue_s, __ZN11AriDispatch5QueueC1EP16dispatch_queue_s, 
                       __ZN11AriDispatch5QueueC2EP16dispatch_queue_s, __ZN11AriDispatch5QueueD1Ev, 
                       __ZN11AriDispatch5QueueD2Ev, __ZN11AriDispatch5Timer10resetTimerEv, 
                       __ZN11AriDispatch5Timer11setPeriodicEyyU13block_pointerFvvE, 
                       __ZN11AriDispatch5Timer16safeReleaseTimerEv, __ZN11AriDispatch5Timer3setEyU13block_pointerFvvE, 
                       __ZN11AriDispatch5Timer6CreateEP16dispatch_queue_s, __ZN11AriDispatch5Timer6cancelEv, 
                       __ZN11AriDispatch5TimerC1EP16dispatch_queue_s, __ZN11AriDispatch5TimerC2EP16dispatch_queue_s, 
                       __ZN11AriDispatch5TimerD1Ev, __ZN11AriDispatch5TimerD2Ev, 
                       __ZN3Ari15ClientWorkQueue3addENSt3__110shared_ptrINS_21ClientOutboundMessageEEE, 
                       __ZN3Ari15ClientWorkQueueC1ERKNSt3__112basic_stringIcNS1_11char_traitsIcEENS1_9allocatorIcEEEEb, 
                       __ZN3Ari15ClientWorkQueueC2ERKNSt3__112basic_stringIcNS1_11char_traitsIcEENS1_9allocatorIcEEEEb, 
                       __ZN3Ari21LowPriorityFlushActor14registerEventsEv, __ZN3Ari21LowPriorityFlushActor19registerIndicationsEv, 
                       __ZN3Ari21LowPriorityFlushActor6createEv, __ZN3Ari21LowPriorityFlushActorC1Ev, 
                       __ZN3Ari21LowPriorityFlushActorC2Ev, __ZN3Ari21LowPriorityFlushActorD1Ev, 
                       __ZN3Ari21LowPriorityFlushActorD2Ev, __ZN3Ari29IndicationReregistrationActor14registerEventsEv, 
                       __ZN3Ari29IndicationReregistrationActor19registerIndicationsEv, 
                       __ZN3Ari29IndicationReregistrationActor6createEv, __ZN3Ari29IndicationReregistrationActorC1Ev, 
                       __ZN3Ari29IndicationReregistrationActorC2Ev, __ZN3Ari29IndicationReregistrationActorD1Ev, 
                       __ZN3Ari29IndicationReregistrationActorD2Ev, __ZN3Ari29LoggerDisableNewLineAppendingEv, 
                       __ZN3Ari5Actor16registerAsClientEv, __ZN3Ari5ActorC2Ev, __ZN3Ari5ActorD1Ev, 
                       __ZN3Ari5ActorD2Ev, __ZN3Ari9ActorList13registerActorENSt3__110shared_ptrINS_5ActorEEE, 
                       __ZN3Ari9ActorList5clearEv, __ZN3Ari9ActorListC1Ev, __ZN3Ari9ActorListC2Ev, 
                       __ZN3Ari9ActorListD1Ev, __ZN3Ari9ActorListD2Ev, __ZN6AriOsa13OsTimeoutStopEP17dispatch_source_s, 
                       __ZN6AriOsa14OsTimeoutStartEP17dispatch_source_sjPFvPvES2_, 
                       __ZN6AriOsa15OsTimeoutCreateEPP17dispatch_source_s, __ZN6AriOsa16OsTimeoutDestroyEP17dispatch_source_s, 
                       __ZN6AriSdk21ARI_CsiXsioGetReq_SDK4packEPP6AriMsg, __ZN6AriSdk21ARI_CsiXsioGetReq_SDK6unpackEv, 
                       __ZN6AriSdk21ARI_CsiXsioGetReq_SDKC1EPKhj, __ZN6AriSdk21ARI_CsiXsioGetReq_SDKC1Ev, 
                       __ZN6AriSdk21ARI_CsiXsioGetReq_SDKC2EPKhj, __ZN6AriSdk21ARI_CsiXsioGetReq_SDKC2Ev, 
                       __ZN6AriSdk23ARI_CsiXsioGetRspCb_SDK4packEPP6AriMsg, __ZN6AriSdk23ARI_CsiXsioGetRspCb_SDK6unpackEv, 
                       __ZN6AriSdk23ARI_CsiXsioGetRspCb_SDKC1EPKhj, __ZN6AriSdk23ARI_CsiXsioGetRspCb_SDKC1Ev, 
                       __ZN6AriSdk23ARI_CsiXsioGetRspCb_SDKC2EPKhj, __ZN6AriSdk23ARI_CsiXsioGetRspCb_SDKC2Ev, 
                       __ZN6AriSdk25ARI_CsiIceGpsStateReq_SDK4packEPP6AriMsg, __ZN6AriSdk25ARI_CsiIceGpsStateReq_SDK6unpackEv, 
                       __ZN6AriSdk25ARI_CsiIceGpsStateReq_SDKC1EPKhj, __ZN6AriSdk25ARI_CsiIceGpsStateReq_SDKC1Ev, 
                       __ZN6AriSdk25ARI_CsiIceGpsStateReq_SDKC2EPKhj, __ZN6AriSdk25ARI_CsiIceGpsStateReq_SDKC2Ev, 
                       __ZN6AriSdk26ARI_CsiBspSwTrapReq_v2_SDK4packEPP6AriMsg, __ZN6AriSdk26ARI_CsiBspSwTrapReq_v2_SDK6unpackEv, 
                       __ZN6AriSdk26ARI_CsiBspSwTrapReq_v2_SDKC1EPKhj, __ZN6AriSdk26ARI_CsiBspSwTrapReq_v2_SDKC1Ev, 
                       __ZN6AriSdk26ARI_CsiBspSwTrapReq_v2_SDKC2EPKhj, __ZN6AriSdk26ARI_CsiBspSwTrapReq_v2_SDKC2Ev, 
                       __ZN6AriSdk26ARI_CsiIceGripStateReq_SDK4packEPP6AriMsg, __ZN6AriSdk26ARI_CsiIceGripStateReq_SDK6unpackEv, 
                       __ZN6AriSdk26ARI_CsiIceGripStateReq_SDKC1EPKhj, __ZN6AriSdk26ARI_CsiIceGripStateReq_SDKC1Ev, 
                       __ZN6AriSdk26ARI_CsiIceGripStateReq_SDKC2EPKhj, __ZN6AriSdk26ARI_CsiIceGripStateReq_SDKC2Ev, 
                       __ZN6AriSdk26ARI_CsiSysGetInfoReqV2_SDK4packEPP6AriMsg, __ZN6AriSdk26ARI_CsiSysGetInfoReqV2_SDK6unpackEv, 
                       __ZN6AriSdk26ARI_CsiSysGetInfoReqV2_SDKC1EPKhj, __ZN6AriSdk26ARI_CsiSysGetInfoReqV2_SDKC1Ev, 
                       __ZN6AriSdk26ARI_CsiSysGetInfoReqV2_SDKC2EPKhj, __ZN6AriSdk26ARI_CsiSysGetInfoReqV2_SDKC2Ev, 
                       __ZN6AriSdk26ARI_IBISimHwEventIndCb_SDK4packEPP6AriMsg, __ZN6AriSdk26ARI_IBISimHwEventIndCb_SDK6unpackEv, 
                       __ZN6AriSdk26ARI_IBISimHwEventIndCb_SDKC1EPKhj, __ZN6AriSdk26ARI_IBISimHwEventIndCb_SDKC1Ev, 
                       __ZN6AriSdk26ARI_IBISimHwEventIndCb_SDKC2EPKhj, __ZN6AriSdk26ARI_IBISimHwEventIndCb_SDKC2Ev, 
                       __ZN6AriSdk27ARI_CsiIceGpsStateRspCb_SDK4packEPP6AriMsg, __ZN6AriSdk27ARI_CsiIceGpsStateRspCb_SDK6unpackEv, 
                       __ZN6AriSdk27ARI_CsiIceGpsStateRspCb_SDKC1EPKhj, __ZN6AriSdk27ARI_CsiIceGpsStateRspCb_SDKC1Ev, 
                       __ZN6AriSdk27ARI_CsiIceGpsStateRspCb_SDKC2EPKhj, __ZN6AriSdk27ARI_CsiIceGpsStateRspCb_SDKC2Ev, 
                       __ZN6AriSdk28ARI_CsiBspSwTrapRspCb_v2_SDK4packEPP6AriMsg, 
                       __ZN6AriSdk28ARI_CsiBspSwTrapRspCb_v2_SDK6unpackEv, __ZN6AriSdk28ARI_CsiBspSwTrapRspCb_v2_SDKC1EPKhj, 
                       __ZN6AriSdk28ARI_CsiBspSwTrapRspCb_v2_SDKC1Ev, __ZN6AriSdk28ARI_CsiBspSwTrapRspCb_v2_SDKC2EPKhj, 
                       __ZN6AriSdk28ARI_CsiBspSwTrapRspCb_v2_SDKC2Ev, __ZN6AriSdk28ARI_CsiIceGripStateRspCb_SDK4packEPP6AriMsg, 
                       __ZN6AriSdk28ARI_CsiIceGripStateRspCb_SDK6unpackEv, __ZN6AriSdk28ARI_CsiIceGripStateRspCb_SDKC1EPKhj, 
                       __ZN6AriSdk28ARI_CsiIceGripStateRspCb_SDKC1Ev, __ZN6AriSdk28ARI_CsiIceGripStateRspCb_SDKC2EPKhj, 
                       __ZN6AriSdk28ARI_CsiIceGripStateRspCb_SDKC2Ev, __ZN6AriSdk28ARI_CsiSysGetInfoRspCbV2_SDK4packEPP6AriMsg, 
                       __ZN6AriSdk28ARI_CsiSysGetInfoRspCbV2_SDK6unpackEv, __ZN6AriSdk28ARI_CsiSysGetInfoRspCbV2_SDKC1EPKhj, 
                       __ZN6AriSdk28ARI_CsiSysGetInfoRspCbV2_SDKC1Ev, __ZN6AriSdk28ARI_CsiSysGetInfoRspCbV2_SDKC2EPKhj, 
                       __ZN6AriSdk28ARI_CsiSysGetInfoRspCbV2_SDKC2Ev, __ZN6AriSdk30ARI_CsiIdcSetWifiStatusReq_SDK4packEPP6AriMsg, 
                       __ZN6AriSdk30ARI_CsiIdcSetWifiStatusReq_SDK6unpackEv, __ZN6AriSdk30ARI_CsiIdcSetWifiStatusReq_SDKC1EPKhj, 
                       __ZN6AriSdk30ARI_CsiIdcSetWifiStatusReq_SDKC1Ev, __ZN6AriSdk30ARI_CsiIdcSetWifiStatusReq_SDKC2EPKhj, 
                       __ZN6AriSdk30ARI_CsiIdcSetWifiStatusReq_SDKC2Ev, __ZN6AriSdk30ARI_IBINetGetCellInfoReqV1_SDK4packEPP6AriMsg, 
                       __ZN6AriSdk30ARI_IBINetGetCellInfoReqV1_SDK6unpackEv, __ZN6AriSdk30ARI_IBINetGetCellInfoReqV1_SDKC1EPKhj, 
                       __ZN6AriSdk30ARI_IBINetGetCellInfoReqV1_SDKC1Ev, __ZN6AriSdk30ARI_IBINetGetCellInfoReqV1_SDKC2EPKhj, 
                       __ZN6AriSdk30ARI_IBINetGetCellInfoReqV1_SDKC2Ev, __ZN6AriSdk31ARI_IBICallPsLteAttachIndCb_SDK4packEPP6AriMsg, 
                       __ZN6AriSdk31ARI_IBICallPsLteAttachIndCb_SDK6unpackEv, __ZN6AriSdk31ARI_IBICallPsLteAttachIndCb_SDKC1EPKhj, 
                       __ZN6AriSdk31ARI_IBICallPsLteAttachIndCb_SDKC1Ev, __ZN6AriSdk31ARI_IBICallPsLteAttachIndCb_SDKC2EPKhj, 
                       __ZN6AriSdk31ARI_IBICallPsLteAttachIndCb_SDKC2Ev, __ZN6AriSdk31ARI_IBICallPsVoipAppInfoReq_SDK4packEPP6AriMsg, 
                       __ZN6AriSdk31ARI_IBICallPsVoipAppInfoReq_SDK6unpackEv, __ZN6AriSdk31ARI_IBICallPsVoipAppInfoReq_SDKC1EPKhj, 
                       __ZN6AriSdk31ARI_IBICallPsVoipAppInfoReq_SDKC1Ev, __ZN6AriSdk31ARI_IBICallPsVoipAppInfoReq_SDKC2EPKhj, 
                       __ZN6AriSdk31ARI_IBICallPsVoipAppInfoReq_SDKC2Ev, __ZN6AriSdk32ARI_CsiIdcSetWifiStatusRspCb_SDK4packEPP6AriMsg, 
                       __ZN6AriSdk32ARI_CsiIdcSetWifiStatusRspCb_SDK6unpackEv, __ZN6AriSdk32ARI_CsiIdcSetWifiStatusRspCb_SDKC1EPKhj, 
                       __ZN6AriSdk32ARI_CsiIdcSetWifiStatusRspCb_SDKC1Ev, __ZN6AriSdk32ARI_CsiIdcSetWifiStatusRspCb_SDKC2EPKhj, 
                       __ZN6AriSdk32ARI_CsiIdcSetWifiStatusRspCb_SDKC2Ev, __ZN6AriSdk32ARI_IBINetGetCellInfoIndCbV1_SDK4packEPP6AriMsg, 
                       __ZN6AriSdk32ARI_IBINetGetCellInfoIndCbV1_SDK6unpackEv, __ZN6AriSdk32ARI_IBINetGetCellInfoIndCbV1_SDKC1EPKhj, 
                       __ZN6AriSdk32ARI_IBINetGetCellInfoIndCbV1_SDKC1Ev, __ZN6AriSdk32ARI_IBINetGetCellInfoIndCbV1_SDKC2EPKhj, 
                       __ZN6AriSdk32ARI_IBINetGetCellInfoIndCbV1_SDKC2Ev, __ZN6AriSdk32ARI_IBINetIncrementalScanReq_SDK4packEPP6AriMsg, 
                       __ZN6AriSdk32ARI_IBINetIncrementalScanReq_SDK6unpackEv, __ZN6AriSdk32ARI_IBINetIncrementalScanReq_SDKC1EPKhj, 
                       __ZN6AriSdk32ARI_IBINetIncrementalScanReq_SDKC1Ev, __ZN6AriSdk32ARI_IBINetIncrementalScanReq_SDKC2EPKhj, 
                       __ZN6AriSdk32ARI_IBINetIncrementalScanReq_SDKC2Ev, __ZN6AriSdk33ARI_CsiIcePowerSourceStateReq_SDK4packEPP6AriMsg, 
                       __ZN6AriSdk33ARI_CsiIcePowerSourceStateReq_SDK6unpackEv, __ZN6AriSdk33ARI_CsiIcePowerSourceStateReq_SDKC1EPKhj, 
                       __ZN6AriSdk33ARI_CsiIcePowerSourceStateReq_SDKC1Ev, __ZN6AriSdk33ARI_CsiIcePowerSourceStateReq_SDKC2EPKhj, 
                       __ZN6AriSdk33ARI_CsiIcePowerSourceStateReq_SDKC2Ev, __ZN6AriSdk33ARI_CsiIdcRTArbiterStatsRspCb_SDK4packEPP6AriMsg, 
                       __ZN6AriSdk33ARI_CsiIdcRTArbiterStatsRspCb_SDK6unpackEv, __ZN6AriSdk33ARI_CsiIdcRTArbiterStatsRspCb_SDKC1EPKhj, 
                       __ZN6AriSdk33ARI_CsiIdcRTArbiterStatsRspCb_SDKC1Ev, __ZN6AriSdk33ARI_CsiIdcRTArbiterStatsRspCb_SDKC2EPKhj, 
                       __ZN6AriSdk33ARI_CsiIdcRTArbiterStatsRspCb_SDKC2Ev, __ZN6AriSdk33ARI_CsiIdcUartType4StatsRspCb_SDK4packEPP6AriMsg, 
                       __ZN6AriSdk33ARI_CsiIdcUartType4StatsRspCb_SDK6unpackEv, __ZN6AriSdk33ARI_CsiIdcUartType4StatsRspCb_SDKC1EPKhj, 
                       __ZN6AriSdk33ARI_CsiIdcUartType4StatsRspCb_SDKC1Ev, __ZN6AriSdk33ARI_CsiIdcUartType4StatsRspCb_SDKC2EPKhj, 
                       __ZN6AriSdk33ARI_CsiIdcUartType4StatsRspCb_SDKC2Ev, __ZN6AriSdk33ARI_CsiTraceProfilePacketsReq_SDK4packEPP6AriMsg, 
                       __ZN6AriSdk33ARI_CsiTraceProfilePacketsReq_SDK6unpackEv, __ZN6AriSdk33ARI_CsiTraceProfilePacketsReq_SDKC1EPKhj, 
                       __ZN6AriSdk33ARI_CsiTraceProfilePacketsReq_SDKC1Ev, __ZN6AriSdk33ARI_CsiTraceProfilePacketsReq_SDKC2EPKhj, 
                       __ZN6AriSdk33ARI_CsiTraceProfilePacketsReq_SDKC2Ev, __ZN6AriSdk33ARI_IBICallPsVoipAppInfoRspCb_SDK4packEPP6AriMsg, 
                       __ZN6AriSdk33ARI_IBICallPsVoipAppInfoRspCb_SDK6unpackEv, __ZN6AriSdk33ARI_IBICallPsVoipAppInfoRspCb_SDKC1EPKhj, 
                       __ZN6AriSdk33ARI_IBICallPsVoipAppInfoRspCb_SDKC1Ev, __ZN6AriSdk33ARI_IBICallPsVoipAppInfoRspCb_SDKC2EPKhj, 
                       __ZN6AriSdk33ARI_IBICallPsVoipAppInfoRspCb_SDKC2Ev, __ZN6AriSdk33ARI_IBINetGetCellInfoRespCbV1_SDK4packEPP6AriMsg, 
                       __ZN6AriSdk33ARI_IBINetGetCellInfoRespCbV1_SDK6unpackEv, __ZN6AriSdk33ARI_IBINetGetCellInfoRespCbV1_SDKC1EPKhj, 
                       __ZN6AriSdk33ARI_IBINetGetCellInfoRespCbV1_SDKC1Ev, __ZN6AriSdk33ARI_IBINetGetCellInfoRespCbV1_SDKC2EPKhj, 
                       __ZN6AriSdk33ARI_IBINetGetCellInfoRespCbV1_SDKC2Ev, __ZN6AriSdk34ARI_CsiIdcGetUartType4StatsReq_SDK4packEPP6AriMsg, 
                       __ZN6AriSdk34ARI_CsiIdcGetUartType4StatsReq_SDK6unpackEv, 
                       __ZN6AriSdk34ARI_CsiIdcGetUartType4StatsReq_SDKC1EPKhj, __ZN6AriSdk34ARI_CsiIdcGetUartType4StatsReq_SDKC1Ev, 
                       __ZN6AriSdk34ARI_CsiIdcGetUartType4StatsReq_SDKC2EPKhj, __ZN6AriSdk34ARI_CsiIdcGetUartType4StatsReq_SDKC2Ev, 
                       __ZN6AriSdk34ARI_CsiIdcRTControlWci2UartReq_SDK4packEPP6AriMsg, 
                       __ZN6AriSdk34ARI_CsiIdcRTControlWci2UartReq_SDK6unpackEv, 
                       __ZN6AriSdk34ARI_CsiIdcRTControlWci2UartReq_SDKC1EPKhj, __ZN6AriSdk34ARI_CsiIdcRTControlWci2UartReq_SDKC1Ev, 
                       __ZN6AriSdk34ARI_CsiIdcRTControlWci2UartReq_SDKC2EPKhj, __ZN6AriSdk34ARI_CsiIdcRTControlWci2UartReq_SDKC2Ev, 
                       __ZN6AriSdk34ARI_CsiIdcRTControlWci2UartRsp_SDK4packEPP6AriMsg, 
                       __ZN6AriSdk34ARI_CsiIdcRTControlWci2UartRsp_SDK6unpackEv, 
                       __ZN6AriSdk34ARI_CsiIdcRTControlWci2UartRsp_SDKC1EPKhj, __ZN6AriSdk34ARI_CsiIdcRTControlWci2UartRsp_SDKC1Ev, 
                       __ZN6AriSdk34ARI_CsiIdcRTControlWci2UartRsp_SDKC2EPKhj, __ZN6AriSdk34ARI_CsiIdcRTControlWci2UartRsp_SDKC2Ev, 
                       __ZN6AriSdk34ARI_CsiIdcRTGetArbiterStatsReq_SDK4packEPP6AriMsg, 
                       __ZN6AriSdk34ARI_CsiIdcRTGetArbiterStatsReq_SDK6unpackEv, 
                       __ZN6AriSdk34ARI_CsiIdcRTGetArbiterStatsReq_SDKC1EPKhj, __ZN6AriSdk34ARI_CsiIdcRTGetArbiterStatsReq_SDKC1Ev, 
                       __ZN6AriSdk34ARI_CsiIdcRTGetArbiterStatsReq_SDKC2EPKhj, __ZN6AriSdk34ARI_CsiIdcRTGetArbiterStatsReq_SDKC2Ev, 
                       __ZN6AriSdk34ARI_IBINetIncrementalScanIndCb_SDK4packEPP6AriMsg, 
                       __ZN6AriSdk34ARI_IBINetIncrementalScanIndCb_SDK6unpackEv, 
                       __ZN6AriSdk34ARI_IBINetIncrementalScanIndCb_SDKC1EPKhj, __ZN6AriSdk34ARI_IBINetIncrementalScanIndCb_SDKC1Ev, 
                       __ZN6AriSdk34ARI_IBINetIncrementalScanIndCb_SDKC2EPKhj, __ZN6AriSdk34ARI_IBINetIncrementalScanIndCb_SDKC2Ev, 
                       __ZN6AriSdk34ARI_IBINetIncrementalScanRspCb_SDK4packEPP6AriMsg, 
                       __ZN6AriSdk34ARI_IBINetIncrementalScanRspCb_SDK6unpackEv, 
                       __ZN6AriSdk34ARI_IBINetIncrementalScanRspCb_SDKC1EPKhj, __ZN6AriSdk34ARI_IBINetIncrementalScanRspCb_SDKC1Ev, 
                       __ZN6AriSdk34ARI_IBINetIncrementalScanRspCb_SDKC2EPKhj, __ZN6AriSdk34ARI_IBINetIncrementalScanRspCb_SDKC2Ev, 
                       __ZN6AriSdk35ARI_CsiIcePowerSourceStateRspCb_SDK4packEPP6AriMsg, 
                       __ZN6AriSdk35ARI_CsiIcePowerSourceStateRspCb_SDK6unpackEv, 
                       __ZN6AriSdk35ARI_CsiIcePowerSourceStateRspCb_SDKC1EPKhj, __ZN6AriSdk35ARI_CsiIcePowerSourceStateRspCb_SDKC1Ev, 
                       __ZN6AriSdk35ARI_CsiIcePowerSourceStateRspCb_SDKC2EPKhj, __ZN6AriSdk35ARI_CsiIcePowerSourceStateRspCb_SDKC2Ev, 
                       __ZN6AriSdk35ARI_CsiTraceProfilePacketsRspCb_SDK4packEPP6AriMsg, 
                       __ZN6AriSdk35ARI_CsiTraceProfilePacketsRspCb_SDK6unpackEv, 
                       __ZN6AriSdk35ARI_CsiTraceProfilePacketsRspCb_SDKC1EPKhj, __ZN6AriSdk35ARI_CsiTraceProfilePacketsRspCb_SDKC1Ev, 
                       __ZN6AriSdk35ARI_CsiTraceProfilePacketsRspCb_SDKC2EPKhj, __ZN6AriSdk35ARI_CsiTraceProfilePacketsRspCb_SDKC2Ev, 
                       __ZN6AriSdk36ARI_IBICpsCellularPowerReportInd_SDK4packEPP6AriMsg, 
                       __ZN6AriSdk36ARI_IBICpsCellularPowerReportInd_SDK6unpackEv, 
                       __ZN6AriSdk36ARI_IBICpsCellularPowerReportInd_SDKC1EPKhj, 
                       __ZN6AriSdk36ARI_IBICpsCellularPowerReportInd_SDKC1Ev, __ZN6AriSdk36ARI_IBICpsCellularPowerReportInd_SDKC2EPKhj, 
                       __ZN6AriSdk36ARI_IBICpsCellularPowerReportInd_SDKC2Ev, __ZN6AriSdk36ARI_IBIImsMEConfigureRTTMediaReq_SDK4packEPP6AriMsg, 
                       __ZN6AriSdk36ARI_IBIImsMEConfigureRTTMediaReq_SDK6unpackEv, 
                       __ZN6AriSdk36ARI_IBIImsMEConfigureRTTMediaReq_SDKC1EPKhj, 
                       __ZN6AriSdk36ARI_IBIImsMEConfigureRTTMediaReq_SDKC1Ev, __ZN6AriSdk36ARI_IBIImsMEConfigureRTTMediaReq_SDKC2EPKhj, 
                       __ZN6AriSdk36ARI_IBIImsMEConfigureRTTMediaReq_SDKC2Ev, __ZN6AriSdk37ARI_CsiIdcUartType4StatsConfigReq_SDK4packEPP6AriMsg, 
                       __ZN6AriSdk37ARI_CsiIdcUartType4StatsConfigReq_SDK6unpackEv, 
                       __ZN6AriSdk37ARI_CsiIdcUartType4StatsConfigReq_SDKC1EPKhj, 
                       __ZN6AriSdk37ARI_CsiIdcUartType4StatsConfigReq_SDKC1Ev, __ZN6AriSdk37ARI_CsiIdcUartType4StatsConfigReq_SDKC2EPKhj, 
                       __ZN6AriSdk37ARI_CsiIdcUartType4StatsConfigReq_SDKC2Ev, __ZN6AriSdk38ARI_CsiIdcRTArbiterStatsEventIndCb_SDK4packEPP6AriMsg, 
                       __ZN6AriSdk38ARI_CsiIdcRTArbiterStatsEventIndCb_SDK6unpackEv, 
                       __ZN6AriSdk38ARI_CsiIdcRTArbiterStatsEventIndCb_SDKC1EPKhj, 
                       __ZN6AriSdk38ARI_CsiIdcRTArbiterStatsEventIndCb_SDKC1Ev, __ZN6AriSdk38ARI_CsiIdcRTArbiterStatsEventIndCb_SDKC2EPKhj, 
                       __ZN6AriSdk38ARI_CsiIdcRTArbiterStatsEventIndCb_SDKC2Ev, __ZN6AriSdk38ARI_CsiIdcRTUartActivityStatsRspCb_SDK4packEPP6AriMsg, 
                       __ZN6AriSdk38ARI_CsiIdcRTUartActivityStatsRspCb_SDK6unpackEv, 
                       __ZN6AriSdk38ARI_CsiIdcRTUartActivityStatsRspCb_SDKC1EPKhj, 
                       __ZN6AriSdk38ARI_CsiIdcRTUartActivityStatsRspCb_SDKC1Ev, __ZN6AriSdk38ARI_CsiIdcRTUartActivityStatsRspCb_SDKC2EPKhj, 
                       __ZN6AriSdk38ARI_CsiIdcRTUartActivityStatsRspCb_SDKC2Ev, __ZN6AriSdk38ARI_CsiIdcUartType4StatsEventIndCb_SDK4packEPP6AriMsg, 
                       __ZN6AriSdk38ARI_CsiIdcUartType4StatsEventIndCb_SDK6unpackEv, 
                       __ZN6AriSdk38ARI_CsiIdcUartType4StatsEventIndCb_SDKC1EPKhj, 
                       __ZN6AriSdk38ARI_CsiIdcUartType4StatsEventIndCb_SDKC1Ev, __ZN6AriSdk38ARI_CsiIdcUartType4StatsEventIndCb_SDKC2EPKhj, 
                       __ZN6AriSdk38ARI_CsiIdcUartType4StatsEventIndCb_SDKC2Ev, __ZN6AriSdk38ARI_IBIImsMEConfigureRTTMediaRspCb_SDK4packEPP6AriMsg, 
                       __ZN6AriSdk38ARI_IBIImsMEConfigureRTTMediaRspCb_SDK6unpackEv, 
                       __ZN6AriSdk38ARI_IBIImsMEConfigureRTTMediaRspCb_SDKC1EPKhj, 
                       __ZN6AriSdk38ARI_IBIImsMEConfigureRTTMediaRspCb_SDKC1Ev, __ZN6AriSdk38ARI_IBIImsMEConfigureRTTMediaRspCb_SDKC2EPKhj, 
                       __ZN6AriSdk38ARI_IBIImsMEConfigureRTTMediaRspCb_SDKC2Ev, __ZN6AriSdk39ARI_CsiIdcRTGetUartActivityStatsReq_SDK4packEPP6AriMsg, 
                       __ZN6AriSdk39ARI_CsiIdcRTGetUartActivityStatsReq_SDK6unpackEv, 
                       __ZN6AriSdk39ARI_CsiIdcRTGetUartActivityStatsReq_SDKC1EPKhj, 
                       __ZN6AriSdk39ARI_CsiIdcRTGetUartActivityStatsReq_SDKC1Ev, 
                       __ZN6AriSdk39ARI_CsiIdcRTGetUartActivityStatsReq_SDKC2EPKhj, 
                       __ZN6AriSdk39ARI_CsiIdcRTGetUartActivityStatsReq_SDKC2Ev, 
                       __ZN6AriSdk39ARI_CsiIdcUartType4StatsConfigRspCb_SDK4packEPP6AriMsg, 
                       __ZN6AriSdk39ARI_CsiIdcUartType4StatsConfigRspCb_SDK6unpackEv, 
                       __ZN6AriSdk39ARI_CsiIdcUartType4StatsConfigRspCb_SDKC1EPKhj, 
                       __ZN6AriSdk39ARI_CsiIdcUartType4StatsConfigRspCb_SDKC1Ev, 
                       __ZN6AriSdk39ARI_CsiIdcUartType4StatsConfigRspCb_SDKC2EPKhj, 
                       __ZN6AriSdk39ARI_CsiIdcUartType4StatsConfigRspCb_SDKC2Ev, 
                       __ZN6AriSdk40ARI_CsiIdcRTSetArbiterStatsConfigReq_SDK4packEPP6AriMsg, 
                       __ZN6AriSdk40ARI_CsiIdcRTSetArbiterStatsConfigReq_SDK6unpackEv, 
                       __ZN6AriSdk40ARI_CsiIdcRTSetArbiterStatsConfigReq_SDKC1EPKhj, 
                       __ZN6AriSdk40ARI_CsiIdcRTSetArbiterStatsConfigReq_SDKC1Ev, 
                       __ZN6AriSdk40ARI_CsiIdcRTSetArbiterStatsConfigReq_SDKC2EPKhj, 
                       __ZN6AriSdk40ARI_CsiIdcRTSetArbiterStatsConfigReq_SDKC2Ev, 
                       __ZN6AriSdk40ARI_IBIImsMECreateRTTMediaSessionReq_SDK4packEPP6AriMsg, 
                       __ZN6AriSdk40ARI_IBIImsMECreateRTTMediaSessionReq_SDK6unpackEv, 
                       __ZN6AriSdk40ARI_IBIImsMECreateRTTMediaSessionReq_SDKC1EPKhj, 
                       __ZN6AriSdk40ARI_IBIImsMECreateRTTMediaSessionReq_SDKC1Ev, 
                       __ZN6AriSdk40ARI_IBIImsMECreateRTTMediaSessionReq_SDKC2EPKhj, 
                       __ZN6AriSdk40ARI_IBIImsMECreateRTTMediaSessionReq_SDKC2Ev, 
                       __ZN6AriSdk42ARI_CsiIdcRTSetArbiterStatsConfigRspCb_SDK4packEPP6AriMsg, 
                       __ZN6AriSdk42ARI_CsiIdcRTSetArbiterStatsConfigRspCb_SDK6unpackEv, 
                       __ZN6AriSdk42ARI_CsiIdcRTSetArbiterStatsConfigRspCb_SDKC1EPKhj, 
                       __ZN6AriSdk42ARI_CsiIdcRTSetArbiterStatsConfigRspCb_SDKC1Ev, 
                       __ZN6AriSdk42ARI_CsiIdcRTSetArbiterStatsConfigRspCb_SDKC2EPKhj, 
                       __ZN6AriSdk42ARI_CsiIdcRTSetArbiterStatsConfigRspCb_SDKC2Ev, 
                       __ZN6AriSdk42ARI_CsiIdcRTUartActivityStatsConfigReq_SDK4packEPP6AriMsg, 
                       __ZN6AriSdk42ARI_CsiIdcRTUartActivityStatsConfigReq_SDK6unpackEv, 
                       __ZN6AriSdk42ARI_CsiIdcRTUartActivityStatsConfigReq_SDKC1EPKhj, 
                       __ZN6AriSdk42ARI_CsiIdcRTUartActivityStatsConfigReq_SDKC1Ev, 
                       __ZN6AriSdk42ARI_CsiIdcRTUartActivityStatsConfigReq_SDKC2EPKhj, 
                       __ZN6AriSdk42ARI_CsiIdcRTUartActivityStatsConfigReq_SDKC2Ev, 
                       __ZN6AriSdk42ARI_IBIImsMECreateRTTMediaSessionRspCb_SDK4packEPP6AriMsg, 
                       __ZN6AriSdk42ARI_IBIImsMECreateRTTMediaSessionRspCb_SDK6unpackEv, 
                       __ZN6AriSdk42ARI_IBIImsMECreateRTTMediaSessionRspCb_SDKC1EPKhj, 
                       __ZN6AriSdk42ARI_IBIImsMECreateRTTMediaSessionRspCb_SDKC1Ev, 
                       __ZN6AriSdk42ARI_IBIImsMECreateRTTMediaSessionRspCb_SDKC2EPKhj, 
                       __ZN6AriSdk42ARI_IBIImsMECreateRTTMediaSessionRspCb_SDKC2Ev, 
                       __ZN6AriSdk42ARI_IBINetEmergencyCellSearchFailIndCb_SDK4packEPP6AriMsg, 
                       __ZN6AriSdk42ARI_IBINetEmergencyCellSearchFailIndCb_SDK6unpackEv, 
                       __ZN6AriSdk42ARI_IBINetEmergencyCellSearchFailIndCb_SDKC1EPKhj, 
                       __ZN6AriSdk42ARI_IBINetEmergencyCellSearchFailIndCb_SDKC1Ev, 
                       __ZN6AriSdk42ARI_IBINetEmergencyCellSearchFailIndCb_SDKC2EPKhj, 
                       __ZN6AriSdk42ARI_IBINetEmergencyCellSearchFailIndCb_SDKC2Ev, 
                       __ZN6AriSdk43ARI_CsiIdcRTUartActivityStatsEventIndCb_SDK4packEPP6AriMsg, 
                       __ZN6AriSdk43ARI_CsiIdcRTUartActivityStatsEventIndCb_SDK6unpackEv, 
                       __ZN6AriSdk43ARI_CsiIdcRTUartActivityStatsEventIndCb_SDKC1EPKhj, 
                       __ZN6AriSdk43ARI_CsiIdcRTUartActivityStatsEventIndCb_SDKC1Ev, 
                       __ZN6AriSdk43ARI_CsiIdcRTUartActivityStatsEventIndCb_SDKC2EPKhj, 
                       __ZN6AriSdk43ARI_CsiIdcRTUartActivityStatsEventIndCb_SDKC2Ev, 
                       __ZN6AriSdk43ARI_IBIMsCpPosReportMeasurementIndCb_v1_SDK4packEPP6AriMsg, 
                       __ZN6AriSdk43ARI_IBIMsCpPosReportMeasurementIndCb_v1_SDK6unpackEv, 
                       __ZN6AriSdk43ARI_IBIMsCpPosReportMeasurementIndCb_v1_SDKC1EPKhj, 
                       __ZN6AriSdk43ARI_IBIMsCpPosReportMeasurementIndCb_v1_SDKC1Ev, 
                       __ZN6AriSdk43ARI_IBIMsCpPosReportMeasurementIndCb_v1_SDKC2EPKhj, 
                       __ZN6AriSdk43ARI_IBIMsCpPosReportMeasurementIndCb_v1_SDKC2Ev, 
                       __ZN6AriSdk44ARI_CsiIdcRTUartActivityStatsConfigRspCb_SDK4packEPP6AriMsg, 
                       __ZN6AriSdk44ARI_CsiIdcRTUartActivityStatsConfigRspCb_SDK6unpackEv, 
                       __ZN6AriSdk44ARI_CsiIdcRTUartActivityStatsConfigRspCb_SDKC1EPKhj, 
                       __ZN6AriSdk44ARI_CsiIdcRTUartActivityStatsConfigRspCb_SDKC1Ev, 
                       __ZN6AriSdk44ARI_CsiIdcRTUartActivityStatsConfigRspCb_SDKC2EPKhj, 
                       __ZN6AriSdk44ARI_CsiIdcRTUartActivityStatsConfigRspCb_SDKC2Ev, 
                       __ZN6AriSdk44ARI_IBICallPsIPV6AddrFormationSuccessReq_SDK4packEPP6AriMsg, 
                       __ZN6AriSdk44ARI_IBICallPsIPV6AddrFormationSuccessReq_SDK6unpackEv, 
                       __ZN6AriSdk44ARI_IBICallPsIPV6AddrFormationSuccessReq_SDKC1EPKhj, 
                       __ZN6AriSdk44ARI_IBICallPsIPV6AddrFormationSuccessReq_SDKC1Ev, 
                       __ZN6AriSdk44ARI_IBICallPsIPV6AddrFormationSuccessReq_SDKC2EPKhj, 
                       __ZN6AriSdk44ARI_IBICallPsIPV6AddrFormationSuccessReq_SDKC2Ev, 
                       __ZN6AriSdk44ARI_IBINetDcImsRegistrationStatusInfoReq_SDK4packEPP6AriMsg, 
                       __ZN6AriSdk44ARI_IBINetDcImsRegistrationStatusInfoReq_SDK6unpackEv, 
                       __ZN6AriSdk44ARI_IBINetDcImsRegistrationStatusInfoReq_SDKC1EPKhj, 
                       __ZN6AriSdk44ARI_IBINetDcImsRegistrationStatusInfoReq_SDKC1Ev, 
                       __ZN6AriSdk44ARI_IBINetDcImsRegistrationStatusInfoReq_SDKC2EPKhj, 
                       __ZN6AriSdk44ARI_IBINetDcImsRegistrationStatusInfoReq_SDKC2Ev, 
                       __ZN6AriSdk45ARI_IBICpsConfigureCellularPowerReportReq_SDK4packEPP6AriMsg, 
                       __ZN6AriSdk45ARI_IBICpsConfigureCellularPowerReportReq_SDK6unpackEv, 
                       __ZN6AriSdk45ARI_IBICpsConfigureCellularPowerReportReq_SDKC1EPKhj, 
                       __ZN6AriSdk45ARI_IBICpsConfigureCellularPowerReportReq_SDKC1Ev, 
                       __ZN6AriSdk45ARI_IBICpsConfigureCellularPowerReportReq_SDKC2EPKhj, 
                       __ZN6AriSdk45ARI_IBICpsConfigureCellularPowerReportReq_SDKC2Ev, 
                       __ZN6AriSdk45ARI_IBICpsConfigureCellularPowerReportRsp_SDK4packEPP6AriMsg, 
                       __ZN6AriSdk45ARI_IBICpsConfigureCellularPowerReportRsp_SDK6unpackEv, 
                       __ZN6AriSdk45ARI_IBICpsConfigureCellularPowerReportRsp_SDKC1EPKhj, 
                       __ZN6AriSdk45ARI_IBICpsConfigureCellularPowerReportRsp_SDKC1Ev, 
                       __ZN6AriSdk45ARI_IBICpsConfigureCellularPowerReportRsp_SDKC2EPKhj, 
                       __ZN6AriSdk45ARI_IBICpsConfigureCellularPowerReportRsp_SDKC2Ev, 
                       __ZN6AriSdk46ARI_IBICallPsIPV6AddrFormationSuccessRspCb_SDK4packEPP6AriMsg, 
                       __ZN6AriSdk46ARI_IBICallPsIPV6AddrFormationSuccessRspCb_SDK6unpackEv, 
                       __ZN6AriSdk46ARI_IBICallPsIPV6AddrFormationSuccessRspCb_SDKC1EPKhj, 
                       __ZN6AriSdk46ARI_IBICallPsIPV6AddrFormationSuccessRspCb_SDKC1Ev, 
                       __ZN6AriSdk46ARI_IBICallPsIPV6AddrFormationSuccessRspCb_SDKC2EPKhj, 
                       __ZN6AriSdk46ARI_IBICallPsIPV6AddrFormationSuccessRspCb_SDKC2Ev, 
                       __ZN6AriSdk46ARI_IBINetDcImsRegistrationStatusInfoRspCb_SDK4packEPP6AriMsg, 
                       __ZN6AriSdk46ARI_IBINetDcImsRegistrationStatusInfoRspCb_SDK6unpackEv, 
                       __ZN6AriSdk46ARI_IBINetDcImsRegistrationStatusInfoRspCb_SDKC1EPKhj, 
                       __ZN6AriSdk46ARI_IBINetDcImsRegistrationStatusInfoRspCb_SDKC1Ev, 
                       __ZN6AriSdk46ARI_IBINetDcImsRegistrationStatusInfoRspCb_SDKC2EPKhj, 
                       __ZN6AriSdk46ARI_IBINetDcImsRegistrationStatusInfoRspCb_SDKC2Ev, 
                       __ZN6AriSdk47ARI_IBIMsCpPosEnableMeasurementReportReq_v1_SDK4packEPP6AriMsg, 
                       __ZN6AriSdk47ARI_IBIMsCpPosEnableMeasurementReportReq_v1_SDK6unpackEv, 
                       __ZN6AriSdk47ARI_IBIMsCpPosEnableMeasurementReportReq_v1_SDKC1EPKhj, 
                       __ZN6AriSdk47ARI_IBIMsCpPosEnableMeasurementReportReq_v1_SDKC1Ev, 
                       __ZN6AriSdk47ARI_IBIMsCpPosEnableMeasurementReportReq_v1_SDKC2EPKhj, 
                       __ZN6AriSdk47ARI_IBIMsCpPosEnableMeasurementReportReq_v1_SDKC2Ev, 
                       __ZN6AriSdk48ARI_IBIMsCpPosDisableMeasurementReportReq_v1_SDK4packEPP6AriMsg, 
                       __ZN6AriSdk48ARI_IBIMsCpPosDisableMeasurementReportReq_v1_SDK6unpackEv, 
                       __ZN6AriSdk48ARI_IBIMsCpPosDisableMeasurementReportReq_v1_SDKC1EPKhj, 
                       __ZN6AriSdk48ARI_IBIMsCpPosDisableMeasurementReportReq_v1_SDKC1Ev, 
                       __ZN6AriSdk48ARI_IBIMsCpPosDisableMeasurementReportReq_v1_SDKC2EPKhj, 
                       __ZN6AriSdk48ARI_IBIMsCpPosDisableMeasurementReportReq_v1_SDKC2Ev, 
                       __ZN6AriSdk49ARI_IBIMsCpPosEnableMeasurementReportRspCb_v1_SDK4packEPP6AriMsg, 
                       __ZN6AriSdk49ARI_IBIMsCpPosEnableMeasurementReportRspCb_v1_SDK6unpackEv, 
                       __ZN6AriSdk49ARI_IBIMsCpPosEnableMeasurementReportRspCb_v1_SDKC1EPKhj, 
                       __ZN6AriSdk49ARI_IBIMsCpPosEnableMeasurementReportRspCb_v1_SDKC1Ev, 
                       __ZN6AriSdk49ARI_IBIMsCpPosEnableMeasurementReportRspCb_v1_SDKC2EPKhj, 
                       __ZN6AriSdk49ARI_IBIMsCpPosEnableMeasurementReportRspCb_v1_SDKC2Ev, 
                       __ZN6AriSdk50ARI_IBIMsCpPosDisableMeasurementReportRspCb_v1_SDK4packEPP6AriMsg, 
                       __ZN6AriSdk50ARI_IBIMsCpPosDisableMeasurementReportRspCb_v1_SDK6unpackEv, 
                       __ZN6AriSdk50ARI_IBIMsCpPosDisableMeasurementReportRspCb_v1_SDKC1EPKhj, 
                       __ZN6AriSdk50ARI_IBIMsCpPosDisableMeasurementReportRspCb_v1_SDKC1Ev, 
                       __ZN6AriSdk50ARI_IBIMsCpPosDisableMeasurementReportRspCb_v1_SDKC2EPKhj, 
                       __ZN6AriSdk50ARI_IBIMsCpPosDisableMeasurementReportRspCb_v1_SDKC2Ev, 
                       __ZN6AriSdk7MsgBaseD0Ev, __ZN7AriHost13stopClient_nlEiU13block_pointerFvvE, 
                       __ZN7AriHost14RegisterClientEPKcPiP16dispatch_queue_sjj, __ZN7AriHost14SetMsgWakeableEjbiNSt3__18functionIFviEEE, 
                       __ZN7AriHost14TransactionMgr12blockMessageENSt3__110shared_ptrIN3Ari21ClientOutboundMessageEEE, 
                       __ZN7AriHost14TransactionMgr12trackReceiveEi, __ZN7AriHost14TransactionMgr14purgeCancelledEv, 
                       __ZN7AriHost14TransactionMgr14unblockMessageEv, __ZN7AriHost14TransactionMgr17setMaxOutstandingEj, 
                       __ZN7AriHost14TransactionMgr21cancelBlockedRequestsEv, __ZN7AriHost14TransactionMgr5clearEv, 
                       __ZN7AriHost14TransactionMgr9trackSendENSt3__110shared_ptrIN3Ari21ClientOutboundMessageEEE, 
                       __ZN7AriHost14TransactionMgrC1Eij, __ZN7AriHost14TransactionMgrC1Ev, 
                       __ZN7AriHost14TransactionMgrC2Eij, __ZN7AriHost14TransactionMgrC2Ev, 
                       __ZN7AriHost14TransactionMgrD1Ev, __ZN7AriHost14TransactionMgrD2Ev, 
                       __ZN7AriHost21IndicationHandlerList11setWakeableEbj, __ZN7AriHost21IndicationHandlerList15updateHandlerIdEjj, 
                       __ZN7AriHost21IndicationHandlerList20updateLastRegisteredEj, 
                       __ZN7AriHost21IndicationHandlerList20updateLastWakeSetterEj, 
                       __ZN7AriHost21IndicationHandlerListC1Ejj, __ZN7AriHost21IndicationHandlerListC1Ev, 
                       __ZN7AriHost21IndicationHandlerListC2Ejj, __ZN7AriHost21IndicationHandlerListC2Ev, 
                       __ZN7AriHost21IndicationHandlerListD1Ev, __ZN7AriHost21IndicationHandlerListD2Ev, 
                       __ZN7AriHost21reRegisterIndicationsEv, __ZN7AriHost23updateIndicationCids_nlEjj, 
                       __ZN7AriHost24cancelBlockedRequests_nlEi, __ZN7AriHost24flushLowPriorityRequestsEP16dispatch_group_s, 
                       __ZN8ari_util3hexEPKvm, __ZN8ari_util6to_rleEPKvm, __ZN8ari_util6to_rleERNSt3__112basic_stringIcNS0_11char_traitsIcEENS0_9allocatorIcEEEE, 
                       __ZNK11AriDispatch5Queue3getEv, __ZNK3Ari15ClientWorkQueue7getNameEv, 
                       __ZNK3Ari21ClientOutboundMessage13isLowPriorityEv, __ZNK3Ari21ClientOutboundMessage20isAllowedDuringStallEv, 
                       __ZNK3Ari21ClientOutboundMessage7getGmidEv, __ZNK3Ari21LowPriorityFlushActor7getNameEv, 
                       __ZNK3Ari29IndicationReregistrationActor7getNameEv, __ZNK7AriHost14TransactionMgr12ctxIsBlockedEi, 
                       __ZNK7AriHost14TransactionMgr15getBlockedCountEv, __ZNK7AriHost14TransactionMgr16isMaxOutstandingEv, 
                       __ZNK7AriHost14TransactionMgr19getOutstandingCountEv, __ZNK7AriHost16getSentCallCountEv, 
                       __ZNK7AriHost21IndicationHandlerList11getWakeableEv, __ZNK7AriHost21IndicationHandlerList21getCidForLastRegisterEv, 
                       __ZNK7AriHost21IndicationHandlerList23getCidForLastWakeUpdateEv, 
                       __ZNK7AriHost21IndicationHandlerList7getGmidEv, __ZNK7AriHost21IndicationHandlerList8toStringEv, 
                       __ZTIN3Ari21LowPriorityFlushActorE, __ZTIN3Ari29IndicationReregistrationActorE, 
                       __ZTIN6AriSdk21ARI_CsiXsioGetReq_SDKE, __ZTIN6AriSdk23ARI_CsiXsioGetRspCb_SDKE, 
                       __ZTIN6AriSdk25ARI_CsiIceGpsStateReq_SDKE, __ZTIN6AriSdk26ARI_CsiBspSwTrapReq_v2_SDKE, 
                       __ZTIN6AriSdk26ARI_CsiIceGripStateReq_SDKE, __ZTIN6AriSdk26ARI_CsiSysGetInfoReqV2_SDKE, 
                       __ZTIN6AriSdk26ARI_IBISimHwEventIndCb_SDKE, __ZTIN6AriSdk27ARI_CsiIceGpsStateRspCb_SDKE, 
                       __ZTIN6AriSdk28ARI_CsiBspSwTrapRspCb_v2_SDKE, __ZTIN6AriSdk28ARI_CsiIceGripStateRspCb_SDKE, 
                       __ZTIN6AriSdk28ARI_CsiSysGetInfoRspCbV2_SDKE, __ZTIN6AriSdk30ARI_CsiIdcSetWifiStatusReq_SDKE, 
                       __ZTIN6AriSdk30ARI_IBINetGetCellInfoReqV1_SDKE, __ZTIN6AriSdk31ARI_IBICallPsLteAttachIndCb_SDKE, 
                       __ZTIN6AriSdk31ARI_IBICallPsVoipAppInfoReq_SDKE, __ZTIN6AriSdk32ARI_CsiIdcSetWifiStatusRspCb_SDKE, 
                       __ZTIN6AriSdk32ARI_IBINetGetCellInfoIndCbV1_SDKE, __ZTIN6AriSdk32ARI_IBINetIncrementalScanReq_SDKE, 
                       __ZTIN6AriSdk33ARI_CsiIcePowerSourceStateReq_SDKE, __ZTIN6AriSdk33ARI_CsiIdcRTArbiterStatsRspCb_SDKE, 
                       __ZTIN6AriSdk33ARI_CsiIdcUartType4StatsRspCb_SDKE, __ZTIN6AriSdk33ARI_CsiTraceProfilePacketsReq_SDKE, 
                       __ZTIN6AriSdk33ARI_IBICallPsVoipAppInfoRspCb_SDKE, __ZTIN6AriSdk33ARI_IBINetGetCellInfoRespCbV1_SDKE, 
                       __ZTIN6AriSdk34ARI_CsiIdcGetUartType4StatsReq_SDKE, __ZTIN6AriSdk34ARI_CsiIdcRTControlWci2UartReq_SDKE, 
                       __ZTIN6AriSdk34ARI_CsiIdcRTControlWci2UartRsp_SDKE, __ZTIN6AriSdk34ARI_CsiIdcRTGetArbiterStatsReq_SDKE, 
                       __ZTIN6AriSdk34ARI_IBINetIncrementalScanIndCb_SDKE, __ZTIN6AriSdk34ARI_IBINetIncrementalScanRspCb_SDKE, 
                       __ZTIN6AriSdk35ARI_CsiIcePowerSourceStateRspCb_SDKE, __ZTIN6AriSdk35ARI_CsiTraceProfilePacketsRspCb_SDKE, 
                       __ZTIN6AriSdk36ARI_IBICpsCellularPowerReportInd_SDKE, __ZTIN6AriSdk36ARI_IBIImsMEConfigureRTTMediaReq_SDKE, 
                       __ZTIN6AriSdk37ARI_CsiIdcUartType4StatsConfigReq_SDKE, __ZTIN6AriSdk38ARI_CsiIdcRTArbiterStatsEventIndCb_SDKE, 
                       __ZTIN6AriSdk38ARI_CsiIdcRTUartActivityStatsRspCb_SDKE, __ZTIN6AriSdk38ARI_CsiIdcUartType4StatsEventIndCb_SDKE, 
                       __ZTIN6AriSdk38ARI_IBIImsMEConfigureRTTMediaRspCb_SDKE, __ZTIN6AriSdk39ARI_CsiIdcRTGetUartActivityStatsReq_SDKE, 
                       __ZTIN6AriSdk39ARI_CsiIdcUartType4StatsConfigRspCb_SDKE, __ZTIN6AriSdk40ARI_CsiIdcRTSetArbiterStatsConfigReq_SDKE, 
                       __ZTIN6AriSdk40ARI_IBIImsMECreateRTTMediaSessionReq_SDKE, 
                       __ZTIN6AriSdk42ARI_CsiIdcRTSetArbiterStatsConfigRspCb_SDKE, 
                       __ZTIN6AriSdk42ARI_CsiIdcRTUartActivityStatsConfigReq_SDKE, 
                       __ZTIN6AriSdk42ARI_IBIImsMECreateRTTMediaSessionRspCb_SDKE, 
                       __ZTIN6AriSdk42ARI_IBINetEmergencyCellSearchFailIndCb_SDKE, 
                       __ZTIN6AriSdk43ARI_CsiIdcRTUartActivityStatsEventIndCb_SDKE, 
                       __ZTIN6AriSdk43ARI_IBIMsCpPosReportMeasurementIndCb_v1_SDKE, 
                       __ZTIN6AriSdk44ARI_CsiIdcRTUartActivityStatsConfigRspCb_SDKE, 
                       __ZTIN6AriSdk44ARI_IBICallPsIPV6AddrFormationSuccessReq_SDKE, 
                       __ZTIN6AriSdk44ARI_IBINetDcImsRegistrationStatusInfoReq_SDKE, 
                       __ZTIN6AriSdk45ARI_IBICpsConfigureCellularPowerReportReq_SDKE, 
                       __ZTIN6AriSdk45ARI_IBICpsConfigureCellularPowerReportRsp_SDKE, 
                       __ZTIN6AriSdk46ARI_IBICallPsIPV6AddrFormationSuccessRspCb_SDKE, 
                       __ZTIN6AriSdk46ARI_IBINetDcImsRegistrationStatusInfoRspCb_SDKE, 
                       __ZTIN6AriSdk47ARI_IBIMsCpPosEnableMeasurementReportReq_v1_SDKE, 
                       __ZTIN6AriSdk48ARI_IBIMsCpPosDisableMeasurementReportReq_v1_SDKE, 
                       __ZTIN6AriSdk49ARI_IBIMsCpPosEnableMeasurementReportRspCb_v1_SDKE, 
                       __ZTIN6AriSdk50ARI_IBIMsCpPosDisableMeasurementReportRspCb_v1_SDKE, 
                       __ZTSN3Ari21LowPriorityFlushActorE, __ZTSN3Ari29IndicationReregistrationActorE, 
                       __ZTSN6AriSdk21ARI_CsiXsioGetReq_SDKE, __ZTSN6AriSdk23ARI_CsiXsioGetRspCb_SDKE, 
                       __ZTSN6AriSdk25ARI_CsiIceGpsStateReq_SDKE, __ZTSN6AriSdk26ARI_CsiBspSwTrapReq_v2_SDKE, 
                       __ZTSN6AriSdk26ARI_CsiIceGripStateReq_SDKE, __ZTSN6AriSdk26ARI_CsiSysGetInfoReqV2_SDKE, 
                       __ZTSN6AriSdk26ARI_IBISimHwEventIndCb_SDKE, __ZTSN6AriSdk27ARI_CsiIceGpsStateRspCb_SDKE, 
                       __ZTSN6AriSdk28ARI_CsiBspSwTrapRspCb_v2_SDKE, __ZTSN6AriSdk28ARI_CsiIceGripStateRspCb_SDKE, 
                       __ZTSN6AriSdk28ARI_CsiSysGetInfoRspCbV2_SDKE, __ZTSN6AriSdk30ARI_CsiIdcSetWifiStatusReq_SDKE, 
                       __ZTSN6AriSdk30ARI_IBINetGetCellInfoReqV1_SDKE, __ZTSN6AriSdk31ARI_IBICallPsLteAttachIndCb_SDKE, 
                       __ZTSN6AriSdk31ARI_IBICallPsVoipAppInfoReq_SDKE, __ZTSN6AriSdk32ARI_CsiIdcSetWifiStatusRspCb_SDKE, 
                       __ZTSN6AriSdk32ARI_IBINetGetCellInfoIndCbV1_SDKE, __ZTSN6AriSdk32ARI_IBINetIncrementalScanReq_SDKE, 
                       __ZTSN6AriSdk33ARI_CsiIcePowerSourceStateReq_SDKE, __ZTSN6AriSdk33ARI_CsiIdcRTArbiterStatsRspCb_SDKE, 
                       __ZTSN6AriSdk33ARI_CsiIdcUartType4StatsRspCb_SDKE, __ZTSN6AriSdk33ARI_CsiTraceProfilePacketsReq_SDKE, 
                       __ZTSN6AriSdk33ARI_IBICallPsVoipAppInfoRspCb_SDKE, __ZTSN6AriSdk33ARI_IBINetGetCellInfoRespCbV1_SDKE, 
                       __ZTSN6AriSdk34ARI_CsiIdcGetUartType4StatsReq_SDKE, __ZTSN6AriSdk34ARI_CsiIdcRTControlWci2UartReq_SDKE, 
                       __ZTSN6AriSdk34ARI_CsiIdcRTControlWci2UartRsp_SDKE, __ZTSN6AriSdk34ARI_CsiIdcRTGetArbiterStatsReq_SDKE, 
                       __ZTSN6AriSdk34ARI_IBINetIncrementalScanIndCb_SDKE, __ZTSN6AriSdk34ARI_IBINetIncrementalScanRspCb_SDKE, 
                       __ZTSN6AriSdk35ARI_CsiIcePowerSourceStateRspCb_SDKE, __ZTSN6AriSdk35ARI_CsiTraceProfilePacketsRspCb_SDKE, 
                       __ZTSN6AriSdk36ARI_IBICpsCellularPowerReportInd_SDKE, __ZTSN6AriSdk36ARI_IBIImsMEConfigureRTTMediaReq_SDKE, 
                       __ZTSN6AriSdk37ARI_CsiIdcUartType4StatsConfigReq_SDKE, __ZTSN6AriSdk38ARI_CsiIdcRTArbiterStatsEventIndCb_SDKE, 
                       __ZTSN6AriSdk38ARI_CsiIdcRTUartActivityStatsRspCb_SDKE, __ZTSN6AriSdk38ARI_CsiIdcUartType4StatsEventIndCb_SDKE, 
                       __ZTSN6AriSdk38ARI_IBIImsMEConfigureRTTMediaRspCb_SDKE, __ZTSN6AriSdk39ARI_CsiIdcRTGetUartActivityStatsReq_SDKE, 
                       __ZTSN6AriSdk39ARI_CsiIdcUartType4StatsConfigRspCb_SDKE, __ZTSN6AriSdk40ARI_CsiIdcRTSetArbiterStatsConfigReq_SDKE, 
                       __ZTSN6AriSdk40ARI_IBIImsMECreateRTTMediaSessionReq_SDKE, 
                       __ZTSN6AriSdk42ARI_CsiIdcRTSetArbiterStatsConfigRspCb_SDKE, 
                       __ZTSN6AriSdk42ARI_CsiIdcRTUartActivityStatsConfigReq_SDKE, 
                       __ZTSN6AriSdk42ARI_IBIImsMECreateRTTMediaSessionRspCb_SDKE, 
                       __ZTSN6AriSdk42ARI_IBINetEmergencyCellSearchFailIndCb_SDKE, 
                       __ZTSN6AriSdk43ARI_CsiIdcRTUartActivityStatsEventIndCb_SDKE, 
                       __ZTSN6AriSdk43ARI_IBIMsCpPosReportMeasurementIndCb_v1_SDKE, 
                       __ZTSN6AriSdk44ARI_CsiIdcRTUartActivityStatsConfigRspCb_SDKE, 
                       __ZTSN6AriSdk44ARI_IBICallPsIPV6AddrFormationSuccessReq_SDKE, 
                       __ZTSN6AriSdk44ARI_IBINetDcImsRegistrationStatusInfoReq_SDKE, 
                       __ZTSN6AriSdk45ARI_IBICpsConfigureCellularPowerReportReq_SDKE, 
                       __ZTSN6AriSdk45ARI_IBICpsConfigureCellularPowerReportRsp_SDKE, 
                       __ZTSN6AriSdk46ARI_IBICallPsIPV6AddrFormationSuccessRspCb_SDKE, 
                       __ZTSN6AriSdk46ARI_IBINetDcImsRegistrationStatusInfoRspCb_SDKE, 
                       __ZTSN6AriSdk47ARI_IBIMsCpPosEnableMeasurementReportReq_v1_SDKE, 
                       __ZTSN6AriSdk48ARI_IBIMsCpPosDisableMeasurementReportReq_v1_SDKE, 
                       __ZTSN6AriSdk49ARI_IBIMsCpPosEnableMeasurementReportRspCb_v1_SDKE, 
                       __ZTSN6AriSdk50ARI_IBIMsCpPosDisableMeasurementReportRspCb_v1_SDKE, 
                       __ZTVN3Ari21LowPriorityFlushActorE, __ZTVN3Ari29IndicationReregistrationActorE, 
                       __ZTVN6AriSdk21ARI_CsiXsioGetReq_SDKE, __ZTVN6AriSdk23ARI_CsiXsioGetRspCb_SDKE, 
                       __ZTVN6AriSdk25ARI_CsiIceGpsStateReq_SDKE, __ZTVN6AriSdk26ARI_CsiBspSwTrapReq_v2_SDKE, 
                       __ZTVN6AriSdk26ARI_CsiIceGripStateReq_SDKE, __ZTVN6AriSdk26ARI_CsiSysGetInfoReqV2_SDKE, 
                       __ZTVN6AriSdk26ARI_IBISimHwEventIndCb_SDKE, __ZTVN6AriSdk27ARI_CsiIceGpsStateRspCb_SDKE, 
                       __ZTVN6AriSdk28ARI_CsiBspSwTrapRspCb_v2_SDKE, __ZTVN6AriSdk28ARI_CsiIceGripStateRspCb_SDKE, 
                       __ZTVN6AriSdk28ARI_CsiSysGetInfoRspCbV2_SDKE, __ZTVN6AriSdk30ARI_CsiIdcSetWifiStatusReq_SDKE, 
                       __ZTVN6AriSdk30ARI_IBINetGetCellInfoReqV1_SDKE, __ZTVN6AriSdk31ARI_IBICallPsLteAttachIndCb_SDKE, 
                       __ZTVN6AriSdk31ARI_IBICallPsVoipAppInfoReq_SDKE, __ZTVN6AriSdk32ARI_CsiIdcSetWifiStatusRspCb_SDKE, 
                       __ZTVN6AriSdk32ARI_IBINetGetCellInfoIndCbV1_SDKE, __ZTVN6AriSdk32ARI_IBINetIncrementalScanReq_SDKE, 
                       __ZTVN6AriSdk33ARI_CsiIcePowerSourceStateReq_SDKE, __ZTVN6AriSdk33ARI_CsiIdcRTArbiterStatsRspCb_SDKE, 
                       __ZTVN6AriSdk33ARI_CsiIdcUartType4StatsRspCb_SDKE, __ZTVN6AriSdk33ARI_CsiTraceProfilePacketsReq_SDKE, 
                       __ZTVN6AriSdk33ARI_IBICallPsVoipAppInfoRspCb_SDKE, __ZTVN6AriSdk33ARI_IBINetGetCellInfoRespCbV1_SDKE, 
                       __ZTVN6AriSdk34ARI_CsiIdcGetUartType4StatsReq_SDKE, __ZTVN6AriSdk34ARI_CsiIdcRTControlWci2UartReq_SDKE, 
                       __ZTVN6AriSdk34ARI_CsiIdcRTControlWci2UartRsp_SDKE, __ZTVN6AriSdk34ARI_CsiIdcRTGetArbiterStatsReq_SDKE, 
                       __ZTVN6AriSdk34ARI_IBINetIncrementalScanIndCb_SDKE, __ZTVN6AriSdk34ARI_IBINetIncrementalScanRspCb_SDKE, 
                       __ZTVN6AriSdk35ARI_CsiIcePowerSourceStateRspCb_SDKE, __ZTVN6AriSdk35ARI_CsiTraceProfilePacketsRspCb_SDKE, 
                       __ZTVN6AriSdk36ARI_IBICpsCellularPowerReportInd_SDKE, __ZTVN6AriSdk36ARI_IBIImsMEConfigureRTTMediaReq_SDKE, 
                       __ZTVN6AriSdk37ARI_CsiIdcUartType4StatsConfigReq_SDKE, __ZTVN6AriSdk38ARI_CsiIdcRTArbiterStatsEventIndCb_SDKE, 
                       __ZTVN6AriSdk38ARI_CsiIdcRTUartActivityStatsRspCb_SDKE, __ZTVN6AriSdk38ARI_CsiIdcUartType4StatsEventIndCb_SDKE, 
                       __ZTVN6AriSdk38ARI_IBIImsMEConfigureRTTMediaRspCb_SDKE, __ZTVN6AriSdk39ARI_CsiIdcRTGetUartActivityStatsReq_SDKE, 
                       __ZTVN6AriSdk39ARI_CsiIdcUartType4StatsConfigRspCb_SDKE, __ZTVN6AriSdk40ARI_CsiIdcRTSetArbiterStatsConfigReq_SDKE, 
                       __ZTVN6AriSdk40ARI_IBIImsMECreateRTTMediaSessionReq_SDKE, 
                       __ZTVN6AriSdk42ARI_CsiIdcRTSetArbiterStatsConfigRspCb_SDKE, 
                       __ZTVN6AriSdk42ARI_CsiIdcRTUartActivityStatsConfigReq_SDKE, 
                       __ZTVN6AriSdk42ARI_IBIImsMECreateRTTMediaSessionRspCb_SDKE, 
                       __ZTVN6AriSdk42ARI_IBINetEmergencyCellSearchFailIndCb_SDKE, 
                       __ZTVN6AriSdk43ARI_CsiIdcRTUartActivityStatsEventIndCb_SDKE, 
                       __ZTVN6AriSdk43ARI_IBIMsCpPosReportMeasurementIndCb_v1_SDKE, 
                       __ZTVN6AriSdk44ARI_CsiIdcRTUartActivityStatsConfigRspCb_SDKE, 
                       __ZTVN6AriSdk44ARI_IBICallPsIPV6AddrFormationSuccessReq_SDKE, 
                       __ZTVN6AriSdk44ARI_IBINetDcImsRegistrationStatusInfoReq_SDKE, 
                       __ZTVN6AriSdk45ARI_IBICpsConfigureCellularPowerReportReq_SDKE, 
                       __ZTVN6AriSdk45ARI_IBICpsConfigureCellularPowerReportRsp_SDKE, 
                       __ZTVN6AriSdk46ARI_IBICallPsIPV6AddrFormationSuccessRspCb_SDKE, 
                       __ZTVN6AriSdk46ARI_IBINetDcImsRegistrationStatusInfoRspCb_SDKE, 
                       __ZTVN6AriSdk47ARI_IBIMsCpPosEnableMeasurementReportReq_v1_SDKE, 
                       __ZTVN6AriSdk48ARI_IBIMsCpPosDisableMeasurementReportReq_v1_SDKE, 
                       __ZTVN6AriSdk49ARI_IBIMsCpPosEnableMeasurementReportRspCb_v1_SDKE, 
                       __ZTVN6AriSdk50ARI_IBIMsCpPosDisableMeasurementReportRspCb_v1_SDKE, 
                       __ZTVN6AriSdk7MsgBaseE ]
  - archs:           [ armv7, armv7s, arm64 ]
    symbols:         [ _ARIMSGDEF_GROUP01_bsp, _ARIMSGDEF_GROUP02_call_cs, _ARIMSGDEF_GROUP03_call_ps, 
                       _ARIMSGDEF_GROUP04_sms, _ARIMSGDEF_GROUP05_cbs, _ARIMSGDEF_GROUP06_ss, 
                       _ARIMSGDEF_GROUP07_net_plmn, _ARIMSGDEF_GROUP08_net_rat, _ARIMSGDEF_GROUP09_net_cell, 
                       _ARIMSGDEF_GROUP10_net_dc_ims, _ARIMSGDEF_GROUP11_sim_access, 
                       _ARIMSGDEF_GROUP12_sim_sec, _ARIMSGDEF_GROUP13_sim_tk, _ARIMSGDEF_GROUP14_sim_pb, 
                       _ARIMSGDEF_GROUP15_cps, _ARIMSGDEF_GROUP16_call_cs_voims, 
                       _ARIMSGDEF_GROUP17_ims_me, _ARIMSGDEF_GROUP18_sys_res, _ARIMSGDEF_GROUP19_cls, 
                       _ARIMSGDEF_GROUP20_sys_diag, _ARIMSGDEF_GROUP21_ss_lcs, _ARIMSGDEF_GROUP22_xcc, 
                       _ARIMSGDEF_GROUP23_trc_info, _ARIMSGDEF_GROUP33_pri, _ARIMSGDEF_GROUP34_ice_ipc, 
                       _ARIMSGDEF_GROUP50_ibi_vinyl, _ARIMSGDEF_GROUP51_ice_awds, 
                       _ARIMSGDEF_GROUP60_ice_audio, _ARIMSGDEF_GROUP61_rf_power_sar_nbd, 
                       _ARIMSGDEF_GROUP62_bspnbd, _ARIMSGDEF_GROUP63_security, _ARIMSGDEF_GROUPS, 
                       _ARIMSGDEF_GROUPS_SZ, _ARI_AriACK_Extract, _ARI_AriBBLogInd_Extract, 
                       _ARI_AriGrpAttribReq_BLK, _ARI_AriGrpAttribReq_ENC, _ARI_AriGrpAttribResp_Extract, 
                       _ARI_AriGrpMsgsAttribReq_BLK, _ARI_AriGrpMsgsAttribReq_ENC, 
                       _ARI_AriGrpMsgsAttribResp_Extract, _ARI_AriMsgAttribReq_BLK, 
                       _ARI_AriMsgAttribReq_ENC, _ARI_AriMsgAttribResp_Extract, _ARI_AriNACK_Extract, 
                       _ARI_AriUtaModeInitialSwitchCompleteIndCb_Extract, _ARI_AriUtaMsCallCsReleaseCallRspCb_Extract, 
                       _ARI_AriUtaMsCallCsSetupCallRspCb_Extract, _ARI_AriUtaMsCpsSetSvnRspCb_Extract, 
                       _ARI_AriUtaMsNetAttachRspCb_Extract, _ARI_AriUtaMsNetDetachRspCb_Extract, 
                       _ARI_CsiAwdsAddConfigReq_BLK, _ARI_CsiAwdsAddConfigReq_ENC, 
                       _ARI_CsiAwdsAddConfigRspCb_Extract, _ARI_CsiAwdsDeleteConfigReq_BLK, 
                       _ARI_CsiAwdsDeleteConfigReq_ENC, _ARI_CsiAwdsDeleteConfigRspCb_Extract, 
                       _ARI_CsiAwdsGlobalSwitchReq_BLK, _ARI_CsiAwdsGlobalSwitchReq_ENC, 
                       _ARI_CsiAwdsGlobalSwitchRspCb_Extract, _ARI_CsiAwdsMetricSubInd_Extract, 
                       _ARI_CsiAwdsMetricSubSwitchReq_BLK, _ARI_CsiAwdsMetricSubSwitchReq_ENC, 
                       _ARI_CsiAwdsMetricSubSwitchRspCb_Extract, _ARI_CsiAwdsMetricSubTriggerInd_Extract, 
                       _ARI_CsiAwdsPiiLocConfigReq_BLK, _ARI_CsiAwdsPiiLocConfigReq_ENC, 
                       _ARI_CsiAwdsPiiLocConfigRspCb_Extract, _ARI_CsiAwdsQueryReq_BLK, 
                       _ARI_CsiAwdsQueryReq_ENC, _ARI_CsiAwdsQueryRspCb_Extract, 
                       _ARI_CsiBSPBBDumpInd_Extract, _ARI_CsiBmmProvideBootTimeInfoReq_BLK, 
                       _ARI_CsiBmmProvideBootTimeInfoReq_ENC, _ARI_CsiBmmProvideBootTimeInfoRspCb_Extract, 
                       _ARI_CsiBspDebugJtagModeReq_BLK, _ARI_CsiBspDebugJtagModeReq_ENC, 
                       _ARI_CsiBspDebugJtagModeRspCb_Extract, _ARI_CsiBspGetCalibrationStatusReq_BLK, 
                       _ARI_CsiBspGetCalibrationStatusReq_ENC, _ARI_CsiBspGetCalibrationStatusRspCb_Extract, 
                       _ARI_CsiBspNvmGroupEnumListReq_BLK, _ARI_CsiBspNvmGroupEnumListReq_ENC, 
                       _ARI_CsiBspNvmGroupEnumListRespCb_Extract, _ARI_CsiBspNvmReadGroupBlockReq_BLK, 
                       _ARI_CsiBspNvmReadGroupBlockReq_ENC, _ARI_CsiBspNvmReadGroupBlockRespCb_Extract, 
                       _ARI_CsiBspNvmReadGroupReq_BLK, _ARI_CsiBspNvmReadGroupReq_ENC, 
                       _ARI_CsiBspNvmReadGroupRespCb_Extract, _ARI_CsiBspSetNvItemsToStateReq_BLK, 
                       _ARI_CsiBspSetNvItemsToStateReq_ENC, _ARI_CsiBspSetNvItemsToStateRspCb_Extract, 
                       _ARI_CsiBspShutdownReq_BLK, _ARI_CsiBspShutdownReq_ENC, _ARI_CsiBspShutdownRspCb_Extract, 
                       _ARI_CsiBspStartSysmonReq_BLK, _ARI_CsiBspStartSysmonReq_ENC, 
                       _ARI_CsiBspStartSysmonRspCb_Extract, _ARI_CsiBspStateGetReq_BLK, 
                       _ARI_CsiBspStateGetReq_ENC, _ARI_CsiBspStateGetRspCb_Extract, 
                       _ARI_CsiBspStateSetReq_BLK, _ARI_CsiBspStateSetReq_ENC, _ARI_CsiBspStateSetRspCb_Extract, 
                       _ARI_CsiBspStopSysmonReq_BLK, _ARI_CsiBspStopSysmonReq_ENC, 
                       _ARI_CsiBspStopSysmonRspCb_Extract, _ARI_CsiBspSwTrapReq_BLK, 
                       _ARI_CsiBspSwTrapReq_ENC, _ARI_CsiBspSwTrapReq_v2_BLK, _ARI_CsiBspSwTrapReq_v2_ENC, 
                       _ARI_CsiBspSwTrapRspCb_Extract, _ARI_CsiBspSwTrapRspCb_v2_Extract, 
                       _ARI_CsiCddGetDebugLogReq_BLK, _ARI_CsiCddGetDebugLogReq_ENC, 
                       _ARI_CsiCddGetDebugLogRspCb_Extract, _ARI_CsiCddGetParamDumpReq_BLK, 
                       _ARI_CsiCddGetParamDumpReq_ENC, _ARI_CsiCddGetParamDumpRspCb_Extract, 
                       _ARI_CsiFpGetStatusRsp_Extract, _ARI_CsiFpGetStatus_BLK, _ARI_CsiFpGetStatus_ENC, 
                       _ARI_CsiFpPrioSyncReqInd_Extract, _ARI_CsiFpRegisterRsp_Extract, 
                       _ARI_CsiFpRegister_BLK, _ARI_CsiFpRegister_ENC, _ARI_CsiFpSnapshotRsp_Extract, 
                       _ARI_CsiFpSnapshot_BLK, _ARI_CsiFpSnapshot_ENC, _ARI_CsiFpUpdateAckRsp_Extract, 
                       _ARI_CsiFpUpdateAck_BLK, _ARI_CsiFpUpdateAck_ENC, _ARI_CsiFpUpdateHeaderData_Extract, 
                       _ARI_CsiFpUpdateHeader_BLK, _ARI_CsiFpUpdateHeader_ENC, _ARI_CsiGetCurrentBootStateReq_BLK, 
                       _ARI_CsiGetCurrentBootStateReq_ENC, _ARI_CsiGetCurrentBootStateRspCb_Extract, 
                       _ARI_CsiGetSystemTimeReq_BLK, _ARI_CsiGetSystemTimeReq_ENC, 
                       _ARI_CsiGetSystemTimeResp_Extract, _ARI_CsiIceAccessoryStateArtdReq_BLK, 
                       _ARI_CsiIceAccessoryStateArtdReq_ENC, _ARI_CsiIceAccessoryStateArtdRspCb_Extract, 
                       _ARI_CsiIceAccessoryStateReq_BLK, _ARI_CsiIceAccessoryStateReq_ENC, 
                       _ARI_CsiIceAccessoryStateRspCb_Extract, _ARI_CsiIceAntennaPrefReq_BLK, 
                       _ARI_CsiIceAntennaPrefReq_ENC, _ARI_CsiIceAntennaPrefRspCb_Extract, 
                       _ARI_CsiIceArfcnLockReq_BLK, _ARI_CsiIceArfcnLockReq_ENC, 
                       _ARI_CsiIceArfcnLockRspCb_Extract, _ARI_CsiIceArtdSettingReq_BLK, 
                       _ARI_CsiIceArtdSettingReq_ENC, _ARI_CsiIceArtdSettingRspCb_Extract, 
                       _ARI_CsiIceAtExtReq_BLK, _ARI_CsiIceAtExtReq_ENC, _ARI_CsiIceAtExtRsp_Extract, 
                       _ARI_CsiIceAtReq_BLK, _ARI_CsiIceAtReq_ENC, _ARI_CsiIceAtRsp_Extract, 
                       _ARI_CsiIceAudCallEventReq_BLK, _ARI_CsiIceAudCallEventReq_ENC, 
                       _ARI_CsiIceAudCallEventRespCb_Extract, _ARI_CsiIceAudDeviceInfoIndCb_Extract, 
                       _ARI_CsiIceAudDeviceInfoReq_BLK, _ARI_CsiIceAudDeviceInfoReq_ENC, 
                       _ARI_CsiIceAudDeviceInfoRespCb_Extract, _ARI_CsiIceAudDisableAudioReq_BLK, 
                       _ARI_CsiIceAudDisableAudioReq_ENC, _ARI_CsiIceAudDisableAudioRespCb_Extract, 
                       _ARI_CsiIceAudDisableLoopbackHWReq_BLK, _ARI_CsiIceAudDisableLoopbackHWReq_ENC, 
                       _ARI_CsiIceAudDisableLoopbackHWRespCb_Extract, _ARI_CsiIceAudEnableAudioReq_BLK, 
                       _ARI_CsiIceAudEnableAudioReq_ENC, _ARI_CsiIceAudEnableAudioRespCb_Extract, 
                       _ARI_CsiIceAudEnableLoopbackHWReq_BLK, _ARI_CsiIceAudEnableLoopbackHWReq_ENC, 
                       _ARI_CsiIceAudEnableLoopbackHWRespCb_Extract, _ARI_CsiIceAudLoopbackReq_BLK, 
                       _ARI_CsiIceAudLoopbackReq_ENC, _ARI_CsiIceAudLoopbackRespCb_Extract, 
                       _ARI_CsiIceAudSetAudioLoggingReq_BLK, _ARI_CsiIceAudSetAudioLoggingReq_ENC, 
                       _ARI_CsiIceAudSetAudioLoggingRespCb_Extract, _ARI_CsiIceAudSetDeviceReq_BLK, 
                       _ARI_CsiIceAudSetDeviceReq_ENC, _ARI_CsiIceAudSetDeviceRespCb_Extract, 
                       _ARI_CsiIceAudSetI2SReq_BLK, _ARI_CsiIceAudSetI2SReq_ENC, 
                       _ARI_CsiIceAudSetI2SRespCb_Extract, _ARI_CsiIceAudToneEndIndCb_Extract, 
                       _ARI_CsiIceAudToneStartReq_BLK, _ARI_CsiIceAudToneStartReq_ENC, 
                       _ARI_CsiIceAudToneStartRespCb_Extract, _ARI_CsiIceAudToneStopReq_BLK, 
                       _ARI_CsiIceAudToneStopReq_ENC, _ARI_CsiIceAudToneStopRespCb_Extract, 
                       _ARI_CsiIceAudVocoderInfoIndCb_Extract, _ARI_CsiIceAudVocoderInfoReq_BLK, 
                       _ARI_CsiIceAudVocoderInfoReq_ENC, _ARI_CsiIceAudVocoderInfoRespCb_Extract, 
                       _ARI_CsiIceBBSleepEnableReq_BLK, _ARI_CsiIceBBSleepEnableReq_ENC, 
                       _ARI_CsiIceBBSleepEnableRspCb_Extract, _ARI_CsiIceBBTxStateIndEnableReq_BLK, 
                       _ARI_CsiIceBBTxStateIndEnableReq_ENC, _ARI_CsiIceBBTxStateIndEnableRspCb_Extract, 
                       _ARI_CsiIceBBTxStateInd_Extract, _ARI_CsiIceBspSetApWakeIntervalReq_BLK, 
                       _ARI_CsiIceBspSetApWakeIntervalReq_ENC, _ARI_CsiIceBspSetApWakeIntervalRspCb_Extract, 
                       _ARI_CsiIceBspWakeInd_Extract, _ARI_CsiIceCaEnableReq_BLK, 
                       _ARI_CsiIceCaEnableReq_ENC, _ARI_CsiIceCaEnableRspCb_Extract, 
                       _ARI_CsiIceCltmReq_BLK, _ARI_CsiIceCltmReq_ENC, _ARI_CsiIceCltmRspCb_Extract, 
                       _ARI_CsiIceFilerReadReq_BLK, _ARI_CsiIceFilerReadReq_ENC, 
                       _ARI_CsiIceFilerReadRspCb_Extract, _ARI_CsiIceFilerWriteReq_BLK, 
                       _ARI_CsiIceFilerWriteReq_ENC, _ARI_CsiIceFilerWriteRspCb_Extract, 
                       _ARI_CsiIceFinishProvisionReq_BLK, _ARI_CsiIceFinishProvisionReq_ENC, 
                       _ARI_CsiIceFinishProvisionResp_Extract, _ARI_CsiIceGetAntennaStateReq_BLK, 
                       _ARI_CsiIceGetAntennaStateReq_ENC, _ARI_CsiIceGetAntennaStateRspCb_Extract, 
                       _ARI_CsiIceGetArfcnLockReq_BLK, _ARI_CsiIceGetArfcnLockReq_ENC, 
                       _ARI_CsiIceGetArfcnLockRspCb_Extract, _ARI_CsiIceGetArtdSettingReq_BLK, 
                       _ARI_CsiIceGetArtdSettingReq_ENC, _ARI_CsiIceGetArtdSettingRspCb_Extract, 
                       _ARI_CsiIceGetCaEnableReq_BLK, _ARI_CsiIceGetCaEnableReq_ENC, 
                       _ARI_CsiIceGetCaEnableRspCb_Extract, _ARI_CsiIceGetFactoryDebugEnabledReq_BLK, 
                       _ARI_CsiIceGetFactoryDebugEnabledReq_ENC, _ARI_CsiIceGetFactoryDebugEnabledResp_Extract, 
                       _ARI_CsiIceGetManifestStatusReq_BLK, _ARI_CsiIceGetManifestStatusReq_ENC, 
                       _ARI_CsiIceGetManifestStatusResp_Extract, _ARI_CsiIceGetRxDiversityReq_BLK, 
                       _ARI_CsiIceGetRxDiversityReq_ENC, _ARI_CsiIceGetRxDiversityRspCb_Extract, 
                       _ARI_CsiIceGetTxAntennaReq_BLK, _ARI_CsiIceGetTxAntennaReq_ENC, 
                       _ARI_CsiIceGetTxAntennaRspCb_Extract, _ARI_CsiIceGpsStateReq_BLK, 
                       _ARI_CsiIceGpsStateReq_ENC, _ARI_CsiIceGpsStateRspCb_Extract, 
                       _ARI_CsiIceGripStateReq_BLK, _ARI_CsiIceGripStateReq_ENC, 
                       _ARI_CsiIceGripStateRspCb_Extract, _ARI_CsiIceHearingAidReq_BLK, 
                       _ARI_CsiIceHearingAidReq_ENC, _ARI_CsiIceHearingAidRspCb_Extract, 
                       _ARI_CsiIcePowerSourceStateReq_BLK, _ARI_CsiIcePowerSourceStateReq_ENC, 
                       _ARI_CsiIcePowerSourceStateRspCb_Extract, _ARI_CsiIceRxDiversityReq_BLK, 
                       _ARI_CsiIceRxDiversityReq_ENC, _ARI_CsiIceRxDiversityRspCb_Extract, 
                       _ARI_CsiIceSarEnableReq_BLK, _ARI_CsiIceSarEnableReq_ENC, 
                       _ARI_CsiIceSarEnableRspCb_Extract, _ARI_CsiIceSarReq_BLK, 
                       _ARI_CsiIceSarReq_ENC, _ARI_CsiIceSarRspCb_Extract, _ARI_CsiIceSarWaitTimeReq_BLK, 
                       _ARI_CsiIceSarWaitTimeReq_ENC, _ARI_CsiIceSarWaitTimeRspCb_Extract, 
                       _ARI_CsiIceSecActivationRegisterIndCb_Extract, _ARI_CsiIceSecActivationRegisterReq_BLK, 
                       _ARI_CsiIceSecActivationRegisterReq_ENC, _ARI_CsiIceSecActivationRegisterRespCb_Extract, 
                       _ARI_CsiIceSecActivationTicketSetReq_BLK, _ARI_CsiIceSecActivationTicketSetReq_ENC, 
                       _ARI_CsiIceSecActivationTicketSetRespCb_Extract, _ARI_CsiIceSetTxAntennaReq_BLK, 
                       _ARI_CsiIceSetTxAntennaReq_ENC, _ARI_CsiIceSetTxAntennaRspCb_Extract, 
                       _ARI_CsiIceSpeakerStateReq_BLK, _ARI_CsiIceSpeakerStateReq_ENC, 
                       _ARI_CsiIceSpeakerStateRspCb_Extract, _ARI_CsiIceStartProvisionReq_BLK, 
                       _ARI_CsiIceStartProvisionReq_ENC, _ARI_CsiIceStartProvisionResp_Extract, 
                       _ARI_CsiIceTemperatureCloseReq_BLK, _ARI_CsiIceTemperatureCloseReq_ENC, 
                       _ARI_CsiIceTemperatureCloseRspCb_Extract, _ARI_CsiIceTemperatureIndCb_Extract, 
                       _ARI_CsiIceTemperatureReq_BLK, _ARI_CsiIceTemperatureReq_ENC, 
                       _ARI_CsiIceTemperatureRspCb_Extract, _ARI_CsiIceWakeupReasonReq_BLK, 
                       _ARI_CsiIceWakeupReasonReq_ENC, _ARI_CsiIceWakeupReasonRspCb_Extract, 
                       _ARI_CsiIdcCellConfigEventIndCb_Extract, _ARI_CsiIdcControlEventReq_BLK, 
                       _ARI_CsiIdcControlEventReq_ENC, _ARI_CsiIdcControlEventRspCb_Extract, 
                       _ARI_CsiIdcGetCellConfigReq_BLK, _ARI_CsiIdcGetCellConfigReq_ENC, 
                       _ARI_CsiIdcGetCellConfigRspCb_Extract, _ARI_CsiIdcGetUartType4StatsReq_BLK, 
                       _ARI_CsiIdcGetUartType4StatsReq_ENC, _ARI_CsiIdcRTArbiterStatsEventIndCb_Extract, 
                       _ARI_CsiIdcRTArbiterStatsRspCb_Extract, _ARI_CsiIdcRTControlWci2UartReq_BLK, 
                       _ARI_CsiIdcRTControlWci2UartReq_ENC, _ARI_CsiIdcRTControlWci2UartRsp_Extract, 
                       _ARI_CsiIdcRTGetArbiterStatsReq_BLK, _ARI_CsiIdcRTGetArbiterStatsReq_ENC, 
                       _ARI_CsiIdcRTGetLinkQualityReportReq_BLK, _ARI_CsiIdcRTGetLinkQualityReportReq_ENC, 
                       _ARI_CsiIdcRTGetLinkQualityReportRspCb_Extract, _ARI_CsiIdcRTGetUartActivityStatsReq_BLK, 
                       _ARI_CsiIdcRTGetUartActivityStatsReq_ENC, _ARI_CsiIdcRTLinkQualityReportEventIndCb_Extract, 
                       _ARI_CsiIdcRTSetArbiterStatsConfigReq_BLK, _ARI_CsiIdcRTSetArbiterStatsConfigReq_ENC, 
                       _ARI_CsiIdcRTSetArbiterStatsConfigRspCb_Extract, _ARI_CsiIdcRTSetLinkQualityReportConfigReq_BLK, 
                       _ARI_CsiIdcRTSetLinkQualityReportConfigReq_ENC, _ARI_CsiIdcRTSetLinkQualityReportRspCb_Extract, 
                       _ARI_CsiIdcRTSetScanFreqReq_BLK, _ARI_CsiIdcRTSetScanFreqReq_ENC, 
                       _ARI_CsiIdcRTSetScanFreqRspCb_Extract, _ARI_CsiIdcRTUartActivityStatsConfigReq_BLK, 
                       _ARI_CsiIdcRTUartActivityStatsConfigReq_ENC, _ARI_CsiIdcRTUartActivityStatsConfigRspCb_Extract, 
                       _ARI_CsiIdcRTUartActivityStatsEventIndCb_Extract, _ARI_CsiIdcRTUartActivityStatsRspCb_Extract, 
                       _ARI_CsiIdcSetRTConfigReq_BLK, _ARI_CsiIdcSetRTConfigReq_ENC, 
                       _ARI_CsiIdcSetRTConfigRspCb_Extract, _ARI_CsiIdcSetWifiStatusReq_BLK, 
                       _ARI_CsiIdcSetWifiStatusReq_ENC, _ARI_CsiIdcSetWifiStatusRspCb_Extract, 
                       _ARI_CsiIdcTestModeCmdReq_BLK, _ARI_CsiIdcTestModeCmdReq_ENC, 
                       _ARI_CsiIdcTestModeCmdRsp_Extract, _ARI_CsiIdcUartType4StatsConfigReq_BLK, 
                       _ARI_CsiIdcUartType4StatsConfigReq_ENC, _ARI_CsiIdcUartType4StatsConfigRspCb_Extract, 
                       _ARI_CsiIdcUartType4StatsEventIndCb_Extract, _ARI_CsiIdcUartType4StatsRspCb_Extract, 
                       _ARI_CsiIpcCtrlPathTestDataIndCb_Extract, _ARI_CsiIpcCtrlPathTestDataOpReq_BLK, 
                       _ARI_CsiIpcCtrlPathTestDataOpReq_ENC, _ARI_CsiIpcCtrlPathTestDataOpRspCb_Extract, 
                       _ARI_CsiIpcCtrlPathTestInitReq_BLK, _ARI_CsiIpcCtrlPathTestInitReq_ENC, 
                       _ARI_CsiIpcCtrlPathTestInitRspCb_Extract, _ARI_CsiIpcCtrlPathTestSendDataReq_BLK, 
                       _ARI_CsiIpcCtrlPathTestSendDataReq_ENC, _ARI_CsiIpcCtrlPathTestSendDataRspCb_Extract, 
                       _ARI_CsiIpcCtrlPathTestSrcCfgReq_BLK, _ARI_CsiIpcCtrlPathTestSrcCfgReq_ENC, 
                       _ARI_CsiIpcCtrlPathTestSrcCfgRspCb_Extract, _ARI_CsiIpcCtrlPathTestSrcReq_BLK, 
                       _ARI_CsiIpcCtrlPathTestSrcReq_ENC, _ARI_CsiIpcCtrlPathTestSrcRspCb_Extract, 
                       _ARI_CsiIpcCtrlPathTestUnInitReq_BLK, _ARI_CsiIpcCtrlPathTestUnInitReq_ENC, 
                       _ARI_CsiIpcCtrlPathTestUnInitRspCb_Extract, _ARI_CsiIpcGetLogBufferListReq_BLK, 
                       _ARI_CsiIpcGetLogBufferListReq_ENC, _ARI_CsiIpcGetLogBufferListRsp_Extract, 
                       _ARI_CsiIpcGetLogBufferReq_BLK, _ARI_CsiIpcGetLogBufferReq_ENC, 
                       _ARI_CsiIpcGetLogBufferRsp_Extract, _ARI_CsiModeGetReq_BLK, 
                       _ARI_CsiModeGetReq_ENC, _ARI_CsiModeGetRspCb_Extract, _ARI_CsiModeSetIndCb_Extract, 
                       _ARI_CsiModeSetReq_BLK, _ARI_CsiModeSetReq_ENC, _ARI_CsiModeSetRespCb_Extract, 
                       _ARI_CsiMonMemoryStatusReq_BLK, _ARI_CsiMonMemoryStatusReq_ENC, 
                       _ARI_CsiMonMemoryStatusRspCb_Extract, _ARI_CsiMsCpsGetCurrentBootStateReq_BLK, 
                       _ARI_CsiMsCpsGetCurrentBootStateReq_ENC, _ARI_CsiMsCpsGetCurrentBootStateRspCb_Extract, 
                       _ARI_CsiMsCpsReadImeiReq_BLK, _ARI_CsiMsCpsReadImeiReq_ENC, 
                       _ARI_CsiMsCpsReadImeiRspCb_Extract, _ARI_CsiMsSimCardPresenceReq_BLK, 
                       _ARI_CsiMsSimCardPresenceReq_ENC, _ARI_CsiMsSimCardPresenceRspCb_Extract, 
                       _ARI_CsiPowSleepSetSleepBlockerReq_BLK, _ARI_CsiPowSleepSetSleepBlockerReq_ENC, 
                       _ARI_CsiPowSleepSetSleepBlockerRspCb_Extract, _ARI_CsiSahClearCrashResportRspCb_Extract, 
                       _ARI_CsiSahClearExceptionStoreReq_BLK, _ARI_CsiSahClearExceptionStoreReq_ENC, 
                       _ARI_CsiSahGetCrashReportReq_BLK, _ARI_CsiSahGetCrashReportReq_ENC, 
                       _ARI_CsiSahGetCrashReportRspCb_Extract, _ARI_CsiSahGetDebugLogReq_BLK, 
                       _ARI_CsiSahGetDebugLogReq_ENC, _ARI_CsiSahGetDebugLogRspCb_Extract, 
                       _ARI_CsiSecGetChipIdReq_BLK, _ARI_CsiSecGetChipIdReq_ENC, 
                       _ARI_CsiSecGetChipIdRspCb_Extract, _ARI_CsiSecGetFusingStateReq_BLK, 
                       _ARI_CsiSecGetFusingStateReq_ENC, _ARI_CsiSecGetFusingStateRspCb_Extract, 
                       _ARI_CsiSecGetPkHashReq_BLK, _ARI_CsiSecGetPkHashReq_ENC, 
                       _ARI_CsiSecGetPkHashRspCb_Extract, _ARI_CsiSecGetRandomNumReq_BLK, 
                       _ARI_CsiSecGetRandomNumReq_ENC, _ARI_CsiSecGetRandomNumRspCb_Extract, 
                       _ARI_CsiSecGetSNUMReq_BLK, _ARI_CsiSecGetSNUMReq_ENC, _ARI_CsiSecGetSNUMRspCb_Extract, 
                       _ARI_CsiSysGetInfoReqV2_BLK, _ARI_CsiSysGetInfoReqV2_ENC, 
                       _ARI_CsiSysGetInfoReq_BLK, _ARI_CsiSysGetInfoReq_ENC, _ARI_CsiSysGetInfoRspCbV2_Extract, 
                       _ARI_CsiSysGetInfoRspCb_Extract, _ARI_CsiTraceAddMasksReq_BLK, 
                       _ARI_CsiTraceAddMasksReq_ENC, _ARI_CsiTraceAddMasksRspCb_Extract, 
                       _ARI_CsiTraceModeInitReq_BLK, _ARI_CsiTraceModeInitReq_ENC, 
                       _ARI_CsiTraceModeInitRspCb_Extract, _ARI_CsiTraceProfileInitReq_BLK, 
                       _ARI_CsiTraceProfileInitReq_ENC, _ARI_CsiTraceProfileInitRspCb_Extract, 
                       _ARI_CsiTraceProfilePacketsReq_BLK, _ARI_CsiTraceProfilePacketsReq_ENC, 
                       _ARI_CsiTraceProfilePacketsRspCb_Extract, _ARI_CsiTraceProfileSelectReq_BLK, 
                       _ARI_CsiTraceProfileSelectReq_ENC, _ARI_CsiTraceProfileSelectRspCb_Extract, 
                       _ARI_CsiXsioGetReq_BLK, _ARI_CsiXsioGetReq_ENC, _ARI_CsiXsioGetRspCb_Extract, 
                       _ARI_CsiXsioSetReq_BLK, _ARI_CsiXsioSetReq_ENC, _ARI_CsiXsioSetRspCb_Extract, 
                       _ARI_IBIApacsDataStatusReq_BLK, _ARI_IBIApacsDataStatusReq_ENC, 
                       _ARI_IBIApacsDataStatusRspCb_Extract, _ARI_IBICallCsAcceptCallReq_BLK, 
                       _ARI_IBICallCsAcceptCallReq_ENC, _ARI_IBICallCsAcceptCallRspCb_Extract, 
                       _ARI_IBICallCsAutoAnswerReq_BLK, _ARI_IBICallCsAutoAnswerReq_ENC, 
                       _ARI_IBICallCsAutoAnswerRspCb_Extract, _ARI_IBICallCsCallStatusIndCb_Extract, 
                       _ARI_IBICallCsCallingNameInfoIndCb_Extract, _ARI_IBICallCsCrssReq_BLK, 
                       _ARI_IBICallCsCrssReq_ENC, _ARI_IBICallCsCrssRspCb_Extract, 
                       _ARI_IBICallCsCtmInfoIndCb_Extract, _ARI_IBICallCsDisconnectedIndCb_Extract, 
                       _ARI_IBICallCsEmergencyCallIntermediateStatusIndCb_Extract, 
                       _ARI_IBICallCsEmergencyNumberListIndCb_Extract, _ARI_IBICallCsGetEccListReq_BLK, 
                       _ARI_IBICallCsGetEccListReq_ENC, _ARI_IBICallCsGetEccListRspCb_Extract, 
                       _ARI_IBICallCsGetSpeechCodecOrderReq_BLK, _ARI_IBICallCsGetSpeechCodecOrderReq_ENC, 
                       _ARI_IBICallCsGetSpeechCodecOrderRspCb_Extract, _ARI_IBICallCsGetTtyDeviceModeReq_V2_BLK, 
                       _ARI_IBICallCsGetTtyDeviceModeReq_V2_ENC, _ARI_IBICallCsGetTtyDeviceModeRspCb_V2_Extract, 
                       _ARI_IBICallCsHoldCallReq_BLK, _ARI_IBICallCsHoldCallReq_ENC, 
                       _ARI_IBICallCsHoldCallRspCb_Extract, _ARI_IBICallCsIncomingCallIndCb_Extract, 
                       _ARI_IBICallCsJoinCallsReq_BLK, _ARI_IBICallCsJoinCallsReq_ENC, 
                       _ARI_IBICallCsJoinCallsRspCb_Extract, _ARI_IBICallCsNotificationIndCb_Extract, 
                       _ARI_IBICallCsRedialSetupIndCb_Extract, _ARI_IBICallCsRedialStartedIndCb_Extract, 
                       _ARI_IBICallCsReleaseCallReq_BLK, _ARI_IBICallCsReleaseCallReq_ENC, 
                       _ARI_IBICallCsReleaseCallRspCb_Extract, _ARI_IBICallCsRetrieveCallReq_BLK, 
                       _ARI_IBICallCsRetrieveCallReq_ENC, _ARI_IBICallCsRetrieveCallRspCb_Extract, 
                       _ARI_IBICallCsSetClirModeReq_BLK, _ARI_IBICallCsSetSpeechCodecOrderReq_BLK, 
                       _ARI_IBICallCsSetSpeechCodecOrderReq_ENC, _ARI_IBICallCsSetSpeechCodecOrderRspCb_Extract, 
                       _ARI_IBICallCsSetTtyDeviceModeReq_BLK, _ARI_IBICallCsSetTtyDeviceModeReq_ENC, 
                       _ARI_IBICallCsSetTtyDeviceModeRspCb_Extract, _ARI_IBICallCsSetupCallRspCb_Extract, 
                       _ARI_IBICallCsSetupCallRspCb_V1_Extract, _ARI_IBICallCsSetupVoiceCallReq_BLK, 
                       _ARI_IBICallCsSetupVoiceCallReq_ENC, _ARI_IBICallCsSetupVoiceCallReq_V1_BLK, 
                       _ARI_IBICallCsSetupVoiceCallReq_V1_ENC, _ARI_IBICallCsSplitMptyReq_BLK, 
                       _ARI_IBICallCsSplitMptyReq_ENC, _ARI_IBICallCsSplitMptyRspCb_Extract, 
                       _ARI_IBICallCsStartDtmfIndCb_Extract, _ARI_IBICallCsStartDtmfReq_BLK, 
                       _ARI_IBICallCsStartDtmfReq_ENC, _ARI_IBICallCsStartDtmfRspCb_Extract, 
                       _ARI_IBICallCsStopDtmfExtRspCb_Extract, _ARI_IBICallCsStopDtmfIndCb_Extract, 
                       _ARI_IBICallCsStopDtmfReq_BLK, _ARI_IBICallCsStopDtmfReq_ENC, 
                       _ARI_IBICallCsSwapCallsReq_BLK, _ARI_IBICallCsSwapCallsReq_ENC, 
                       _ARI_IBICallCsSwapCallsRspCb_Extract, _ARI_IBICallCsTransferCallsReq_BLK, 
                       _ARI_IBICallCsTransferCallsReq_ENC, _ARI_IBICallCsTransferCallsRspCb_Extract, 
                       _ARI_IBICallCsVoimsSessionTransferReq_BLK, _ARI_IBICallCsVoimsSessionTransferReq_ENC, 
                       _ARI_IBICallCsVoimsSessionTransferRspCb_Extract, _ARI_IBICallCsVoimsSrvccHoStatusIndCb_Extract, 
                       _ARI_IBICallPsActivateStatusIndCb_Extract, _ARI_IBICallPsAllowMultiplePDNToSameApnReq_BLK, 
                       _ARI_IBICallPsAllowMultiplePDNToSameApnReq_ENC, _ARI_IBICallPsAllowMultiplePDNToSameApnRspCb_Extract, 
                       _ARI_IBICallPsAttachApnConfigRspCb_Extract, _ARI_IBICallPsDataCallStoppedIndCb_Extract, 
                       _ARI_IBICallPsDataPathSetupReq_BLK, _ARI_IBICallPsDataPathSetupReq_ENC, 
                       _ARI_IBICallPsDataPathSetupRspCb_Extract, _ARI_IBICallPsDataTransferTimeReq_BLK, 
                       _ARI_IBICallPsDataTransferTimeReq_ENC, _ARI_IBICallPsDataTransferTimeRspCb_Extract, 
                       _ARI_IBICallPsDeRegisterFT_BLK, _ARI_IBICallPsDropIPPackets_BLK, 
                       _ARI_IBICallPsFDBackOffTimeInd_Extract, _ARI_IBICallPsFlushDataReq_BLK, 
                       _ARI_IBICallPsFlushDataReq_ENC, _ARI_IBICallPsFlushDataRspCb_Extract, 
                       _ARI_IBICallPsIPV6AddrFormationSuccessReq_BLK, _ARI_IBICallPsIPV6AddrFormationSuccessReq_ENC, 
                       _ARI_IBICallPsIPV6AddrFormationSuccessRspCb_Extract, _ARI_IBICallPsImsTestModeIndCb_Extract, 
                       _ARI_IBICallPsImsTestModeReq_BLK, _ARI_IBICallPsImsTestModeReq_ENC, 
                       _ARI_IBICallPsImsTestModeRspCb_Extract, _ARI_IBICallPsLTEAttachApnConfigReq_BLK, 
                       _ARI_IBICallPsLTEAttachApnConfigReq_ENC, _ARI_IBICallPsLqmDataIndCb_Extract, 
                       _ARI_IBICallPsLqmQueryReq_BLK, _ARI_IBICallPsLqmQueryReq_ENC, 
                       _ARI_IBICallPsLqmQueryRsbCb_Extract, _ARI_IBICallPsLqmRegisterReq_BLK, 
                       _ARI_IBICallPsLqmRegisterReq_ENC, _ARI_IBICallPsLqmRegisterRspCb_Extract, 
                       _ARI_IBICallPsLteAttachIndCb_Extract, _ARI_IBICallPsModifyIndCb_Extract, 
                       _ARI_IBICallPsNotificationIndCb_Extract, _ARI_IBICallPsPdnStats_BLK, 
                       _ARI_IBICallPsRegisterFT_BLK, _ARI_IBICallPsResumeIndCb_Extract, 
                       _ARI_IBICallPsSetKeepaliveOffloadReq_BLK, _ARI_IBICallPsSetKeepaliveOffloadReq_ENC, 
                       _ARI_IBICallPsSetKeepaliveOffloadRspCb_Extract, _ARI_IBICallPsStartDataCallReq_BLK, 
                       _ARI_IBICallPsStartDataCallReq_ENC, _ARI_IBICallPsStartDataCallRspCb_Extract, 
                       _ARI_IBICallPsStopDataCallReq_BLK, _ARI_IBICallPsStopDataCallReq_ENC, 
                       _ARI_IBICallPsStopDataCallRspCb_Extract, _ARI_IBICallPsSuspendIndCb_Extract, 
                       _ARI_IBICallPsTrafficClassInfoRspCb_Extract, _ARI_IBICallPsTrafficClassInfo_BLK, 
                       _ARI_IBICallPsTrafficClassInfo_ENC, _ARI_IBICallPsVoiceLQMLinkStateInd_Extract, 
                       _ARI_IBICallPsVoiceLQMStateInd_Extract, _ARI_IBICallPsVoipAppInfoReq_BLK, 
                       _ARI_IBICallPsVoipAppInfoReq_ENC, _ARI_IBICallPsVoipAppInfoRspCb_Extract, 
                       _ARI_IBICbsConfigReq_BLK, _ARI_IBICbsConfigReq_ENC, _ARI_IBICbsConfigRspCb_Extract, 
                       _ARI_IBICbsEtwsNotifyPrimaryWarningInd_Extract, _ARI_IBICbsEtwsNotifySecondaryWarningInd_Extract, 
                       _ARI_IBICbsGetConfigReq_BLK, _ARI_IBICbsGetConfigReq_ENC, 
                       _ARI_IBICbsGetConfigRspCb_Extract, _ARI_IBICbsMsgIndCb_Extract, 
                       _ARI_IBICbsNewMessageIndCb_Extract, _ARI_IBICpsCellularPowerReportInd_Extract, 
                       _ARI_IBICpsConfigureCellularPowerReportReq_BLK, _ARI_IBICpsConfigureCellularPowerReportReq_ENC, 
                       _ARI_IBICpsConfigureCellularPowerReportRsp_Extract, _ARI_IBIImsMEConfigureAudioMediaReq_BLK, 
                       _ARI_IBIImsMEConfigureAudioMediaReq_ENC, _ARI_IBIImsMEConfigureAudioMediaRspCb_Extract, 
                       _ARI_IBIImsMEConfigureRTTMediaReq_BLK, _ARI_IBIImsMEConfigureRTTMediaReq_ENC, 
                       _ARI_IBIImsMEConfigureRTTMediaRspCb_Extract, _ARI_IBIImsMECreateAudioMediaSessionReq_BLK, 
                       _ARI_IBIImsMECreateAudioMediaSessionReq_ENC, _ARI_IBIImsMECreateAudioMediaSessionRspCb_Extract, 
                       _ARI_IBIImsMECreateRTTMediaSessionReq_BLK, _ARI_IBIImsMECreateRTTMediaSessionReq_ENC, 
                       _ARI_IBIImsMECreateRTTMediaSessionRspCb_Extract, _ARI_IBIImsMEGetMediaCapabilityReq_BLK, 
                       _ARI_IBIImsMEGetMediaCapabilityReq_ENC, _ARI_IBIImsMEGetMediaCapabilityRspCb_Extract, 
                       _ARI_IBIImsMEMediaSessionErrIndCb_Extract, _ARI_IBIImsMERtcpReceiverReportIndCb_Extract, 
                       _ARI_IBIImsMERtcpSDESReportIndCb_Extract, _ARI_IBIImsMERtcpSenderReportIndCb_Extract, 
                       _ARI_IBIImsMEStartDTMFCodeReq_BLK, _ARI_IBIImsMEStartDTMFCodeReq_ENC, 
                       _ARI_IBIImsMEStartDTMFCodeRspCb_Extract, _ARI_IBIImsMEStartMediaReq_BLK, 
                       _ARI_IBIImsMEStartMediaReq_ENC, _ARI_IBIImsMEStartMediaRspCb_Extract, 
                       _ARI_IBIImsMEStopDTMFCodeReq_BLK, _ARI_IBIImsMEStopDTMFCodeReq_ENC, 
                       _ARI_IBIImsMEStopDTMFCodeRspCb_Extract, _ARI_IBIImsMEStopMediaReq_BLK, 
                       _ARI_IBIImsMEStopMediaReq_ENC, _ARI_IBIImsMEStopMediaRspCb_Extract, 
                       _ARI_IBIImsMETerminateMediaSessionReq_BLK, _ARI_IBIImsMETerminateMediaSessionReq_ENC, 
                       _ARI_IBIImsMETerminateMediaSessionRspCb_Extract, _ARI_IBILapsFetchIndCb_Extract, 
                       _ARI_IBIMsAccCurrentFreqInfoIndCb_Extract, _ARI_IBIMsAccCurrentFreqInfoReq_BLK, 
                       _ARI_IBIMsAccCurrentFreqInfoReq_ENC, _ARI_IBIMsAccCurrentFreqInfoRspCb_Extract, 
                       _ARI_IBIMsCallCsVoimsProvideMMTelSessionStatusReq_BLK, _ARI_IBIMsCallCsVoimsProvideMMTelSessionStatusReq_ENC, 
                       _ARI_IBIMsCallCsVoimsProvideMMTelSessionStatusRspCb_Extract, 
                       _ARI_IBIMsCpAssistanceDataInjectReq_BLK, _ARI_IBIMsCpAssistanceDataInjectReq_ENC, 
                       _ARI_IBIMsCpAssistanceDataInjectRspCb_Extract, _ARI_IBIMsCpAssistanceDataNeededIndCb_Extract, 
                       _ARI_IBIMsCpPosDisableMeasurementReportReq_BLK, _ARI_IBIMsCpPosDisableMeasurementReportReq_ENC, 
                       _ARI_IBIMsCpPosDisableMeasurementReportReq_v1_BLK, _ARI_IBIMsCpPosDisableMeasurementReportReq_v1_ENC, 
                       _ARI_IBIMsCpPosDisableMeasurementReportRspCb_Extract, _ARI_IBIMsCpPosDisableMeasurementReportRspCb_v1_Extract, 
                       _ARI_IBIMsCpPosEnableMeasurementReportReq_BLK, _ARI_IBIMsCpPosEnableMeasurementReportReq_ENC, 
                       _ARI_IBIMsCpPosEnableMeasurementReportReq_v1_BLK, _ARI_IBIMsCpPosEnableMeasurementReportReq_v1_ENC, 
                       _ARI_IBIMsCpPosEnableMeasurementReportRspCb_Extract, _ARI_IBIMsCpPosEnableMeasurementReportRspCb_v1_Extract, 
                       _ARI_IBIMsCpPosMeasurementAbortReq_BLK, _ARI_IBIMsCpPosMeasurementAbortReq_ENC, 
                       _ARI_IBIMsCpPosMeasurementAbortRspCb_Extract, _ARI_IBIMsCpPosMeasurementReq_BLK, 
                       _ARI_IBIMsCpPosMeasurementReq_ENC, _ARI_IBIMsCpPosMeasurementRspCb_Extract, 
                       _ARI_IBIMsCpPosReportMeasurementIndCb_Extract, _ARI_IBIMsCpPosReportMeasurementIndCb_v1_Extract, 
                       _ARI_IBIMsCpResetAssistanceDataReq_BLK, _ARI_IBIMsCpResetAssistanceDataReq_ENC, 
                       _ARI_IBIMsCpResetAssistanceDataRspCb_Extract, _ARI_IBIMsLpAssistanceDataErrorIndCb_Extract, 
                       _ARI_IBIMsLpDiscardedPosSessionIndCb_Extract, _ARI_IBIMsLpGanssAcquisitionAssistanceIndCb_Extract, 
                       _ARI_IBIMsLpGanssAddUtcModelIndCb_Extract, _ARI_IBIMsLpGanssAdditionalIonosphericModelIndCb_Extract, 
                       _ARI_IBIMsLpGanssAuxiliaryInfoIndCb_Extract, _ARI_IBIMsLpGanssRealTimeIntegrityIndCb_Extract, 
                       _ARI_IBIMsLpGanssReferenceLocationIndCb_Extract, _ARI_IBIMsLpGanssReferenceTimeIndCb_Extract, 
                       _ARI_IBIMsLpGanssTimeModelIndCb_Extract, _ARI_IBIMsLpGlonassAlmanacIndCb_Extract, 
                       _ARI_IBIMsLpGlonassNavigationModelIndCb_Extract, _ARI_IBIMsLpGnssAbortCnfAckCb_Extract, 
                       _ARI_IBIMsLpGnssAbortCnf_BLK, _ARI_IBIMsLpGnssAbortCnf_ENC, 
                       _ARI_IBIMsLpGnssAbortReqCb_Extract, _ARI_IBIMsLpGnssSuspendIndCb_Extract, 
                       _ARI_IBIMsLpGpsAcquisitionAssistanceIndCb_Extract, _ARI_IBIMsLpGpsAlmanacIndCb_Extract, 
                       _ARI_IBIMsLpGpsDgpsCorrectionsIndCb_Extract, _ARI_IBIMsLpGpsIonosphericModelIndCb_Extract, 
                       _ARI_IBIMsLpGpsNavigationModelIndCb_Extract, _ARI_IBIMsLpGpsRealTimeIntegrityIndCb_Extract, 
                       _ARI_IBIMsLpGpsReferenceLocationIndCb_Extract, _ARI_IBIMsLpGpsReferenceTimeIndCb_Extract, 
                       _ARI_IBIMsLpGpsUtcModelIndCb_Extract, _ARI_IBIMsLpMeasurePositionAssistanceRequestRspAckCb_Extract, 
                       _ARI_IBIMsLpMeasurePositionAssistanceRequestRsp_BLK, _ARI_IBIMsLpMeasurePositionAssistanceRequestRsp_ENC, 
                       _ARI_IBIMsLpMeasurePositionLocationInfoRspAckCb_Extract, _ARI_IBIMsLpMeasurePositionLocationInfoRsp_BLK, 
                       _ARI_IBIMsLpMeasurePositionLocationInfoRsp_ENC, _ARI_IBIMsLpMeasurePositionMeasurementsRspAckCb_Extract, 
                       _ARI_IBIMsLpMeasurePositionMeasurementsRsp_BLK, _ARI_IBIMsLpMeasurePositionMeasurementsRsp_ENC, 
                       _ARI_IBIMsLpMeasurePositionMeasurementsShortRspAckCb_Extract, 
                       _ARI_IBIMsLpMeasurePositionMeasurementsShortRsp_BLK, _ARI_IBIMsLpMeasurePositionMeasurementsShortRsp_ENC, 
                       _ARI_IBIMsLpMeasurePositionReqCb_Extract, _ARI_IBIMsLpPosLocationRequestStatusIndCb_Extract, 
                       _ARI_IBIMsLpResetGnssAssistanceDataCb_Extract, _ARI_IBIMsNetIceCsgAsfSearchCnfCb_Extract, 
                       _ARI_IBIMsNetIceCsgAsfSearchReq_BLK, _ARI_IBIMsNetIceCsgAsfSearchReq_ENC, 
                       _ARI_IBIMsNetSrvccConfigurationStatusIndCb_Extract, _ARI_IBIMsSimSetSmsTagReq_BLK, 
                       _ARI_IBIMsSimSetSmsTagReq_ENC, _ARI_IBIMsSsLcsMtlrNotificationIndCb_Extract, 
                       _ARI_IBIMsSsLcsMtlrNotificationRspAckCb_Extract, _ARI_IBIMsSsLcsMtlrNotificationRsp_BLK, 
                       _ARI_IBIMsSsLcsMtlrNotificationRsp_ENC, _ARI_IBIMsSsLcsMtlrRejectIndCb_Extract, 
                       _ARI_IBIMsSsLcsPositioningCapabilityReq_BLK, _ARI_IBIMsSsLcsPositioningCapabilityReq_ENC, 
                       _ARI_IBIMsSsLcsPositioningCapabilityRspCb_Extract, _ARI_IBINetAttachReq_V1_BLK, 
                       _ARI_IBINetAttachReq_V1_ENC, _ARI_IBINetAttachRspCb_V1_Extract, 
                       _ARI_IBINetBandStatusIndCb_Extract, _ARI_IBINetBandStatusReq_BLK, 
                       _ARI_IBINetBandStatusReq_ENC, _ARI_IBINetBandStatusRspCb_Extract, 
                       _ARI_IBINetCellInfoIndCb_Extract, _ARI_IBINetCellLteAcBarringStatusIndCb_Extract, 
                       _ARI_IBINetConfigureNetworkModeReq_BLK, _ARI_IBINetConfigureNetworkModeReq_ENC, 
                       _ARI_IBINetConfigureNetworkModeRspCb_Extract, _ARI_IBINetConnectionInfoIndCb_Extract, 
                       _ARI_IBINetDcGetVoiceDomainPreferenceConfigurationReq_BLK, 
                       _ARI_IBINetDcGetVoiceDomainPreferenceConfigurationReq_ENC, 
                       _ARI_IBINetDcGetVoiceDomainPreferenceConfigurationRspCb_Extract, 
                       _ARI_IBINetDcImsGetImsRegStatusInfoReq_BLK, _ARI_IBINetDcImsGetImsRegStatusInfoReq_ENC, 
                       _ARI_IBINetDcImsGetImsRegStatusInfoRspCb_Extract, _ARI_IBINetDcImsProvideImsRegStatusInfo_BLK, 
                       _ARI_IBINetDcImsProvideImsRegStatusInfo_ENC, _ARI_IBINetDcImsProvideImsRegStatusRspCb_Extract, 
                       _ARI_IBINetDcImsRegistrationStatusInfoReq_BLK, _ARI_IBINetDcImsRegistrationStatusInfoReq_ENC, 
                       _ARI_IBINetDcImsRegistrationStatusInfoRspCb_Extract, _ARI_IBINetDcImsVoiceTerminationConfigIndCb_Extract, 
                       _ARI_IBINetDcSetVoiceDomainPreferenceConfigReq_BLK, _ARI_IBINetDcSetVoiceDomainPreferenceConfigReq_ENC, 
                       _ARI_IBINetDcSetVoiceDomainPreferenceConfigRspCb_Extract, 
                       _ARI_IBINetDcSsacBarringInfoIndCb_Extract, _ARI_IBINetDcSsacBarringInfoReq_BLK, 
                       _ARI_IBINetDcSsacBarringInfoReq_ENC, _ARI_IBINetDcSsacBarringInfoRspCb_Extract, 
                       _ARI_IBINetDetachReq_BLK, _ARI_IBINetDetachReq_ENC, _ARI_IBINetDetachRspCb_Extract, 
                       _ARI_IBINetEmergencyCellEndReq_BLK, _ARI_IBINetEmergencyCellEndReq_ENC, 
                       _ARI_IBINetEmergencyCellEndRspCb_Extract, _ARI_IBINetEmergencyCellSearchFailIndCb_Extract, 
                       _ARI_IBINetGetAcBarringInfoReq_BLK, _ARI_IBINetGetAcBarringInfoReq_ENC, 
                       _ARI_IBINetGetAcBarringInfoRspCb_Extract, _ARI_IBINetGetCellInfoIndCbV1_Extract, 
                       _ARI_IBINetGetCellInfoIndCb_Extract, _ARI_IBINetGetCellInfoReqV1_BLK, 
                       _ARI_IBINetGetCellInfoReqV1_ENC, _ARI_IBINetGetCellInfoReq_BLK, 
                       _ARI_IBINetGetCellInfoReq_ENC, _ARI_IBINetGetCellInfoRespCbV1_Extract, 
                       _ARI_IBINetGetCellInfoRespCb_Extract, _ARI_IBINetGetCurrCellInfoReq_BLK, 
                       _ARI_IBINetGetCurrCellInfoReq_ENC, _ARI_IBINetGetCurrCellInfoRspCb_Extract, 
                       _ARI_IBINetGetEmergencyCellIndCb_Extract, _ARI_IBINetGetEmergencyCellInfoReq_BLK, 
                       _ARI_IBINetGetEmergencyCellInfoReq_ENC, _ARI_IBINetGetEmergencyCellInfoRspCb_Extract, 
                       _ARI_IBINetGetEmergencyCellReq_BLK, _ARI_IBINetGetEmergencyCellReq_ENC, 
                       _ARI_IBINetGetEmergencyCellRspCb_Extract, _ARI_IBINetGetPlmnNameInfoIndCb_Extract, 
                       _ARI_IBINetGetPlmnNameInfoReq_V1_BLK, _ARI_IBINetGetPlmnNameInfoReq_V1_ENC, 
                       _ARI_IBINetGetPlmnNameInfoRspCb_V1_Extract, _ARI_IBINetGetRegistrationInfoReq_BLK, 
                       _ARI_IBINetGetRegistrationInfoReq_ENC, _ARI_IBINetGetRegistrationInfoRspCb_Extract, 
                       _ARI_IBINetGetRrcConnStateInfoReq_BLK, _ARI_IBINetGetRrcConnStateInfoReq_ENC, 
                       _ARI_IBINetGetRrcConnStateInfoRspCb_Extract, _ARI_IBINetIceApStatusReq_BLK, 
                       _ARI_IBINetIceApStatusReq_ENC, _ARI_IBINetIceApStatusRspCb_Extract, 
                       _ARI_IBINetIceCellularSwitchStatusReq_BLK, _ARI_IBINetIceCellularSwitchStatusReq_ENC, 
                       _ARI_IBINetIceCellularSwitchStatusRspCb_Extract, _ARI_IBINetIceFdReportIndCb_Extract, 
                       _ARI_IBINetIceFdStatusCnfCb_Extract, _ARI_IBINetIceFdStatusReq_BLK, 
                       _ARI_IBINetIceFdStatusReq_ENC, _ARI_IBINetIceManualPlmnModeIndCb_Extract, 
                       _ARI_IBINetIceSingleShotFdReq_BLK, _ARI_IBINetIceSingleShotFdReq_ENC, 
                       _ARI_IBINetIncrementalScanIndCb_Extract, _ARI_IBINetIncrementalScanReq_BLK, 
                       _ARI_IBINetIncrementalScanReq_ENC, _ARI_IBINetIncrementalScanRspCb_Extract, 
                       _ARI_IBINetNetworkFeatureSupportInfoIndCb_Extract, _ARI_IBINetNetworkModeChangeIndCb_Extract, 
                       _ARI_IBINetNitzInfoIndCb_V1_Extract, _ARI_IBINetPowerDownCnfCb_Extract, 
                       _ARI_IBINetPowerDownReq_BLK, _ARI_IBINetPowerDownReq_ENC, 
                       _ARI_IBINetRadioSignalIndCb_Extract, _ARI_IBINetRatModeStatusIndCb_Extract, 
                       _ARI_IBINetRatModeStatusReq_BLK, _ARI_IBINetRatModeStatusReq_ENC, 
                       _ARI_IBINetRatModeStatusRspCb_Extract, _ARI_IBINetRatSwitchStatusReport_BLK, 
                       _ARI_IBINetRegisteredPlmnNameIndCb_V1_Extract, _ARI_IBINetRegistrationInfoIndCb_Extract, 
                       _ARI_IBINetSelectPreferredService_BLK, _ARI_IBINetSetRadioSignalReportingConfiguration_BLK, 
                       _ARI_IBINetSetRadioSignalReporting_BLK, _ARI_IBINetSingleShotFdRspCb_Extract, 
                       _ARI_IBINetSingleShotRadioSignalReportingReq_BLK, _ARI_IBINetSingleShotRadioSignalReportingReq_ENC, 
                       _ARI_IBINetSingleShotRadioSignalReportingRspCb_Extract, _ARI_IBINetSwapRatSettingsReq_BLK, 
                       _ARI_IBINetSwapRatSettingsReq_ENC, _ARI_IBINetSwapRatSettingsRspCb_Extract, 
                       _ARI_IBINetTimerInfoIndCb_Extract, _ARI_IBIP2PMessageIndCb_Extract, 
                       _ARI_IBIP2PProximityStatusReq_BLK, _ARI_IBIP2PProximityStatusReq_ENC, 
                       _ARI_IBIP2PProximityStatusRspCb_Extract, _ARI_IBIPriWriteReq_BLK, 
                       _ARI_IBIPriWriteReq_ENC, _ARI_IBIPriWriteReq_V2_BLK, _ARI_IBIPriWriteReq_V2_ENC, 
                       _ARI_IBIPriWriteRspCb_Extract, _ARI_IBIPriWriteRspCb_V2_Extract, 
                       _ARI_IBIPriWriteStatusIndCb_Extract, _ARI_IBISendApacsDataReq_BLK, 
                       _ARI_IBISendApacsDataReq_ENC, _ARI_IBISendApacsDataRspCb_Extract, 
                       _ARI_IBISetFilterReq_BLK, _ARI_IBISetFilterReq_ENC, _ARI_IBISetFilterRspCb_Extract, 
                       _ARI_IBISetRtcEpochTimeReq_BLK, _ARI_IBISetRtcEpochTimeReq_ENC, 
                       _ARI_IBISetRtcEpochTimeRspCb_Extract, _ARI_IBISimAccessApduCmdReq_BLK, 
                       _ARI_IBISimAccessApduCmdReq_ENC, _ARI_IBISimAccessApduCmdRspCb_Extract, 
                       _ARI_IBISimAccessFcpReq_BLK, _ARI_IBISimAccessFcpReq_ENC, 
                       _ARI_IBISimAccessFcpRspCb_Extract, _ARI_IBISimAccessGetSimDataIndCb_Extract, 
                       _ARI_IBISimAccessGetSimDataReq_BLK, _ARI_IBISimAccessGetSimDataReq_ENC, 
                       _ARI_IBISimAccessGetSimDataRspCb_Extract, _ARI_IBISimAccessReadBinaryReq_BLK, 
                       _ARI_IBISimAccessReadBinaryReq_ENC, _ARI_IBISimAccessReadBinaryRspCb_Extract, 
                       _ARI_IBISimAccessReadRecordReq_BLK, _ARI_IBISimAccessReadRecordReq_ENC, 
                       _ARI_IBISimAccessReadRecordRspCb_Extract, _ARI_IBISimAccessUpdateBinaryReq_BLK, 
                       _ARI_IBISimAccessUpdateBinaryReq_ENC, _ARI_IBISimAccessUpdateBinaryRspCb_Extract, 
                       _ARI_IBISimAccessUpdateRecordReq_BLK, _ARI_IBISimAccessUpdateRecordReq_ENC, 
                       _ARI_IBISimAccessUpdateRecordRspCb_Extract, _ARI_IBISimApplicationReq_BLK, 
                       _ARI_IBISimApplicationReq_ENC, _ARI_IBISimApplicationRspCb_Extract, 
                       _ARI_IBISimAuthReq_BLK, _ARI_IBISimAuthReq_ENC, _ARI_IBISimAuthRspCb_Extract, 
                       _ARI_IBISimCloseChannelReq_BLK, _ARI_IBISimCloseChannelReq_ENC, 
                       _ARI_IBISimCloseChannelRspCb_Extract, _ARI_IBISimEccListIndCb_Extract, 
                       _ARI_IBISimErrorIndCb_Extract, _ARI_IBISimExtSimlockIndCb_Extract, 
                       _ARI_IBISimExtendedAuthReq_BLK, _ARI_IBISimExtendedAuthReq_ENC, 
                       _ARI_IBISimExtendedAuthRspCb_Extract, _ARI_IBISimFdnListIndCb_Extract, 
                       _ARI_IBISimFdnStateIndCbNew_Extract, _ARI_IBISimFileReadBinaryReq_BLK, 
                       _ARI_IBISimFileReadBinaryReq_ENC, _ARI_IBISimFileReadBinaryRspCb_Extract, 
                       _ARI_IBISimFileUpdateBinaryReq_BLK, _ARI_IBISimFileUpdateBinaryReq_ENC, 
                       _ARI_IBISimFileUpdateBinaryRspCb_Extract, _ARI_IBISimFullAccessIndCb_Extract, 
                       _ARI_IBISimGenPinReq_BLK, _ARI_IBISimGenPinReq_ENC, _ARI_IBISimGenPinRspCb_Extract, 
                       _ARI_IBISimGetEccListReq_BLK, _ARI_IBISimGetEccListReq_ENC, 
                       _ARI_IBISimGetEccListRspCb_Extract, _ARI_IBISimGetEfMwisParamsReq_BLK, 
                       _ARI_IBISimGetEfMwisParamsReq_ENC, _ARI_IBISimGetEfMwisParamsRspCb_Extract, 
                       _ARI_IBISimGetEfSmsReq_BLK, _ARI_IBISimGetEfSmsReq_ENC, _ARI_IBISimGetEfSmsRspCb_Extract, 
                       _ARI_IBISimGetFdnListReq_BLK, _ARI_IBISimGetFdnListReq_ENC, 
                       _ARI_IBISimGetFdnListRspCb_Extract, _ARI_IBISimGetFullAccessStatusReq_BLK, 
                       _ARI_IBISimGetFullAccessStatusReq_ENC, _ARI_IBISimGetFullAccessStatusRspCb_Extract, 
                       _ARI_IBISimGetMsgListReq_BLK, _ARI_IBISimGetMsgListReq_ENC, 
                       _ARI_IBISimGetMsgListRspCb_Extract, _ARI_IBISimGetPlmnModeBitReq_BLK, 
                       _ARI_IBISimGetPlmnModeBitReq_ENC, _ARI_IBISimGetPlmnModeBitRspCb_Extract, 
                       _ARI_IBISimGetSmscAddressReq_BLK, _ARI_IBISimGetSmscAddressReq_ENC, 
                       _ARI_IBISimGetSmscAddressRspCb_Extract, _ARI_IBISimHwEventIndCb_Extract, 
                       _ARI_IBISimMsgListIndCb_Extract, _ARI_IBISimMsgWaitIndicatorIndCb_Extract, 
                       _ARI_IBISimOpenChannelReq_BLK, _ARI_IBISimOpenChannelReq_ENC, 
                       _ARI_IBISimOpenChannelRspCb_Extract, _ARI_IBISimPbCacheLoadIndCb_Extract, 
                       _ARI_IBISimPbGetFreeRecordsReq_BLK, _ARI_IBISimPbGetFreeRecordsReq_ENC, 
                       _ARI_IBISimPbGetFreeRecordsRspCb_Extract, _ARI_IBISimPbGetLocationRspCb_Extract, 
                       _ARI_IBISimPbGetLocationRspCb_V1_Extract, _ARI_IBISimPbGetMetaInformationIndCb_V1_Extract, 
                       _ARI_IBISimPbGetMetaInformationReq_BLK, _ARI_IBISimPbGetMetaInformationReq_ENC, 
                       _ARI_IBISimPbGetMetaInformationReq_V1_BLK, _ARI_IBISimPbGetMetaInformationReq_V1_ENC, 
                       _ARI_IBISimPbGetMetaInformationRspCb_Extract, _ARI_IBISimPbGetMetaInformationRspCb_V1_Extract, 
                       _ARI_IBISimPbLocationIndCb_V1_Extract, _ARI_IBISimPbLocationReq_BLK, 
                       _ARI_IBISimPbLocationReq_ENC, _ARI_IBISimPbLocationReq_V1_BLK, 
                       _ARI_IBISimPbLocationReq_V1_ENC, _ARI_IBISimPbReadAnrEntryIndCb_Extract, 
                       _ARI_IBISimPbReadEmailEntryIndCb_Extract, _ARI_IBISimPbReadEntryReq_BLK, 
                       _ARI_IBISimPbReadEntryReq_ENC, _ARI_IBISimPbReadEntryRspCb_Extract, 
                       _ARI_IBISimPbReadSneEntryIndCb_Extract, _ARI_IBISimPbUsimPbReadyIndCb_Extract, 
                       _ARI_IBISimPbUsimPbSelectIndCb_V1_Extract, _ARI_IBISimPbUsimPbSelectReq_BLK, 
                       _ARI_IBISimPbUsimPbSelectReq_ENC, _ARI_IBISimPbUsimPbSelectReq_V1_BLK, 
                       _ARI_IBISimPbUsimPbSelectReq_V1_ENC, _ARI_IBISimPbUsimPbSelectRspCb_Extract, 
                       _ARI_IBISimPbUsimPbSelectRspCb_V1_Extract, _ARI_IBISimPbWriteEntryReq_BLK, 
                       _ARI_IBISimPbWriteEntryReq_ENC, _ARI_IBISimPbWriteEntryRspCb_Extract, 
                       _ARI_IBISimPlmnModeBitIndCb_Extract, _ARI_IBISimSetEfMwisParamsReq_BLK, 
                       _ARI_IBISimSetEfMwisParamsReq_ENC, _ARI_IBISimSetEfMwisParamsRspCb_Extract, 
                       _ARI_IBISimSetFdnReq_BLK, _ARI_IBISimSetFdnReq_ENC, _ARI_IBISimSetFdnRspCb_Extract, 
                       _ARI_IBISimSetSmsTagRspCb_Extract, _ARI_IBISimSetSmscAddressReq_BLK, 
                       _ARI_IBISimSetSmscAddressReq_ENC, _ARI_IBISimSetSmscAddressRspCb_Extract, 
                       _ARI_IBISimSmscAddressIndCb_Extract, _ARI_IBISimTestReq_BLK, 
                       _ARI_IBISimTestReq_ENC, _ARI_IBISimTestRspCb_Extract, _ARI_IBISimTkCallControlInfoIndCb_Extract, 
                       _ARI_IBISimTkConfigureStkCmdReq_BLK, _ARI_IBISimTkConfigureStkCmdReq_ENC, 
                       _ARI_IBISimTkConfigureStkCmdRspCb_Extract, _ARI_IBISimTkEnvelopeCommandReq_BLK, 
                       _ARI_IBISimTkEnvelopeCommandReq_ENC, _ARI_IBISimTkEnvelopeCommandRspCb_Extract, 
                       _ARI_IBISimTkExecStkCmdIndCb_Extract, _ARI_IBISimTkExecStkCmdRsp_BLK, 
                       _ARI_IBISimTkImsCallControlReq_BLK, _ARI_IBISimTkImsCallControlReq_ENC, 
                       _ARI_IBISimTkImsCallControlRspCb_Extract, _ARI_IBISimTkInit_BLK, 
                       _ARI_IBISimTkMoSmsControlInfoIndCb_Extract, _ARI_IBISimTkProactiveCmdIndCb_Extract, 
                       _ARI_IBISimTkRefreshConfirmIndCb_Extract, _ARI_IBISimTkRefreshConfirmRsp_BLK, 
                       _ARI_IBISimTkRefreshFcnIndCb_Extract, _ARI_IBISimTkRefreshFcnRsp_BLK, 
                       _ARI_IBISimTkRefreshQueryIndCb_Extract, _ARI_IBISimTkRefreshQueryRsp_BLK, 
                       _ARI_IBISimTkResetCompletedIndCb_Extract, _ARI_IBISimTkResetConfirmIndCb_Extract, 
                       _ARI_IBISimTkResetConfirmRsp_BLK, _ARI_IBISimTkResetQueryIndCb_Extract, 
                       _ARI_IBISimTkResetQueryRsp_BLK, _ARI_IBISimTkSetRequiredFcnListReq_BLK, 
                       _ARI_IBISimTkSetRequiredFcnListReq_ENC, _ARI_IBISimTkSetRequiredFcnListRspCb_Extract, 
                       _ARI_IBISimTkTerminalResponse_BLK, _ARI_IBISipMessageInjectToCpTrace_BLK, 
                       _ARI_IBISmsConfirmSmsDataDownloadAck_BLK, _ARI_IBISmsDataDownloadReq_BLK, 
                       _ARI_IBISmsDataDownloadReq_ENC, _ARI_IBISmsDataDownloadRspCb_Extract, 
                       _ARI_IBISmsDeliverySessionStatusCb_Extract, _ARI_IBISmsGetMsgWaitIndReq_BLK, 
                       _ARI_IBISmsGetMsgWaitIndReq_ENC, _ARI_IBISmsGetMsgWaitIndRspCb_Extract, 
                       _ARI_IBISmsGetServiceStatusReq_BLK, _ARI_IBISmsGetServiceStatusReq_ENC, 
                       _ARI_IBISmsGetServiceStatusRspCb_Extract, _ARI_IBISmsIncomingIndCb_Extract, 
                       _ARI_IBISmsIncomingSmsAck_BLK, _ARI_IBISmsIncomingSmsAck_ENC, 
                       _ARI_IBISmsQueryMoreMessagesStatusReq_BLK, _ARI_IBISmsQueryMoreMessagesStatusReq_ENC, 
                       _ARI_IBISmsQueryMoreMessagesStatusRspCb_Extract, _ARI_IBISmsSendReq_V2_BLK, 
                       _ARI_IBISmsSendReq_V2_ENC, _ARI_IBISmsSendRspCb_V2_Extract, 
                       _ARI_IBISmsServiceIndCb_Extract, _ARI_IBISmsSetMemoryAvailableReq_BLK, 
                       _ARI_IBISmsSetMemoryAvailableReq_ENC, _ARI_IBISmsSetMemoryAvailableRspCb_Extract, 
                       _ARI_IBISmsSetMsgWaitIndReq_BLK, _ARI_IBISmsSetMsgWaitIndReq_ENC, 
                       _ARI_IBISmsSetMsgWaitIndRspCb_Extract, _ARI_IBISmsSetSendMoreMessagesStatus_BLK, 
                       _ARI_IBISsAbortReq_BLK, _ARI_IBISsAbortReq_ENC, _ARI_IBISsAbortRspCb_Extract, 
                       _ARI_IBISsCallBarringReq_BLK, _ARI_IBISsCallBarringReq_ENC, 
                       _ARI_IBISsCallBarringReq_V1_BLK, _ARI_IBISsCallBarringReq_V1_ENC, 
                       _ARI_IBISsCallBarringRspCb_Extract, _ARI_IBISsCallBarringRspCb_V1_Extract, 
                       _ARI_IBISsCallForwardReq_BLK, _ARI_IBISsCallForwardReq_ENC, 
                       _ARI_IBISsCallForwardRspCb_Extract, _ARI_IBISsCallWaitingReq_BLK, 
                       _ARI_IBISsCallWaitingReq_ENC, _ARI_IBISsCallWaitingRspCb_Extract, 
                       _ARI_IBISsExtendedUssdReq_BLK, _ARI_IBISsExtendedUssdReq_ENC, 
                       _ARI_IBISsExtendedUssdRspCb_Extract, _ARI_IBISsFwdCheckIndCb_Extract, 
                       _ARI_IBISsIdentificationReq_BLK, _ARI_IBISsIdentificationReq_ENC, 
                       _ARI_IBISsIdentificationRspCb_Extract, _ARI_IBISsResultIndCb_Extract, 
                       _ARI_IBISsUssdIndCb_Extract, _ARI_IBISsUssdSessionEndIndCb_Extract, 
                       _ARI_IBIXccClockControlIndCb_Extract, _ARI_IBIXccClockControlReq_BLK, 
                       _ARI_IBIXccClockControlReq_ENC, _ARI_IBIXccClockControlRspCb_Extract, 
                       _ARI_UtaMsCallCsReleaseCallReq_BLK, _ARI_UtaMsCallCsReleaseCallReq_ENC, 
                       _ARI_UtaMsCallCsSetupVoiceCallReq_BLK, _ARI_UtaMsCallCsSetupVoiceCallReq_ENC, 
                       _ARI_UtaMsCpsSetSvnReq_BLK, _ARI_UtaMsCpsSetSvnReq_ENC, _ARI_UtaMsNetAttachReq_BLK, 
                       _ARI_UtaMsNetAttachReq_ENC, _ARI_UtaMsNetDetachReq_BLK, _ARI_UtaMsNetDetachReq_ENC, 
                       __Z12GetBufDigestPKhmPKc, __Z18make_shared_bufferPKhm, __Z20ARI_IBISimTkInit_ENCjPPhPj, 
                       __Z25ARI_IBICallPsPdnStats_ENCjijjiPPhPj, __Z25AriClientResponseCallbackPhm, 
                       __Z25AriFramer_HeaderMagicScanPKhmPiPm, __Z26AriClientCancelTrxCallbackiji, 
                       __Z27ARI_IBICallPsRegisterFT_ENCji15UtaCallPsIpAddrS_ttjPPhPj, 
                       __Z27AriClientIndicationCallbackPhm, __Z28AriClientNotifyEventCallback18ARI_XPC_NOTIFY_IDSiy, 
                       __Z29ARI_IBICallPsDeRegisterFT_ENCjPPhPj, __Z29ARI_IBISimTkExecStkCmdRsp_ENCjPK28CsiMsSimTkExecStkCmdRspParamPPhPj, 
                       __Z29ARI_IBISimTkRefreshFcnRsp_ENCjPK22UtaSimTkCommonRspParamPPhPj, 
                       __Z29ARI_IBISimTkResetQueryRsp_ENCjPK22UtaSimTkCommonRspParamPPhPj, 
                       __Z30ARI_IBICallPsDropIPPackets_ENCjPK31IBICallPsDropIPPacketsReqParamsPPhPj, 
                       __Z31ARI_IBICallCsSetClirModeReq_ENCj17UtaCallCsClirModePPhPj, 
                       __Z31ARI_IBISimTkRefreshQueryRsp_ENCjPK22UtaSimTkCommonRspParamPPhPj, 
                       __Z31ARI_IBISimTkResetConfirmRsp_ENCjPK21UtaSimTkTransactionIdPPhPj, 
                       __Z32ARI_IBISimTkTerminalResponse_ENCjPK24CsiSimTkTerminalRspParamPPhPj, 
                       __Z33ARI_IBISimTkRefreshConfirmRsp_ENCjPK21UtaSimTkTransactionIdPPhPj, 
                       __Z35ARI_IBINetRatSwitchStatusReport_ENCjPK33IBINetRatSwitchStatusReportParamsPPhPj, 
                       __Z36ARI_IBINetSelectPreferredService_ENCjPK33UtaNetSelectPreferredServiceParamPPhPj, 
                       __Z36ARI_IBISipMessageInjectToCpTrace_ENCPK14CsiSipMsgParamPPhPj, 
                       __Z37ARI_IBINetSetRadioSignalReporting_ENCjiPPhPj, __Z39ARI_IBISmsConfirmSmsDataDownloadAck_ENCjPK38UtaMsSmsConfirmSmsDataDownloadAckParamPPhPj, 
                       __Z39ARI_IBISmsSetSendMoreMessagesStatus_ENCjPK36UtaSmsSetSendMoreMessagesStatusParamPPhPj, 
                       __Z50ARI_IBINetSetRadioSignalReportingConfiguration_ENCjP39CsiNetRadioSignalReportingConfigurationPPhPj, 
                       __Z8asString10CsiCbsType, __Z8asString10UtaCbsLang, __Z8asString10UtaCpsMode, 
                       __Z8asString10UtaNetBand, __Z8asString10UtaSimType, __Z8asString10UtaXoState, 
                       __Z8asString11CsiCallType, __Z8asString11CsiCbsCause, __Z8asString11CsiSipMsgId, 
                       __Z8asString11UtaCnDomain, __Z8asString11UtaLpGnssId, __Z8asString11UtaNetError, 
                       __Z8asString11UtaNetWList, __Z8asString11UtaSimChvNo, __Z8asString11UtaSimError, 
                       __Z8asString11UtaSmsCause, __Z8asString11UtaSmsTpFcs, __Z8asString12CsiCallCsCmd, 
                       __Z8asString12IBIApacsType, __Z8asString12UtaLpFixType, __Z8asString12UtaLpGanssId, 
                       __Z8asString12UtaNetOrigin, __Z8asString12UtaNetSource, __Z8asString12UtaSimEfType, 
                       __Z8asString12UtaSimPinKey, __Z8asString12UtaSimTkTone, __Z8asString12UtaSmsStatus, 
                       __Z8asString13AriAttribType, __Z8asString13CsiCallCsFeat, 
                       __Z8asString13CsiNetTimerId, __Z8asString13CsiSipEventId, 
                       __Z8asString13IBICellErrorT, __Z8asString13UtaCallCsLine, 
                       __Z8asString13UtaCallCsType, __Z8asString13UtaCpsSimMode, 
                       __Z8asString13UtaLpGnssToId, __Z8asString13UtaNetGsmBand, 
                       __Z8asString13UtaNetNmrType, __Z8asString13UtaNetRatMode, 
                       __Z8asString13UtaSsUssdType, __Z8asString14AriAttribValue, 
                       __Z8asString14AriResult_enum, __Z8asString14IBICellResultT, 
                       __Z8asString14UtaCallCsGroup, __Z8asString14UtaImsMEResult, 
                       __Z8asString14UtaNetAreaType, __Z8asString14UtaNetCellType, 
                       __Z8asString14UtaNetFdStatus, __Z8asString14UtaNetFdorMode, 
                       __Z8asString14UtaNetPlmnFlag, __Z8asString14UtaNetUmtsBand, 
                       __Z8asString14UtaSimBdnState, __Z8asString14UtaSimCardType, 
                       __Z8asString14UtaSimFdnState, __Z8asString14UtaSimFileType, 
                       __Z8asString14UtaSimLockType, __Z8asString14UtaSimPbResult, 
                       __Z8asString14UtaSimTkCcType, __Z8asString14UtaSimTkSsType, 
                       __Z8asString14UtaSmsCpResult, __Z8asString14UtaSsLcsResult, 
                       __Z8asString15CsiCallPsIpType, __Z8asString15CsiSimMwiStatus, 
                       __Z8asString15UtaCallCsResult, __Z8asString15UtaCallCsStatus, 
                       __Z8asString15UtaCallPsIpType, __Z8asString15UtaCallPsOrigin, 
                       __Z8asString15UtaCpErrorCodes, __Z8asString15UtaCpReportType, 
                       __Z8asString15UtaCpsSvnResult, __Z8asString15UtaLineSelector, 
                       __Z8asString15UtaLpDgpsStatus, __Z8asString15UtaLpErrorCodes, 
                       __Z8asString15UtaLpGnssTimeId, __Z8asString15UtaLpMethodType, 
                       __Z8asString15UtaNetGprsClass, __Z8asString15UtaNetUserCause, 
                       __Z8asString15UtaSimChvStatus, __Z8asString15UtaSimIndicator, 
                       __Z8asString15UtaSimLockCause, __Z8asString15UtaSimPinStatus, 
                       __Z8asString15UtaSimResetType, __Z8asString15UtaSmsSrStorage, 
                       __Z8asString15UtaSsClirOption, __Z8asString15UtaSsLcsAidMask, 
                       __Z8asString15UtaSsLcsGanssId, __Z8asString15UtaSsStatusCode, 
                       __Z8asString16CsiSimAuthResult, __Z8asString16CsiSimCardStatus, 
                       __Z8asString16CsiSimErrorCause, __Z8asString16CsiSimGenResType, 
                       __Z8asString16CsiSimMsgTagType, __Z8asString16CsiSsAddressType, 
                       __Z8asString16CsiSsServiceType, __Z8asString16IBICallPsLqmType, 
                       __Z8asString16IBIRatSwitchType, __Z8asString16UtaCallCsAocType, 
                       __Z8asString16UtaCallPsLlcSapi, __Z8asString16UtaCbsEtwsResult, 
                       __Z8asString16UtaCbsFilterMode, __Z8asString16UtaClsModemState, 
                       __Z8asString16UtaCpPosProtocol, __Z8asString16UtaLpEnvironment, 
                       __Z8asString16UtaLpPosProtocol, __Z8asString16UtaNetDuplexMode, 
                       __Z8asString16UtaNetGsmService, __Z8asString16UtaNetPowerClass, 
                       __Z8asString16UtaSimFcpSfiType, __Z8asString16UtaSimInitResult, 
                       __Z8asString16UtaSimLockAction, __Z8asString16UtaSimLockResult, 
                       __Z8asString16UtaSimLockStatus, __Z8asString16UtaSimPbLinkType, 
                       __Z8asString16UtaSimPbLocation, __Z8asString16UtaSimRecordMode, 
                       __Z8asString16UtaSmsPpProtocol, __Z8asString16UtaSmsSendResult, 
                       __Z8asString16UtaSsLcsMolrType, __Z8asString16UtaSsServiceCode, 
                       __Z8asString16UtaXccPeripheral, __Z8asString17CsiNetSrvccStatus, 
                       __Z8asString17IBIImsTestReqType, __Z8asString17UtaCallCsClirMode, 
                       __Z8asString17UtaCallCsCodecCmd, __Z8asString17UtaCallCsDataRate, 
                       __Z8asString17UtaCallCsDtmfMode, __Z8asString17UtaCallCsDualMode, 
                       __Z8asString17UtaClsNetworkType, __Z8asString17UtaCpReportAmount, 
                       __Z8asString17UtaImsMEDTMFCodes, __Z8asString17UtaImsMEMediaType, 
                       __Z8asString17UtaLpVelocityType, __Z8asString17UtaNetCellSIBType, 
                       __Z8asString17UtaNetEonsSupport, __Z8asString17UtaSimPinActivity, 
                       __Z8asString17UtaSimTkEventType, __Z8asString17UtaSsImsErrorType, 
                       __Z8asString17UtaSsLcsFormatInd, __Z8asString17UtaSsLcsLocMethod, 
                       __Z8asString17UtaSsLcsShapeType, __Z8asString17UtaSsMmErrorCause, 
                       __Z8asString17UtaSsUssdSendMode, __Z8asString18ARI_XPC_NOTIFY_IDS, 
                       __Z8asString18CsiCallCsCrssGroup, __Z8asString18CsiCallPsProtoType, 
                       __Z8asString18IBIPriGriWriteResp, __Z8asString18IBIRatSwitchStatus, 
                       __Z8asString18UtaCallCsClirCause, __Z8asString18UtaCallCsRdnChoice, 
                       __Z8asString18UtaCallPsDnsIpType, __Z8asString18UtaCpsMultiSimMode, 
                       __Z8asString18UtaImsMERtpProfile, __Z8asString18UtaNetPlmnNameType, 
                       __Z8asString18UtaSimAuthRejCause, __Z8asString18UtaSimPbValidFlags, 
                       __Z8asString18UtaSimUpdateStatus, __Z8asString18UtaSmsCheckBitmask, 
                       __Z8asString18UtaSmsResultStatus, __Z8asString18UtaSsLcsErrorCause, 
                       __Z8asString18UtaSsLcsNotifyType, __Z8asString18UtaSsOperationCode, 
                       __Z8asString18UtaXoConnectedMode, __Z8asString19AriAttribActionType, 
                       __Z8asString19CsiCallPsResultCode, __Z8asString19CsiLpPositionMethod, 
                       __Z8asString19CsiSimAccessAppType, __Z8asString19CsiSimGenPinResType, 
                       __Z8asString19CsiSipCallDirection, __Z8asString19UtaCallCsCodecTypes, 
                       __Z8asString19UtaCallCsErrorCause, __Z8asString19UtaCallCsSystemMode, 
                       __Z8asString19UtaCallPsDelayClass, __Z8asString19UtaCallPsPDPReqType, 
                       __Z8asString19UtaCallPsRejectCode, __Z8asString19UtaCpReportInterval, 
                       __Z8asString19UtaLpAdditionalInfo, __Z8asString19UtaNetBandScanState, 
                       __Z8asString19UtaNetDcBarringTime, __Z8asString19UtaNetNetworkOpMode, 
                       __Z8asString19UtaNetNmrErrorCause, __Z8asString19UtaNetPsAttachState, 
                       __Z8asString19UtaNetUrrcErrorType, __Z8asString19UtaRatInfoExtension, 
                       __Z8asString19UtaSimFcpFileStatus, __Z8asString19UtaSimPbCacheStatus, 
                       __Z8asString19UtaSimTkAddressType, __Z8asString19UtaSmsStorageResult, 
                       __Z8asString19UtaSsImsSsErrorCode, __Z8asString20CsiSimAccessCardType, 
                       __Z8asString20CsiSimAccessSimState, __Z8asString20CsiSimTkEnvelopeType, 
                       __Z8asString20IBIApacs_status_resp, __Z8asString20IBISimTestCmdErrType, 
                       __Z8asString20UtaCallCsConnElement, __Z8asString20UtaCommonReturnCodes, 
                       __Z8asString20UtaLpGlonassSignalId, __Z8asString20UtaLpSessionProtocol, 
                       __Z8asString20UtaNetCellUtranSIB19, __Z8asString20UtaNetControlCommand, 
                       __Z8asString20UtaNetCsLcsIndicator, __Z8asString20UtaNetEncryptionType, 
                       __Z8asString20UtaNetPlmnNameSource, __Z8asString20UtaSimFcpSecAttrType, 
                       __Z8asString20UtaSimPbLocationInfo, __Z8asString20UtaSimTkDurationUnit, 
                       __Z8asString20UtaSmsParamIndicator, __Z8asString20UtaSsLcsVelocityType, 
                       __Z8asString20UtaSsNetworkGsmCause, __Z8asString20UtaSsOperationResult, 
                       __Z8asString21CsiCbsEtwsWarningType, __Z8asString21CsiSimAccessPollState, 
                       __Z8asString21CsiSimEfAccessResType, __Z8asString21CsiSimSecurityContext, 
                       __Z8asString21CsiSsLcsOperationType, __Z8asString21UtaCallCsCauseOfNoCli, 
                       __Z8asString21UtaCallCsCugInfoState, __Z8asString21UtaCallCsEctCallState, 
                       __Z8asString21UtaCallCsMmErrorCause, __Z8asString21UtaCallCsProgressInfo, 
                       __Z8asString21UtaCallPsHandoverMode, __Z8asString21UtaCallPsSuspendCause, 
                       __Z8asString21UtaCallPsTftDirection, __Z8asString21UtaCallPsTrafficClass, 
                       __Z8asString21UtaCpEutranOtdoaPrsBw, __Z8asString21UtaImsMEBandwidthType, 
                       __Z8asString21UtaImsMERTTCodecTypes, __Z8asString21UtaNetDcBarringFactor, 
                       __Z8asString21UtaNetDcServiceDomain, __Z8asString21UtaNetFdorRejectCause, 
                       __Z8asString21UtaNetFpCleanupResult, __Z8asString21UtaSimFcpAppPinStatus, 
                       __Z8asString21UtaSimTkControlOption, __Z8asString21UtaSsImsUssdErrorCode, 
                       __Z8asString21UtaSsLcsVerifyRspType, __Z8asString22CsiLpAssistanceRequest, 
                       __Z8asString22CsiSsUssdServiceStatus, __Z8asString22IBISimClientCookieType, 
                       __Z8asString22UtaCallCsTtyDeviceMode, __Z8asString22UtaCallCsVoimsCalltype, 
                       __Z8asString22UtaCallPsContextStatus, __Z8asString22UtaCallPsDataDirection, 
                       __Z8asString22UtaCallPsDeliveryOrder, __Z8asString22UtaCallPsEpsProcStatus, 
                       __Z8asString22UtaCallPsRadioPriority, __Z8asString22UtaCallPsSduErrorRatio, 
                       __Z8asString22UtaCallPsSmCauseAccept, __Z8asString22UtaImsMEMediaDirection, 
                       __Z8asString22UtaImsMeRtcpSourceType, __Z8asString22UtaNetHspaPlusConnType, 
                       __Z8asString22UtaNetPlmnListDataType, __Z8asString22UtaNetRegistrationMode, 
                       __Z8asString22UtaNetSignalQualityMax, __Z8asString22UtaSimPbUsimPbLocation, 
                       __Z8asString22UtaSimTkProactiveCause, __Z8asString22UtaSimTkUICCDataFormat, 
                       __Z8asString22UtaSsLcsGsnAddressType, __Z8asString22UtaSsNetworkErrorCause, 
                       __Z8asString23CsiAccFreqReportingType, __Z8asString23CsiLpLocationInfoResult, 
                       __Z8asString23CsiLpMeasurementsResult, __Z8asString23CsiSimApduCmdResultType, 
                       __Z8asString23CsiSmsServiceErrorCause, __Z8asString23IBINetApSleepStatusType, 
                       __Z8asString23UtaCallCsSnsServiceMode, __Z8asString23UtaCallPsLayer2Protocol, 
                       __Z8asString23UtaCallPsMeanThroughput, __Z8asString23UtaCallPsPeakThroughput, 
                       __Z8asString23UtaCallPsRbReleaseCause, __Z8asString23UtaImsMEAudioCodecTypes, 
                       __Z8asString23UtaLpMultipathIndicator, __Z8asString23UtaNetBandSelectionMode, 
                       __Z8asString23UtaNetSignalStrenghtMax, __Z8asString23UtaSimApplicationStatus, 
                       __Z8asString23UtaSimFcpSecAttrRefType, __Z8asString23UtaSsLcsLocEstimateType, 
                       __Z8asString23UtaSsNetworkRejectCause, __Z8asString24CsiLpDiscardedPosMsgType, 
                       __Z8asString24CsiSimAccessVoltageClass, __Z8asString24CsiSimEfAccessErrorCause, 
                       __Z8asString24CsiSimTkProactiveCmdType, __Z8asString24IBINetApScreenStatusType, 
                       __Z8asString24UtaCallCsAlertingPattern, __Z8asString24UtaCallCsDualServiceMode, 
                       __Z8asString24UtaCallCsUus1SendMsgType, __Z8asString24UtaCallCsVoimsRetryCause, 
                       __Z8asString24UtaCallPsDataCompression, __Z8asString24UtaCallPsPrecedenceClass, 
                       __Z8asString24UtaCallPsTrafficPriority, __Z8asString24UtaImsMERtcpSdesItemType, 
                       __Z8asString24UtaLpGpsDopplerUncertExt, __Z8asString24UtaNetCipheringKeyStatus, 
                       __Z8asString24UtaNetRatSwapResultCause, __Z8asString24UtaNetRegistrationStatus, 
                       __Z8asString24UtaSimTkChannelLinkState, __Z8asString24UtaSimTkProactiveCommand, 
                       __Z8asString24UtaSmsDownloadErrorCause, __Z8asString24UtaSsLcsTerminationCause, 
                       __Z8asString25CsiXccClockControlIndType, __Z8asString25CsiXccClockControlRspType, 
                       __Z8asString25UtaCallCsNotificationType, __Z8asString25UtaCallPsActivationStatus, 
                       __Z8asString25UtaCallPsReliabilityClass, __Z8asString25UtaCpEutranEcidErrorCause, 
                       __Z8asString25UtaImsMEAudioChannelModes, __Z8asString25UtaLpGlonassSignalIdMasks, 
                       __Z8asString25UtaNetCipheringKeyContext, __Z8asString25UtaSimApplicationActivity, 
                       __Z8asString25UtaSimTkBcRepeatIndicator, __Z8asString25UtaSsLcsGanssSignalIdMask, 
                       __Z8asString26CsiLpLocationRequestStatus, __Z8asString26IBISimSupportedTestCmdType, 
                       __Z8asString26UtaCallPsDataSessionStatus, __Z8asString26UtaCallPsHeaderCompression, 
                       __Z8asString26UtaCpEutranOtdoaErrorCause, __Z8asString26UtaLpGanssDopplerUncertExt, 
                       __Z8asString26UtaLpMeasurePositionResult, __Z8asString26UtaNetBackgroundSearchMode, 
                       __Z8asString26UtaSsLcsGanssCommonAidMask, __Z8asString26UtaSsLcsSupportedGADShapes, 
                       __Z8asString27CsiCallPsFilterRespCodeType, __Z8asString27CsiNetGetPlmnNameInfoResult, 
                       __Z8asString27CsiSimTkCmdQualifierRefresh, __Z8asString27CsiSimTkCmdQualifierSendSms, 
                       __Z8asString27CsiSimTkProactiveCmdHandler, __Z8asString27IBINetApTetheringStatusType, 
                       __Z8asString27UtaCallCsGsmSignalInfoParam, __Z8asString27UtaCallCsVoimsSrvccHoStatus, 
                       __Z8asString27UtaCallPsAuthenticationType, __Z8asString27UtaCallPsSignalingIndicator, 
                       __Z8asString27UtaLpUtranSfnGpsUncertainty, __Z8asString27UtaNetAttachNotAllowedCause, 
                       __Z8asString27UtaSsLcsGanssGenericAidMask, __Z8asString28CsiNetSrvccReportTriggerType, 
                       __Z8asString28CsiSimTkCallControlParamType, __Z8asString28CsiSimTkCmdQualifierPlayTone, 
                       __Z8asString28CsiSimTkProvideLocalInfoType, __Z8asString28IBINetApBatterySaverModeType, 
                       __Z8asString28UtaCallCsPhoneActivityStatus, __Z8asString28UtaCallCsSynchronisationType, 
                       __Z8asString28UtaCallCsUus1ReceivedMsgType, __Z8asString28UtaCallCsVoimsAuxiliaryState, 
                       __Z8asString28UtaCallCsVoimsSrvccCallState, __Z8asString28UtaCbsEtwsDuplicateDetection, 
                       __Z8asString28UtaCpEutranOtdoaNrOfDlFrames, __Z8asString28UtaCpsMultiSimModeSSDAConfig, 
                       __Z8asString28UtaImsMEMediaSessionErrCodes, __Z8asString28UtaSmsSendMoreMessagesStatus, 
                       __Z8asString28UtaSsLcsDeferredLocEventType, __Z8asString28UtaSsLcsResponseTimeCategory, 
                       __Z8asString29CsiNetEmergencyCellInfoResult, __Z8asString29CsiSimAccessUiccOperationFreq, 
                       __Z8asString29CsiSimTkCmdQualifierSetupCall, __Z8asString29UtaCallCsPreferredSpeechCodec, 
                       __Z8asString29UtaCallPsAddressAndMaskIpType, __Z8asString29UtaCallPsErroneousSduDelivery, 
                       __Z8asString29UtaCallPsResidualBitErrorRate, __Z8asString29UtaCallPsSourceStatisticsDesc, 
                       __Z8asString29UtaLpLocationServerErrorCause, __Z8asString29UtaNetDcImsRegistrationStatus, 
                       __Z8asString29UtaNetDcSsacBarringInfoResult, __Z8asString29UtaNetDcVoiceDomainPreference, 
                       __Z8asString29UtaNetRegistrationRejectCause, __Z8asString29UtaNetRrcStateReportingConfig, 
                       __Z8asString29UtaSimTkTransportProtocolType, __Z8asString30UtaCallCsVoimsMMTelSessionType, 
                       __Z8asString30UtaCallCsVoimsRevSrvccHoStatus, __Z8asString30UtaCallPsNotificationIndicator, 
                       __Z8asString30UtaCpMeasurementMethodTypeMask, __Z8asString30UtaNetCellLteAcBarringInfoType, 
                       __Z8asString30UtaSimFcpSecAttrAccessCondtion, __Z8asString30UtaSimTkRegTerminalProfileType, 
                       __Z8asString30UtaSsLcsVerticalSpeedDirection, __Z8asString31UtaCpEutranOtdoaErrorResolution, 
                       __Z8asString32UtaCallCsMultimediaCallExitCause, __Z8asString32UtaCallCsVoimsMMTelSessionStatus, 
                       __Z8asString32UtaCallCsVoimsMptyAuxiliaryState, __Z8asString32UtaCpEutranMeasurementResultMask, 
                       __Z8asString32UtaNetSingleShotReportingReqType, __Z8asString33CsiSsLcsPositioningCapabilityType, 
                       __Z8asString33UtaCallCsMultimediaCallNumberType, __Z8asString33UtaCpEcidRequestedMeasurementMask, 
                       __Z8asString33UtaCpEutranOtdoaAntennaPortConfig, __Z8asString34UtaCpEutranOtdoaCyclicPrefixLength, 
                       __Z8asString35UtaCallPsNasSignallingPrioIndicator, __Z8asString35UtaCpEutranOtdoaPrsMutingInfoLength, 
                       __Z8asString36UtaCpEutranEcidMeasurementsErrorMask, __Z8asString36UtaNetRadioSignalReportingConfigType, 
                       __Z8asString37UtaCallCsMultimediaCallMediaNegStatus, __Z8asString37UtaNetEpsNetworkFeatureAdditionalInfo, 
                       __Z8asString38UtaCallCsModifyDualServiceCallResponse, __Z8asString39CsiSimAccessUiccSupportedVoltageBitMask, 
                       __Z8asString40CsiCallCsEmergencyCallIntermediateStatus, __Z8asString40UtaCpEutranOtdoaLocationServerErrorCause, 
                       __Z8asString40UtaNetRadioSignalReportingConfigPresence, __Z8asString6UtaRat, 
                       __Z8asStringN3Ari7OpStateE, __ZN11AriDispatch9Semaphore4waitEy, 
                       __ZN11AriDispatch9Semaphore6CreateENSt3__112basic_stringIcNS1_11char_traitsIcEENS1_9allocatorIcEEEEl, 
                       __ZN11AriDispatch9Semaphore6signalEv, __ZN11AriDispatch9SemaphoreC1ENSt3__112basic_stringIcNS1_11char_traitsIcEENS1_9allocatorIcEEEEl, 
                       __ZN11AriDispatch9SemaphoreC2ENSt3__112basic_stringIcNS1_11char_traitsIcEENS1_9allocatorIcEEEEl, 
                       __ZN11AriDispatch9SemaphoreD1Ev, __ZN11AriDispatch9SemaphoreD2Ev, 
                       __ZN3Ari10MsgDefByIdEjj, __ZN3Ari10ScopeTimerC1ENSt3__112basic_stringIcNS1_11char_traitsIcEENS1_9allocatorIcEEEEjj, 
                       __ZN3Ari10ScopeTimerC2ENSt3__112basic_stringIcNS1_11char_traitsIcEENS1_9allocatorIcEEEEjj, 
                       __ZN3Ari10ScopeTimerD1Ev, __ZN3Ari10ScopeTimerD2Ev, __ZN3Ari10TlvDefByIdEjjjm, 
                       __ZN3Ari11MsgNameByIdEj, __ZN3Ari12AriClientGcd13regIndicationEjj, 
                       __ZN3Ari12AriClientGcd13sendNotifyAckEiy18ARI_XPC_NOTIFY_IDS, 
                       __ZN3Ari12AriClientGcd14registerClientEPKcPjP16dispatch_queue_sj, 
                       __ZN3Ari12AriClientGcd15deregIndicationEjj, __ZN3Ari12AriClientGcd16deregisterClientEj, 
                       __ZN3Ari12AriClientGcd20clientReportFatalErrEi21ARI_CLIENT_ERROR_TYPENSt3__112basic_stringIcNS2_11char_traitsIcEENS2_9allocatorIcEEEE, 
                       __ZN3Ari12AriClientGcd7sendRawEPhjj, __ZN3Ari12AriClientGcdC1Ev, 
                       __ZN3Ari12AriClientGcdC2Ev, __ZN3Ari12AriClientGcdD0Ev, __ZN3Ari12AriClientGcdD1Ev, 
                       __ZN3Ari12AriClientGcdD2Ev, __ZN3Ari12AriClientXpc13regIndicationEjj, 
                       __ZN3Ari12AriClientXpc13sendNotifyAckEiy18ARI_XPC_NOTIFY_IDS, 
                       __ZN3Ari12AriClientXpc14registerClientEPKcPjP16dispatch_queue_sj, 
                       __ZN3Ari12AriClientXpc15deregIndicationEjj, __ZN3Ari12AriClientXpc16deregisterClientEj, 
                       __ZN3Ari12AriClientXpc20clientReportFatalErrEi21ARI_CLIENT_ERROR_TYPENSt3__112basic_stringIcNS2_11char_traitsIcEENS2_9allocatorIcEEEE, 
                       __ZN3Ari12AriClientXpc7sendRawEPhjj, __ZN3Ari12AriClientXpcC1Ev, 
                       __ZN3Ari12AriClientXpcC2Ev, __ZN3Ari12AriClientXpcD0Ev, __ZN3Ari12AriClientXpcD1Ev, 
                       __ZN3Ari12AriClientXpcD2Ev, __ZN3Ari12GetLogLevelsEv, __ZN3Ari12MsgDefByNameEPKc, 
                       __ZN3Ari12TlvDefByNameEPKcS1_, __ZN3Ari15ClientWorkQueue5flushEv, 
                       __ZN3Ari15ClientWorkQueue5stallEv, __ZN3Ari15ClientWorkQueue6cancelEv, 
                       __ZN3Ari15ClientWorkQueueD1Ev, __ZN3Ari15ClientWorkQueueD2Ev, 
                       __ZN3Ari15LogTransportBufENSt3__112basic_stringIcNS0_11char_traitsIcEENS0_9allocatorIcEEEEjPKvi, 
                       __ZN3Ari21ClientOutboundMessage5flushEv, __ZN3Ari21ClientOutboundMessage6CreateEPhjj, 
                       __ZN3Ari21ClientOutboundMessage6cancelEv, __ZN3Ari21ClientOutboundMessageC1EPhjj, 
                       __ZN3Ari21ClientOutboundMessageC2EPhjj, __ZN3Ari21ClientOutboundMessageD1Ev, 
                       __ZN3Ari21ClientOutboundMessageD2Ev, __ZN3Ari3LogEjPKcz, __ZN3Ari6LogBufEPKcPKvm, 
                       __ZN3Ari6LogBufEPKcS1_jPKvmj, __ZN3Ari6MsgSet3addEj, __ZN3Ari6MsgSet3addEjj, 
                       __ZN3Ari6MsgSet6removeEj, __ZN3Ari6MsgSet7foreachENSt3__18functionIFvPK9ARIMSGDEFEEE, 
                       __ZN3Ari6MsgSetC1EPKc, __ZN3Ari6MsgSetC2EPKc, __ZN3Ari6MsgSetD1Ev, 
                       __ZN3Ari6MsgSetD2Ev, __ZN3Ari6MsgSetixEj, __ZN3Ari6SWTrapEbPKcS1_i, 
                       __ZN3Ari9AriClient11rtlibHandleE, __ZN3Ari9AriClient6createEv, 
                       __ZN3Ari9LogConfigEjPFvjPKcE, __ZN3Ari9LogConfigEjPFvjPKcEPFviNSt3__112basic_stringIcNS4_11char_traitsIcEENS4_9allocatorIcEEEEjPKvjE, 
                       __ZN3Ari9LogHeaderEPKh, __ZN5IDMgr4dumpEb, __ZN5IDMgr4freeEib, 
                       __ZN5IDMgr5_freeEiRNSt3__13setINS_5RangeENS0_4lessIS2_EENS0_9allocatorIS2_EEEE, 
                       __ZN5IDMgr5resetEv, __ZN5IDMgr7isAllocEi, __ZN5IDMgr8allocateEPib, 
                       __ZN5IDMgr8allocateEi, __ZN5IDMgr9_allocateEPiRNSt3__13setINS_5RangeENS1_4lessIS3_EENS1_9allocatorIS3_EEEE, 
                       __ZN5IDMgr9_allocateEiRNSt3__13setINS_5RangeENS0_4lessIS2_EENS0_9allocatorIS2_EEEE, 
                       __ZN5IDMgrC1Eii, __ZN5IDMgrC2Eii, __ZN6AriMsg10GetBufGmidEPKhm, 
                       __ZN6AriMsg10extractCtxEPi, __ZN6AriMsg11FreeTlvListEPNS_6AriTLVE, 
                       __ZN6AriMsg11GetBufMsgSzEPKhm, __ZN6AriMsg12GetBufAckOptEPKhm, 
                       __ZN6AriMsg12GetBufHeaderEPKhm, __ZN6AriMsg12GetBufMsgDirEPKhm, 
                       __ZN6AriMsg13getEncodedBufEPj, __ZN6AriMsg21ReleaseEncodedMessageEPh, 
                       __ZN6AriMsg4packEjPKvm, __ZN6AriMsg6unpackEjPvmPbPm, __ZN6AriMsg7unparamEhPvm, 
                       __ZN6AriMsg9GetBufCtxEPKhm, __ZN6AriMsg9GetBufGidEPKhm, __ZN6AriMsg9GetBufMidEPKhm, 
                       __ZN6AriMsg9GetBufSeqEPKhmPj, __ZN6AriMsg9SetBufCtxEPKhmj, 
                       __ZN6AriMsg9SetBufSeqEPKhmj, __ZN6AriMsg9packParamEjPKvm, 
                       __ZN6AriMsg9updateCtxEi, __ZN6AriMsgC1EPKhj, __ZN6AriMsgC1Ej, 
                       __ZN6AriMsgC2EPKhj, __ZN6AriMsgC2Ej, __ZN6AriMsgD1Ev, __ZN6AriMsgD2Ev, 
                       __ZN6AriOsa10LogSrcInfoEPKcS1_, __ZN6AriOsa11OsMutexFreeEP20dispatch_semaphore_s, 
                       __ZN6AriOsa11OsMutexGiveEP20dispatch_semaphore_s, __ZN6AriOsa11OsMutexTakeEP20dispatch_semaphore_sj, 
                       __ZN6AriOsa11OsTimeStampEv, __ZN6AriOsa13OsMutexCreateEPP20dispatch_semaphore_s, 
                       __ZN6AriOsa22OsGetCurrentThreadNameEPcm, __ZN6AriOsa3LogEjPKc, 
                       __ZN6AriOsa4InitEv, __ZN6AriOsa6SWTrapEbPKcS1_i, __ZN6AriOsa7MemFreeEjPv, 
                       __ZN6AriOsa7OsSleepEj, __ZN6AriOsa8MemAllocEjm, __ZN6AriSdk14ARI_AriACK_SDK4packEPP6AriMsg, 
                       __ZN6AriSdk14ARI_AriACK_SDK6unpackEv, __ZN6AriSdk14ARI_AriACK_SDKC1EPKhj, 
                       __ZN6AriSdk14ARI_AriACK_SDKC1Ev, __ZN6AriSdk14ARI_AriACK_SDKC2EPKhj, 
                       __ZN6AriSdk14ARI_AriACK_SDKC2Ev, __ZN6AriSdk15ARI_AriNACK_SDK4packEPP6AriMsg, 
                       __ZN6AriSdk15ARI_AriNACK_SDK6unpackEv, __ZN6AriSdk15ARI_AriNACK_SDKC1EPKhj, 
                       __ZN6AriSdk15ARI_AriNACK_SDKC1Ev, __ZN6AriSdk15ARI_AriNACK_SDKC2EPKhj, 
                       __ZN6AriSdk15ARI_AriNACK_SDKC2Ev, __ZN6AriSdk19ARI_AriBBLogInd_SDK4packEPP6AriMsg, 
                       __ZN6AriSdk19ARI_AriBBLogInd_SDK6unpackEv, __ZN6AriSdk19ARI_AriBBLogInd_SDKC1EPKhj, 
                       __ZN6AriSdk19ARI_AriBBLogInd_SDKC1Ev, __ZN6AriSdk19ARI_AriBBLogInd_SDKC2EPKhj, 
                       __ZN6AriSdk19ARI_AriBBLogInd_SDKC2Ev, __ZN6AriSdk19ARI_CsiIceAtReq_SDK4packEPP6AriMsg, 
                       __ZN6AriSdk19ARI_CsiIceAtReq_SDK6unpackEv, __ZN6AriSdk19ARI_CsiIceAtReq_SDKC1EPKhj, 
                       __ZN6AriSdk19ARI_CsiIceAtReq_SDKC1Ev, __ZN6AriSdk19ARI_CsiIceAtReq_SDKC2EPKhj, 
                       __ZN6AriSdk19ARI_CsiIceAtReq_SDKC2Ev, __ZN6AriSdk19ARI_CsiIceAtRsp_SDK4packEPP6AriMsg, 
                       __ZN6AriSdk19ARI_CsiIceAtRsp_SDK6unpackEv, __ZN6AriSdk19ARI_CsiIceAtRsp_SDKC1EPKhj, 
                       __ZN6AriSdk19ARI_CsiIceAtRsp_SDKC1Ev, __ZN6AriSdk19ARI_CsiIceAtRsp_SDKC2EPKhj, 
                       __ZN6AriSdk19ARI_CsiIceAtRsp_SDKC2Ev, __ZN6AriSdk20ARI_CsiIceSarReq_SDK4packEPP6AriMsg, 
                       __ZN6AriSdk20ARI_CsiIceSarReq_SDK6unpackEv, __ZN6AriSdk20ARI_CsiIceSarReq_SDKC1EPKhj, 
                       __ZN6AriSdk20ARI_CsiIceSarReq_SDKC1Ev, __ZN6AriSdk20ARI_CsiIceSarReq_SDKC2EPKhj, 
                       __ZN6AriSdk20ARI_CsiIceSarReq_SDKC2Ev, __ZN6AriSdk20ARI_IBISimTkInit_SDK4packEPP6AriMsg, 
                       __ZN6AriSdk20ARI_IBISimTkInit_SDK6unpackEv, __ZN6AriSdk20ARI_IBISimTkInit_SDKC1EPKhj, 
                       __ZN6AriSdk20ARI_IBISimTkInit_SDKC1Ev, __ZN6AriSdk20ARI_IBISimTkInit_SDKC2EPKhj, 
                       __ZN6AriSdk20ARI_IBISimTkInit_SDKC2Ev, __ZN6AriSdk21ARI_CsiFpRegister_SDK4packEPP6AriMsg, 
                       __ZN6AriSdk21ARI_CsiFpRegister_SDK6unpackEv, __ZN6AriSdk21ARI_CsiFpRegister_SDKC1EPKhj, 
                       __ZN6AriSdk21ARI_CsiFpRegister_SDKC1Ev, __ZN6AriSdk21ARI_CsiFpRegister_SDKC2EPKhj, 
                       __ZN6AriSdk21ARI_CsiFpRegister_SDKC2Ev, __ZN6AriSdk21ARI_CsiFpSnapshot_SDK4packEPP6AriMsg, 
                       __ZN6AriSdk21ARI_CsiFpSnapshot_SDK6unpackEv, __ZN6AriSdk21ARI_CsiFpSnapshot_SDKC1EPKhj, 
                       __ZN6AriSdk21ARI_CsiFpSnapshot_SDKC1Ev, __ZN6AriSdk21ARI_CsiFpSnapshot_SDKC2EPKhj, 
                       __ZN6AriSdk21ARI_CsiFpSnapshot_SDKC2Ev, __ZN6AriSdk21ARI_CsiIceCltmReq_SDK4packEPP6AriMsg, 
                       __ZN6AriSdk21ARI_CsiIceCltmReq_SDK6unpackEv, __ZN6AriSdk21ARI_CsiIceCltmReq_SDKC1EPKhj, 
                       __ZN6AriSdk21ARI_CsiIceCltmReq_SDKC1Ev, __ZN6AriSdk21ARI_CsiIceCltmReq_SDKC2EPKhj, 
                       __ZN6AriSdk21ARI_CsiIceCltmReq_SDKC2Ev, __ZN6AriSdk21ARI_CsiModeGetReq_SDK4packEPP6AriMsg, 
                       __ZN6AriSdk21ARI_CsiModeGetReq_SDK6unpackEv, __ZN6AriSdk21ARI_CsiModeGetReq_SDKC1EPKhj, 
                       __ZN6AriSdk21ARI_CsiModeGetReq_SDKC1Ev, __ZN6AriSdk21ARI_CsiModeGetReq_SDKC2EPKhj, 
                       __ZN6AriSdk21ARI_CsiModeGetReq_SDKC2Ev, __ZN6AriSdk21ARI_CsiModeSetReq_SDK4packEPP6AriMsg, 
                       __ZN6AriSdk21ARI_CsiModeSetReq_SDK6unpackEv, __ZN6AriSdk21ARI_CsiModeSetReq_SDKC1EPKhj, 
                       __ZN6AriSdk21ARI_CsiModeSetReq_SDKC1Ev, __ZN6AriSdk21ARI_CsiModeSetReq_SDKC2EPKhj, 
                       __ZN6AriSdk21ARI_CsiModeSetReq_SDKC2Ev, __ZN6AriSdk21ARI_CsiXsioSetReq_SDK4packEPP6AriMsg, 
                       __ZN6AriSdk21ARI_CsiXsioSetReq_SDK6unpackEv, __ZN6AriSdk21ARI_CsiXsioSetReq_SDKC1EPKhj, 
                       __ZN6AriSdk21ARI_CsiXsioSetReq_SDKC1Ev, __ZN6AriSdk21ARI_CsiXsioSetReq_SDKC2EPKhj, 
                       __ZN6AriSdk21ARI_CsiXsioSetReq_SDKC2Ev, __ZN6AriSdk21ARI_IBISimAuthReq_SDK4packEPP6AriMsg, 
                       __ZN6AriSdk21ARI_IBISimAuthReq_SDK6unpackEv, __ZN6AriSdk21ARI_IBISimAuthReq_SDKC1EPKhj, 
                       __ZN6AriSdk21ARI_IBISimAuthReq_SDKC1Ev, __ZN6AriSdk21ARI_IBISimAuthReq_SDKC2EPKhj, 
                       __ZN6AriSdk21ARI_IBISimAuthReq_SDKC2Ev, __ZN6AriSdk21ARI_IBISimTestReq_SDK4packEPP6AriMsg, 
                       __ZN6AriSdk21ARI_IBISimTestReq_SDK6unpackEv, __ZN6AriSdk21ARI_IBISimTestReq_SDKC1EPKhj, 
                       __ZN6AriSdk21ARI_IBISimTestReq_SDKC1Ev, __ZN6AriSdk21ARI_IBISimTestReq_SDKC2EPKhj, 
                       __ZN6AriSdk21ARI_IBISimTestReq_SDKC2Ev, __ZN6AriSdk21ARI_IBISsAbortReq_SDK4packEPP6AriMsg, 
                       __ZN6AriSdk21ARI_IBISsAbortReq_SDK6unpackEv, __ZN6AriSdk21ARI_IBISsAbortReq_SDKC1EPKhj, 
                       __ZN6AriSdk21ARI_IBISsAbortReq_SDKC1Ev, __ZN6AriSdk21ARI_IBISsAbortReq_SDKC2EPKhj, 
                       __ZN6AriSdk21ARI_IBISsAbortReq_SDKC2Ev, __ZN6AriSdk22ARI_CsiFpGetStatus_SDK4packEPP6AriMsg, 
                       __ZN6AriSdk22ARI_CsiFpGetStatus_SDK6unpackEv, __ZN6AriSdk22ARI_CsiFpGetStatus_SDKC1EPKhj, 
                       __ZN6AriSdk22ARI_CsiFpGetStatus_SDKC1Ev, __ZN6AriSdk22ARI_CsiFpGetStatus_SDKC2EPKhj, 
                       __ZN6AriSdk22ARI_CsiFpGetStatus_SDKC2Ev, __ZN6AriSdk22ARI_CsiFpUpdateAck_SDK4packEPP6AriMsg, 
                       __ZN6AriSdk22ARI_CsiFpUpdateAck_SDK6unpackEv, __ZN6AriSdk22ARI_CsiFpUpdateAck_SDKC1EPKhj, 
                       __ZN6AriSdk22ARI_CsiFpUpdateAck_SDKC1Ev, __ZN6AriSdk22ARI_CsiFpUpdateAck_SDKC2EPKhj, 
                       __ZN6AriSdk22ARI_CsiFpUpdateAck_SDKC2Ev, __ZN6AriSdk22ARI_CsiIceAtExtReq_SDK4packEPP6AriMsg, 
                       __ZN6AriSdk22ARI_CsiIceAtExtReq_SDK6unpackEv, __ZN6AriSdk22ARI_CsiIceAtExtReq_SDKC1EPKhj, 
                       __ZN6AriSdk22ARI_CsiIceAtExtReq_SDKC1Ev, __ZN6AriSdk22ARI_CsiIceAtExtReq_SDKC2EPKhj, 
                       __ZN6AriSdk22ARI_CsiIceAtExtReq_SDKC2Ev, __ZN6AriSdk22ARI_CsiIceAtExtRsp_SDK4packEPP6AriMsg, 
                       __ZN6AriSdk22ARI_CsiIceAtExtRsp_SDK6unpackEv, __ZN6AriSdk22ARI_CsiIceAtExtRsp_SDKC1EPKhj, 
                       __ZN6AriSdk22ARI_CsiIceAtExtRsp_SDKC1Ev, __ZN6AriSdk22ARI_CsiIceAtExtRsp_SDKC2EPKhj, 
                       __ZN6AriSdk22ARI_CsiIceAtExtRsp_SDKC2Ev, __ZN6AriSdk22ARI_CsiIceSarRspCb_SDK4packEPP6AriMsg, 
                       __ZN6AriSdk22ARI_CsiIceSarRspCb_SDK6unpackEv, __ZN6AriSdk22ARI_CsiIceSarRspCb_SDKC1EPKhj, 
                       __ZN6AriSdk22ARI_CsiIceSarRspCb_SDKC1Ev, __ZN6AriSdk22ARI_CsiIceSarRspCb_SDKC2EPKhj, 
                       __ZN6AriSdk22ARI_CsiIceSarRspCb_SDKC2Ev, __ZN6AriSdk22ARI_IBICbsMsgIndCb_SDK4packEPP6AriMsg, 
                       __ZN6AriSdk22ARI_IBICbsMsgIndCb_SDK6unpackEv, __ZN6AriSdk22ARI_IBICbsMsgIndCb_SDKC1EPKhj, 
                       __ZN6AriSdk22ARI_IBICbsMsgIndCb_SDKC1Ev, __ZN6AriSdk22ARI_IBICbsMsgIndCb_SDKC2EPKhj, 
                       __ZN6AriSdk22ARI_IBICbsMsgIndCb_SDKC2Ev, __ZN6AriSdk22ARI_IBIPriWriteReq_SDK4packEPP6AriMsg, 
                       __ZN6AriSdk22ARI_IBIPriWriteReq_SDK6unpackEv, __ZN6AriSdk22ARI_IBIPriWriteReq_SDKC1EPKhj, 
                       __ZN6AriSdk22ARI_IBIPriWriteReq_SDKC1Ev, __ZN6AriSdk22ARI_IBIPriWriteReq_SDKC2EPKhj, 
                       __ZN6AriSdk22ARI_IBIPriWriteReq_SDKC2Ev, __ZN6AriSdk22ARI_IBISsUssdIndCb_SDK4packEPP6AriMsg, 
                       __ZN6AriSdk22ARI_IBISsUssdIndCb_SDK6unpackEv, __ZN6AriSdk22ARI_IBISsUssdIndCb_SDKC1EPKhj, 
                       __ZN6AriSdk22ARI_IBISsUssdIndCb_SDKC1Ev, __ZN6AriSdk22ARI_IBISsUssdIndCb_SDKC2EPKhj, 
                       __ZN6AriSdk22ARI_IBISsUssdIndCb_SDKC2Ev, __ZN6AriSdk23ARI_AriGrpAttribReq_SDK4packEPP6AriMsg, 
                       __ZN6AriSdk23ARI_AriGrpAttribReq_SDK6unpackEv, __ZN6AriSdk23ARI_AriGrpAttribReq_SDKC1EPKhj, 
                       __ZN6AriSdk23ARI_AriGrpAttribReq_SDKC1Ev, __ZN6AriSdk23ARI_AriGrpAttribReq_SDKC2EPKhj, 
                       __ZN6AriSdk23ARI_AriGrpAttribReq_SDKC2Ev, __ZN6AriSdk23ARI_AriMsgAttribReq_SDK4packEPP6AriMsg, 
                       __ZN6AriSdk23ARI_AriMsgAttribReq_SDK6unpackEv, __ZN6AriSdk23ARI_AriMsgAttribReq_SDKC1EPKhj, 
                       __ZN6AriSdk23ARI_AriMsgAttribReq_SDKC1Ev, __ZN6AriSdk23ARI_AriMsgAttribReq_SDKC2EPKhj, 
                       __ZN6AriSdk23ARI_AriMsgAttribReq_SDKC2Ev, __ZN6AriSdk23ARI_CsiAwdsQueryReq_SDK4packEPP6AriMsg, 
                       __ZN6AriSdk23ARI_CsiAwdsQueryReq_SDK6unpackEv, __ZN6AriSdk23ARI_CsiAwdsQueryReq_SDKC1EPKhj, 
                       __ZN6AriSdk23ARI_CsiAwdsQueryReq_SDKC1Ev, __ZN6AriSdk23ARI_CsiAwdsQueryReq_SDKC2EPKhj, 
                       __ZN6AriSdk23ARI_CsiAwdsQueryReq_SDKC2Ev, __ZN6AriSdk23ARI_CsiBSPBBDumpInd_SDK4packEPP6AriMsg, 
                       __ZN6AriSdk23ARI_CsiBSPBBDumpInd_SDK6unpackEv, __ZN6AriSdk23ARI_CsiBSPBBDumpInd_SDKC1EPKhj, 
                       __ZN6AriSdk23ARI_CsiBSPBBDumpInd_SDKC1Ev, __ZN6AriSdk23ARI_CsiBSPBBDumpInd_SDKC2EPKhj, 
                       __ZN6AriSdk23ARI_CsiBSPBBDumpInd_SDKC2Ev, __ZN6AriSdk23ARI_CsiBspSwTrapReq_SDK4packEPP6AriMsg, 
                       __ZN6AriSdk23ARI_CsiBspSwTrapReq_SDK6unpackEv, __ZN6AriSdk23ARI_CsiBspSwTrapReq_SDKC1EPKhj, 
                       __ZN6AriSdk23ARI_CsiBspSwTrapReq_SDKC1Ev, __ZN6AriSdk23ARI_CsiBspSwTrapReq_SDKC2EPKhj, 
                       __ZN6AriSdk23ARI_CsiBspSwTrapReq_SDKC2Ev, __ZN6AriSdk23ARI_CsiIceCltmRspCb_SDK4packEPP6AriMsg, 
                       __ZN6AriSdk23ARI_CsiIceCltmRspCb_SDK6unpackEv, __ZN6AriSdk23ARI_CsiIceCltmRspCb_SDKC1EPKhj, 
                       __ZN6AriSdk23ARI_CsiIceCltmRspCb_SDKC1Ev, __ZN6AriSdk23ARI_CsiIceCltmRspCb_SDKC2EPKhj, 
                       __ZN6AriSdk23ARI_CsiIceCltmRspCb_SDKC2Ev, __ZN6AriSdk23ARI_CsiModeGetRspCb_SDK4packEPP6AriMsg, 
                       __ZN6AriSdk23ARI_CsiModeGetRspCb_SDK6unpackEv, __ZN6AriSdk23ARI_CsiModeGetRspCb_SDKC1EPKhj, 
                       __ZN6AriSdk23ARI_CsiModeGetRspCb_SDKC1Ev, __ZN6AriSdk23ARI_CsiModeGetRspCb_SDKC2EPKhj, 
                       __ZN6AriSdk23ARI_CsiModeGetRspCb_SDKC2Ev, __ZN6AriSdk23ARI_CsiModeSetIndCb_SDK4packEPP6AriMsg, 
                       __ZN6AriSdk23ARI_CsiModeSetIndCb_SDK6unpackEv, __ZN6AriSdk23ARI_CsiModeSetIndCb_SDKC1EPKhj, 
                       __ZN6AriSdk23ARI_CsiModeSetIndCb_SDKC1Ev, __ZN6AriSdk23ARI_CsiModeSetIndCb_SDKC2EPKhj, 
                       __ZN6AriSdk23ARI_CsiModeSetIndCb_SDKC2Ev, __ZN6AriSdk23ARI_CsiXsioSetRspCb_SDK4packEPP6AriMsg, 
                       __ZN6AriSdk23ARI_CsiXsioSetRspCb_SDK6unpackEv, __ZN6AriSdk23ARI_CsiXsioSetRspCb_SDKC1EPKhj, 
                       __ZN6AriSdk23ARI_CsiXsioSetRspCb_SDKC1Ev, __ZN6AriSdk23ARI_CsiXsioSetRspCb_SDKC2EPKhj, 
                       __ZN6AriSdk23ARI_CsiXsioSetRspCb_SDKC2Ev, __ZN6AriSdk23ARI_IBICbsConfigReq_SDK4packEPP6AriMsg, 
                       __ZN6AriSdk23ARI_IBICbsConfigReq_SDK6unpackEv, __ZN6AriSdk23ARI_IBICbsConfigReq_SDKC1EPKhj, 
                       __ZN6AriSdk23ARI_IBICbsConfigReq_SDKC1Ev, __ZN6AriSdk23ARI_IBICbsConfigReq_SDKC2EPKhj, 
                       __ZN6AriSdk23ARI_IBICbsConfigReq_SDKC2Ev, __ZN6AriSdk23ARI_IBINetDetachReq_SDK4packEPP6AriMsg, 
                       __ZN6AriSdk23ARI_IBINetDetachReq_SDK6unpackEv, __ZN6AriSdk23ARI_IBINetDetachReq_SDKC1EPKhj, 
                       __ZN6AriSdk23ARI_IBINetDetachReq_SDKC1Ev, __ZN6AriSdk23ARI_IBINetDetachReq_SDKC2EPKhj, 
                       __ZN6AriSdk23ARI_IBINetDetachReq_SDKC2Ev, __ZN6AriSdk23ARI_IBISetFilterReq_SDK4packEPP6AriMsg, 
                       __ZN6AriSdk23ARI_IBISetFilterReq_SDK6unpackEv, __ZN6AriSdk23ARI_IBISetFilterReq_SDKC1EPKhj, 
                       __ZN6AriSdk23ARI_IBISetFilterReq_SDKC1Ev, __ZN6AriSdk23ARI_IBISetFilterReq_SDKC2EPKhj, 
                       __ZN6AriSdk23ARI_IBISetFilterReq_SDKC2Ev, __ZN6AriSdk23ARI_IBISimAuthRspCb_SDK4packEPP6AriMsg, 
                       __ZN6AriSdk23ARI_IBISimAuthRspCb_SDK6unpackEv, __ZN6AriSdk23ARI_IBISimAuthRspCb_SDKC1EPKhj, 
                       __ZN6AriSdk23ARI_IBISimAuthRspCb_SDKC1Ev, __ZN6AriSdk23ARI_IBISimAuthRspCb_SDKC2EPKhj, 
                       __ZN6AriSdk23ARI_IBISimAuthRspCb_SDKC2Ev, __ZN6AriSdk23ARI_IBISimGenPinReq_SDK4packEPP6AriMsg, 
                       __ZN6AriSdk23ARI_IBISimGenPinReq_SDK6unpackEv, __ZN6AriSdk23ARI_IBISimGenPinReq_SDKC1EPKhj, 
                       __ZN6AriSdk23ARI_IBISimGenPinReq_SDKC1Ev, __ZN6AriSdk23ARI_IBISimGenPinReq_SDKC2EPKhj, 
                       __ZN6AriSdk23ARI_IBISimGenPinReq_SDKC2Ev, __ZN6AriSdk23ARI_IBISimSetFdnReq_SDK4packEPP6AriMsg, 
                       __ZN6AriSdk23ARI_IBISimSetFdnReq_SDK6unpackEv, __ZN6AriSdk23ARI_IBISimSetFdnReq_SDKC1EPKhj, 
                       __ZN6AriSdk23ARI_IBISimSetFdnReq_SDKC1Ev, __ZN6AriSdk23ARI_IBISimSetFdnReq_SDKC2EPKhj, 
                       __ZN6AriSdk23ARI_IBISimSetFdnReq_SDKC2Ev, __ZN6AriSdk23ARI_IBISimTestRspCb_SDK4packEPP6AriMsg, 
                       __ZN6AriSdk23ARI_IBISimTestRspCb_SDK6unpackEv, __ZN6AriSdk23ARI_IBISimTestRspCb_SDKC1EPKhj, 
                       __ZN6AriSdk23ARI_IBISimTestRspCb_SDKC1Ev, __ZN6AriSdk23ARI_IBISimTestRspCb_SDKC2EPKhj, 
                       __ZN6AriSdk23ARI_IBISimTestRspCb_SDKC2Ev, __ZN6AriSdk23ARI_IBISsAbortRspCb_SDK4packEPP6AriMsg, 
                       __ZN6AriSdk23ARI_IBISsAbortRspCb_SDK6unpackEv, __ZN6AriSdk23ARI_IBISsAbortRspCb_SDKC1EPKhj, 
                       __ZN6AriSdk23ARI_IBISsAbortRspCb_SDKC1Ev, __ZN6AriSdk23ARI_IBISsAbortRspCb_SDKC2EPKhj, 
                       __ZN6AriSdk23ARI_IBISsAbortRspCb_SDKC2Ev, __ZN6AriSdk24ARI_AriGrpAttribResp_SDK4packEPP6AriMsg, 
                       __ZN6AriSdk24ARI_AriGrpAttribResp_SDK6unpackEv, __ZN6AriSdk24ARI_AriGrpAttribResp_SDKC1EPKhj, 
                       __ZN6AriSdk24ARI_AriGrpAttribResp_SDKC1Ev, __ZN6AriSdk24ARI_AriGrpAttribResp_SDKC2EPKhj, 
                       __ZN6AriSdk24ARI_AriGrpAttribResp_SDKC2Ev, __ZN6AriSdk24ARI_AriMsgAttribResp_SDK4packEPP6AriMsg, 
                       __ZN6AriSdk24ARI_AriMsgAttribResp_SDK6unpackEv, __ZN6AriSdk24ARI_AriMsgAttribResp_SDKC1EPKhj, 
                       __ZN6AriSdk24ARI_AriMsgAttribResp_SDKC1Ev, __ZN6AriSdk24ARI_AriMsgAttribResp_SDKC2EPKhj, 
                       __ZN6AriSdk24ARI_AriMsgAttribResp_SDKC2Ev, __ZN6AriSdk24ARI_CsiFpRegisterRsp_SDK4packEPP6AriMsg, 
                       __ZN6AriSdk24ARI_CsiFpRegisterRsp_SDK6unpackEv, __ZN6AriSdk24ARI_CsiFpRegisterRsp_SDKC1EPKhj, 
                       __ZN6AriSdk24ARI_CsiFpRegisterRsp_SDKC1Ev, __ZN6AriSdk24ARI_CsiFpRegisterRsp_SDKC2EPKhj, 
                       __ZN6AriSdk24ARI_CsiFpRegisterRsp_SDKC2Ev, __ZN6AriSdk24ARI_CsiFpSnapshotRsp_SDK4packEPP6AriMsg, 
                       __ZN6AriSdk24ARI_CsiFpSnapshotRsp_SDK6unpackEv, __ZN6AriSdk24ARI_CsiFpSnapshotRsp_SDKC1EPKhj, 
                       __ZN6AriSdk24ARI_CsiFpSnapshotRsp_SDKC1Ev, __ZN6AriSdk24ARI_CsiFpSnapshotRsp_SDKC2EPKhj, 
                       __ZN6AriSdk24ARI_CsiFpSnapshotRsp_SDKC2Ev, __ZN6AriSdk24ARI_CsiIceBspWakeInd_SDK4packEPP6AriMsg, 
                       __ZN6AriSdk24ARI_CsiIceBspWakeInd_SDK6unpackEv, __ZN6AriSdk24ARI_CsiIceBspWakeInd_SDKC1EPKhj, 
                       __ZN6AriSdk24ARI_CsiIceBspWakeInd_SDKC1Ev, __ZN6AriSdk24ARI_CsiIceBspWakeInd_SDKC2EPKhj, 
                       __ZN6AriSdk24ARI_CsiIceBspWakeInd_SDKC2Ev, __ZN6AriSdk24ARI_CsiModeSetRespCb_SDK4packEPP6AriMsg, 
                       __ZN6AriSdk24ARI_CsiModeSetRespCb_SDK6unpackEv, __ZN6AriSdk24ARI_CsiModeSetRespCb_SDKC1EPKhj, 
                       __ZN6AriSdk24ARI_CsiModeSetRespCb_SDKC1Ev, __ZN6AriSdk24ARI_CsiModeSetRespCb_SDKC2EPKhj, 
                       __ZN6AriSdk24ARI_CsiModeSetRespCb_SDKC2Ev, __ZN6AriSdk24ARI_CsiSecGetSNUMReq_SDK4packEPP6AriMsg, 
                       __ZN6AriSdk24ARI_CsiSecGetSNUMReq_SDK6unpackEv, __ZN6AriSdk24ARI_CsiSecGetSNUMReq_SDKC1EPKhj, 
                       __ZN6AriSdk24ARI_CsiSecGetSNUMReq_SDKC1Ev, __ZN6AriSdk24ARI_CsiSecGetSNUMReq_SDKC2EPKhj, 
                       __ZN6AriSdk24ARI_CsiSecGetSNUMReq_SDKC2Ev, __ZN6AriSdk24ARI_CsiSysGetInfoReq_SDK4packEPP6AriMsg, 
                       __ZN6AriSdk24ARI_CsiSysGetInfoReq_SDK6unpackEv, __ZN6AriSdk24ARI_CsiSysGetInfoReq_SDKC1EPKhj, 
                       __ZN6AriSdk24ARI_CsiSysGetInfoReq_SDKC1Ev, __ZN6AriSdk24ARI_CsiSysGetInfoReq_SDKC2EPKhj, 
                       __ZN6AriSdk24ARI_CsiSysGetInfoReq_SDKC2Ev, __ZN6AriSdk24ARI_IBICallCsCrssReq_SDK4packEPP6AriMsg, 
                       __ZN6AriSdk24ARI_IBICallCsCrssReq_SDK6unpackEv, __ZN6AriSdk24ARI_IBICallCsCrssReq_SDKC1EPKhj, 
                       __ZN6AriSdk24ARI_IBICallCsCrssReq_SDKC1Ev, __ZN6AriSdk24ARI_IBICallCsCrssReq_SDKC2EPKhj, 
                       __ZN6AriSdk24ARI_IBICallCsCrssReq_SDKC2Ev, __ZN6AriSdk24ARI_IBIPriWriteRspCb_SDK4packEPP6AriMsg, 
                       __ZN6AriSdk24ARI_IBIPriWriteRspCb_SDK6unpackEv, __ZN6AriSdk24ARI_IBIPriWriteRspCb_SDKC1EPKhj, 
                       __ZN6AriSdk24ARI_IBIPriWriteRspCb_SDKC1Ev, __ZN6AriSdk24ARI_IBIPriWriteRspCb_SDKC2EPKhj, 
                       __ZN6AriSdk24ARI_IBIPriWriteRspCb_SDKC2Ev, __ZN6AriSdk24ARI_IBISimErrorIndCb_SDK4packEPP6AriMsg, 
                       __ZN6AriSdk24ARI_IBISimErrorIndCb_SDK6unpackEv, __ZN6AriSdk24ARI_IBISimErrorIndCb_SDKC1EPKhj, 
                       __ZN6AriSdk24ARI_IBISimErrorIndCb_SDKC1Ev, __ZN6AriSdk24ARI_IBISimErrorIndCb_SDKC2EPKhj, 
                       __ZN6AriSdk24ARI_IBISimErrorIndCb_SDKC2Ev, __ZN6AriSdk24ARI_IBISmsSendReq_V2_SDK4packEPP6AriMsg, 
                       __ZN6AriSdk24ARI_IBISmsSendReq_V2_SDK6unpackEv, __ZN6AriSdk24ARI_IBISmsSendReq_V2_SDKC1EPKhj, 
                       __ZN6AriSdk24ARI_IBISmsSendReq_V2_SDKC1Ev, __ZN6AriSdk24ARI_IBISmsSendReq_V2_SDKC2EPKhj, 
                       __ZN6AriSdk24ARI_IBISmsSendReq_V2_SDKC2Ev, __ZN6AriSdk24ARI_IBISsResultIndCb_SDK4packEPP6AriMsg, 
                       __ZN6AriSdk24ARI_IBISsResultIndCb_SDK6unpackEv, __ZN6AriSdk24ARI_IBISsResultIndCb_SDKC1EPKhj, 
                       __ZN6AriSdk24ARI_IBISsResultIndCb_SDKC1Ev, __ZN6AriSdk24ARI_IBISsResultIndCb_SDKC2EPKhj, 
                       __ZN6AriSdk24ARI_IBISsResultIndCb_SDKC2Ev, __ZN6AriSdk25ARI_CsiAwdsQueryRspCb_SDK4packEPP6AriMsg, 
                       __ZN6AriSdk25ARI_CsiAwdsQueryRspCb_SDK6unpackEv, __ZN6AriSdk25ARI_CsiAwdsQueryRspCb_SDKC1EPKhj, 
                       __ZN6AriSdk25ARI_CsiAwdsQueryRspCb_SDKC1Ev, __ZN6AriSdk25ARI_CsiAwdsQueryRspCb_SDKC2EPKhj, 
                       __ZN6AriSdk25ARI_CsiAwdsQueryRspCb_SDKC2Ev, __ZN6AriSdk25ARI_CsiBspShutdownReq_SDK4packEPP6AriMsg, 
                       __ZN6AriSdk25ARI_CsiBspShutdownReq_SDK6unpackEv, __ZN6AriSdk25ARI_CsiBspShutdownReq_SDKC1EPKhj, 
                       __ZN6AriSdk25ARI_CsiBspShutdownReq_SDKC1Ev, __ZN6AriSdk25ARI_CsiBspShutdownReq_SDKC2EPKhj, 
                       __ZN6AriSdk25ARI_CsiBspShutdownReq_SDKC2Ev, __ZN6AriSdk25ARI_CsiBspStateGetReq_SDK4packEPP6AriMsg, 
                       __ZN6AriSdk25ARI_CsiBspStateGetReq_SDK6unpackEv, __ZN6AriSdk25ARI_CsiBspStateGetReq_SDKC1EPKhj, 
                       __ZN6AriSdk25ARI_CsiBspStateGetReq_SDKC1Ev, __ZN6AriSdk25ARI_CsiBspStateGetReq_SDKC2EPKhj, 
                       __ZN6AriSdk25ARI_CsiBspStateGetReq_SDKC2Ev, __ZN6AriSdk25ARI_CsiBspStateSetReq_SDK4packEPP6AriMsg, 
                       __ZN6AriSdk25ARI_CsiBspStateSetReq_SDK6unpackEv, __ZN6AriSdk25ARI_CsiBspStateSetReq_SDKC1EPKhj, 
                       __ZN6AriSdk25ARI_CsiBspStateSetReq_SDKC1Ev, __ZN6AriSdk25ARI_CsiBspStateSetReq_SDKC2EPKhj, 
                       __ZN6AriSdk25ARI_CsiBspStateSetReq_SDKC2Ev, __ZN6AriSdk25ARI_CsiBspSwTrapRspCb_SDK4packEPP6AriMsg, 
                       __ZN6AriSdk25ARI_CsiBspSwTrapRspCb_SDK6unpackEv, __ZN6AriSdk25ARI_CsiBspSwTrapRspCb_SDKC1EPKhj, 
                       __ZN6AriSdk25ARI_CsiBspSwTrapRspCb_SDKC1Ev, __ZN6AriSdk25ARI_CsiBspSwTrapRspCb_SDKC2EPKhj, 
                       __ZN6AriSdk25ARI_CsiBspSwTrapRspCb_SDKC2Ev, __ZN6AriSdk25ARI_CsiFpGetStatusRsp_SDK4packEPP6AriMsg, 
                       __ZN6AriSdk25ARI_CsiFpGetStatusRsp_SDK6unpackEv, __ZN6AriSdk25ARI_CsiFpGetStatusRsp_SDKC1EPKhj, 
                       __ZN6AriSdk25ARI_CsiFpGetStatusRsp_SDKC1Ev, __ZN6AriSdk25ARI_CsiFpGetStatusRsp_SDKC2EPKhj, 
                       __ZN6AriSdk25ARI_CsiFpGetStatusRsp_SDKC2Ev, __ZN6AriSdk25ARI_CsiFpUpdateAckRsp_SDK4packEPP6AriMsg, 
                       __ZN6AriSdk25ARI_CsiFpUpdateAckRsp_SDK6unpackEv, __ZN6AriSdk25ARI_CsiFpUpdateAckRsp_SDKC1EPKhj, 
                       __ZN6AriSdk25ARI_CsiFpUpdateAckRsp_SDKC1Ev, __ZN6AriSdk25ARI_CsiFpUpdateAckRsp_SDKC2EPKhj, 
                       __ZN6AriSdk25ARI_CsiFpUpdateAckRsp_SDKC2Ev, __ZN6AriSdk25ARI_CsiFpUpdateHeader_SDK4packEPP6AriMsg, 
                       __ZN6AriSdk25ARI_CsiFpUpdateHeader_SDK6unpackEv, __ZN6AriSdk25ARI_CsiFpUpdateHeader_SDKC1EPKhj, 
                       __ZN6AriSdk25ARI_CsiFpUpdateHeader_SDKC1Ev, __ZN6AriSdk25ARI_CsiFpUpdateHeader_SDKC2EPKhj, 
                       __ZN6AriSdk25ARI_CsiFpUpdateHeader_SDKC2Ev, __ZN6AriSdk25ARI_CsiIceCaEnableReq_SDK4packEPP6AriMsg, 
                       __ZN6AriSdk25ARI_CsiIceCaEnableReq_SDK6unpackEv, __ZN6AriSdk25ARI_CsiIceCaEnableReq_SDKC1EPKhj, 
                       __ZN6AriSdk25ARI_CsiIceCaEnableReq_SDKC1Ev, __ZN6AriSdk25ARI_CsiIceCaEnableReq_SDKC2EPKhj, 
                       __ZN6AriSdk25ARI_CsiIceCaEnableReq_SDKC2Ev, __ZN6AriSdk25ARI_IBICallPsPdnStats_SDK4packEPP6AriMsg, 
                       __ZN6AriSdk25ARI_IBICallPsPdnStats_SDK6unpackEv, __ZN6AriSdk25ARI_IBICallPsPdnStats_SDKC1EPKhj, 
                       __ZN6AriSdk25ARI_IBICallPsPdnStats_SDKC1Ev, __ZN6AriSdk25ARI_IBICallPsPdnStats_SDKC2EPKhj, 
                       __ZN6AriSdk25ARI_IBICallPsPdnStats_SDKC2Ev, __ZN6AriSdk25ARI_IBICbsConfigRspCb_SDK4packEPP6AriMsg, 
                       __ZN6AriSdk25ARI_IBICbsConfigRspCb_SDK6unpackEv, __ZN6AriSdk25ARI_IBICbsConfigRspCb_SDKC1EPKhj, 
                       __ZN6AriSdk25ARI_IBICbsConfigRspCb_SDKC1Ev, __ZN6AriSdk25ARI_IBICbsConfigRspCb_SDKC2EPKhj, 
                       __ZN6AriSdk25ARI_IBICbsConfigRspCb_SDKC2Ev, __ZN6AriSdk25ARI_IBILapsFetchIndCb_SDK4packEPP6AriMsg, 
                       __ZN6AriSdk25ARI_IBILapsFetchIndCb_SDK6unpackEv, __ZN6AriSdk25ARI_IBILapsFetchIndCb_SDKC1EPKhj, 
                       __ZN6AriSdk25ARI_IBILapsFetchIndCb_SDKC1Ev, __ZN6AriSdk25ARI_IBILapsFetchIndCb_SDKC2EPKhj, 
                       __ZN6AriSdk25ARI_IBILapsFetchIndCb_SDKC2Ev, __ZN6AriSdk25ARI_IBINetDetachRspCb_SDK4packEPP6AriMsg, 
                       __ZN6AriSdk25ARI_IBINetDetachRspCb_SDK6unpackEv, __ZN6AriSdk25ARI_IBINetDetachRspCb_SDKC1EPKhj, 
                       __ZN6AriSdk25ARI_IBINetDetachRspCb_SDKC1Ev, __ZN6AriSdk25ARI_IBINetDetachRspCb_SDKC2EPKhj, 
                       __ZN6AriSdk25ARI_IBINetDetachRspCb_SDKC2Ev, __ZN6AriSdk25ARI_IBIPriWriteReq_V2_SDK4packEPP6AriMsg, 
                       __ZN6AriSdk25ARI_IBIPriWriteReq_V2_SDK6unpackEv, __ZN6AriSdk25ARI_IBIPriWriteReq_V2_SDKC1EPKhj, 
                       __ZN6AriSdk25ARI_IBIPriWriteReq_V2_SDKC1Ev, __ZN6AriSdk25ARI_IBIPriWriteReq_V2_SDKC2EPKhj, 
                       __ZN6AriSdk25ARI_IBIPriWriteReq_V2_SDKC2Ev, __ZN6AriSdk25ARI_IBISetFilterRspCb_SDK4packEPP6AriMsg, 
                       __ZN6AriSdk25ARI_IBISetFilterRspCb_SDK6unpackEv, __ZN6AriSdk25ARI_IBISetFilterRspCb_SDKC1EPKhj, 
                       __ZN6AriSdk25ARI_IBISetFilterRspCb_SDKC1Ev, __ZN6AriSdk25ARI_IBISetFilterRspCb_SDKC2EPKhj, 
                       __ZN6AriSdk25ARI_IBISetFilterRspCb_SDKC2Ev, __ZN6AriSdk25ARI_IBISimGenPinRspCb_SDK4packEPP6AriMsg, 
                       __ZN6AriSdk25ARI_IBISimGenPinRspCb_SDK6unpackEv, __ZN6AriSdk25ARI_IBISimGenPinRspCb_SDKC1EPKhj, 
                       __ZN6AriSdk25ARI_IBISimGenPinRspCb_SDKC1Ev, __ZN6AriSdk25ARI_IBISimGenPinRspCb_SDKC2EPKhj, 
                       __ZN6AriSdk25ARI_IBISimGenPinRspCb_SDKC2Ev, __ZN6AriSdk25ARI_IBISimGetEfSmsReq_SDK4packEPP6AriMsg, 
                       __ZN6AriSdk25ARI_IBISimGetEfSmsReq_SDK6unpackEv, __ZN6AriSdk25ARI_IBISimGetEfSmsReq_SDKC1EPKhj, 
                       __ZN6AriSdk25ARI_IBISimGetEfSmsReq_SDKC1Ev, __ZN6AriSdk25ARI_IBISimGetEfSmsReq_SDKC2EPKhj, 
                       __ZN6AriSdk25ARI_IBISimGetEfSmsReq_SDKC2Ev, __ZN6AriSdk25ARI_IBISimSetFdnRspCb_SDK4packEPP6AriMsg, 
                       __ZN6AriSdk25ARI_IBISimSetFdnRspCb_SDK6unpackEv, __ZN6AriSdk25ARI_IBISimSetFdnRspCb_SDKC1EPKhj, 
                       __ZN6AriSdk25ARI_IBISimSetFdnRspCb_SDKC1Ev, __ZN6AriSdk25ARI_IBISimSetFdnRspCb_SDKC2EPKhj, 
                       __ZN6AriSdk25ARI_IBISimSetFdnRspCb_SDKC2Ev, __ZN6AriSdk25ARI_UtaMsCpsSetSvnReq_SDK4packEPP6AriMsg, 
                       __ZN6AriSdk25ARI_UtaMsCpsSetSvnReq_SDK6unpackEv, __ZN6AriSdk25ARI_UtaMsCpsSetSvnReq_SDKC1EPKhj, 
                       __ZN6AriSdk25ARI_UtaMsCpsSetSvnReq_SDKC1Ev, __ZN6AriSdk25ARI_UtaMsCpsSetSvnReq_SDKC2EPKhj, 
                       __ZN6AriSdk25ARI_UtaMsCpsSetSvnReq_SDKC2Ev, __ZN6AriSdk25ARI_UtaMsNetAttachReq_SDK4packEPP6AriMsg, 
                       __ZN6AriSdk25ARI_UtaMsNetAttachReq_SDK6unpackEv, __ZN6AriSdk25ARI_UtaMsNetAttachReq_SDKC1EPKhj, 
                       __ZN6AriSdk25ARI_UtaMsNetAttachReq_SDKC1Ev, __ZN6AriSdk25ARI_UtaMsNetAttachReq_SDKC2EPKhj, 
                       __ZN6AriSdk25ARI_UtaMsNetAttachReq_SDKC2Ev, __ZN6AriSdk25ARI_UtaMsNetDetachReq_SDK4packEPP6AriMsg, 
                       __ZN6AriSdk25ARI_UtaMsNetDetachReq_SDK6unpackEv, __ZN6AriSdk25ARI_UtaMsNetDetachReq_SDKC1EPKhj, 
                       __ZN6AriSdk25ARI_UtaMsNetDetachReq_SDKC1Ev, __ZN6AriSdk25ARI_UtaMsNetDetachReq_SDKC2EPKhj, 
                       __ZN6AriSdk25ARI_UtaMsNetDetachReq_SDKC2Ev, __ZN6AriSdk26ARI_CsiIceArfcnLockReq_SDK4packEPP6AriMsg, 
                       __ZN6AriSdk26ARI_CsiIceArfcnLockReq_SDK6unpackEv, __ZN6AriSdk26ARI_CsiIceArfcnLockReq_SDKC1EPKhj, 
                       __ZN6AriSdk26ARI_CsiIceArfcnLockReq_SDKC1Ev, __ZN6AriSdk26ARI_CsiIceArfcnLockReq_SDKC2EPKhj, 
                       __ZN6AriSdk26ARI_CsiIceArfcnLockReq_SDKC2Ev, __ZN6AriSdk26ARI_CsiIceAudSetI2SReq_SDK4packEPP6AriMsg, 
                       __ZN6AriSdk26ARI_CsiIceAudSetI2SReq_SDK6unpackEv, __ZN6AriSdk26ARI_CsiIceAudSetI2SReq_SDKC1EPKhj, 
                       __ZN6AriSdk26ARI_CsiIceAudSetI2SReq_SDKC1Ev, __ZN6AriSdk26ARI_CsiIceAudSetI2SReq_SDKC2EPKhj, 
                       __ZN6AriSdk26ARI_CsiIceAudSetI2SReq_SDKC2Ev, __ZN6AriSdk26ARI_CsiIceBBTxStateInd_SDK4packEPP6AriMsg, 
                       __ZN6AriSdk26ARI_CsiIceBBTxStateInd_SDK6unpackEv, __ZN6AriSdk26ARI_CsiIceBBTxStateInd_SDKC1EPKhj, 
                       __ZN6AriSdk26ARI_CsiIceBBTxStateInd_SDKC1Ev, __ZN6AriSdk26ARI_CsiIceBBTxStateInd_SDKC2EPKhj, 
                       __ZN6AriSdk26ARI_CsiIceBBTxStateInd_SDKC2Ev, __ZN6AriSdk26ARI_CsiIceFilerReadReq_SDK4packEPP6AriMsg, 
                       __ZN6AriSdk26ARI_CsiIceFilerReadReq_SDK6unpackEv, __ZN6AriSdk26ARI_CsiIceFilerReadReq_SDKC1EPKhj, 
                       __ZN6AriSdk26ARI_CsiIceFilerReadReq_SDKC1Ev, __ZN6AriSdk26ARI_CsiIceFilerReadReq_SDKC2EPKhj, 
                       __ZN6AriSdk26ARI_CsiIceFilerReadReq_SDKC2Ev, __ZN6AriSdk26ARI_CsiIceSarEnableReq_SDK4packEPP6AriMsg, 
                       __ZN6AriSdk26ARI_CsiIceSarEnableReq_SDK6unpackEv, __ZN6AriSdk26ARI_CsiIceSarEnableReq_SDKC1EPKhj, 
                       __ZN6AriSdk26ARI_CsiIceSarEnableReq_SDKC1Ev, __ZN6AriSdk26ARI_CsiIceSarEnableReq_SDKC2EPKhj, 
                       __ZN6AriSdk26ARI_CsiIceSarEnableReq_SDKC2Ev, __ZN6AriSdk26ARI_CsiSecGetChipIdReq_SDK4packEPP6AriMsg, 
                       __ZN6AriSdk26ARI_CsiSecGetChipIdReq_SDK6unpackEv, __ZN6AriSdk26ARI_CsiSecGetChipIdReq_SDKC1EPKhj, 
                       __ZN6AriSdk26ARI_CsiSecGetChipIdReq_SDKC1Ev, __ZN6AriSdk26ARI_CsiSecGetChipIdReq_SDKC2EPKhj, 
                       __ZN6AriSdk26ARI_CsiSecGetChipIdReq_SDKC2Ev, __ZN6AriSdk26ARI_CsiSecGetPkHashReq_SDK4packEPP6AriMsg, 
                       __ZN6AriSdk26ARI_CsiSecGetPkHashReq_SDK6unpackEv, __ZN6AriSdk26ARI_CsiSecGetPkHashReq_SDKC1EPKhj, 
                       __ZN6AriSdk26ARI_CsiSecGetPkHashReq_SDKC1Ev, __ZN6AriSdk26ARI_CsiSecGetPkHashReq_SDKC2EPKhj, 
                       __ZN6AriSdk26ARI_CsiSecGetPkHashReq_SDKC2Ev, __ZN6AriSdk26ARI_CsiSecGetSNUMRspCb_SDK4packEPP6AriMsg, 
                       __ZN6AriSdk26ARI_CsiSecGetSNUMRspCb_SDK6unpackEv, __ZN6AriSdk26ARI_CsiSecGetSNUMRspCb_SDKC1EPKhj, 
                       __ZN6AriSdk26ARI_CsiSecGetSNUMRspCb_SDKC1Ev, __ZN6AriSdk26ARI_CsiSecGetSNUMRspCb_SDKC2EPKhj, 
                       __ZN6AriSdk26ARI_CsiSecGetSNUMRspCb_SDKC2Ev, __ZN6AriSdk26ARI_CsiSysGetInfoRspCb_SDK4packEPP6AriMsg, 
                       __ZN6AriSdk26ARI_CsiSysGetInfoRspCb_SDK6unpackEv, __ZN6AriSdk26ARI_CsiSysGetInfoRspCb_SDKC1EPKhj, 
                       __ZN6AriSdk26ARI_CsiSysGetInfoRspCb_SDKC1Ev, __ZN6AriSdk26ARI_CsiSysGetInfoRspCb_SDKC2EPKhj, 
                       __ZN6AriSdk26ARI_CsiSysGetInfoRspCb_SDKC2Ev, __ZN6AriSdk26ARI_IBICallCsCrssRspCb_SDK4packEPP6AriMsg, 
                       __ZN6AriSdk26ARI_IBICallCsCrssRspCb_SDK6unpackEv, __ZN6AriSdk26ARI_IBICallCsCrssRspCb_SDKC1EPKhj, 
                       __ZN6AriSdk26ARI_IBICallCsCrssRspCb_SDKC1Ev, __ZN6AriSdk26ARI_IBICallCsCrssRspCb_SDKC2EPKhj, 
                       __ZN6AriSdk26ARI_IBICallCsCrssRspCb_SDKC2Ev, __ZN6AriSdk26ARI_IBICbsGetConfigReq_SDK4packEPP6AriMsg, 
                       __ZN6AriSdk26ARI_IBICbsGetConfigReq_SDK6unpackEv, __ZN6AriSdk26ARI_IBICbsGetConfigReq_SDKC1EPKhj, 
                       __ZN6AriSdk26ARI_IBICbsGetConfigReq_SDKC1Ev, __ZN6AriSdk26ARI_IBICbsGetConfigReq_SDKC2EPKhj, 
                       __ZN6AriSdk26ARI_IBICbsGetConfigReq_SDKC2Ev, __ZN6AriSdk26ARI_IBINetAttachReq_V1_SDK4packEPP6AriMsg, 
                       __ZN6AriSdk26ARI_IBINetAttachReq_V1_SDK6unpackEv, __ZN6AriSdk26ARI_IBINetAttachReq_V1_SDKC1EPKhj, 
                       __ZN6AriSdk26ARI_IBINetAttachReq_V1_SDKC1Ev, __ZN6AriSdk26ARI_IBINetAttachReq_V1_SDKC2EPKhj, 
                       __ZN6AriSdk26ARI_IBINetAttachReq_V1_SDKC2Ev, __ZN6AriSdk26ARI_IBINetPowerDownReq_SDK4packEPP6AriMsg, 
                       __ZN6AriSdk26ARI_IBINetPowerDownReq_SDK6unpackEv, __ZN6AriSdk26ARI_IBINetPowerDownReq_SDKC1EPKhj, 
                       __ZN6AriSdk26ARI_IBINetPowerDownReq_SDKC1Ev, __ZN6AriSdk26ARI_IBINetPowerDownReq_SDKC2EPKhj, 
                       __ZN6AriSdk26ARI_IBINetPowerDownReq_SDKC2Ev, __ZN6AriSdk26ARI_IBIP2PMessageIndCb_SDK4packEPP6AriMsg, 
                       __ZN6AriSdk26ARI_IBIP2PMessageIndCb_SDK6unpackEv, __ZN6AriSdk26ARI_IBIP2PMessageIndCb_SDKC1EPKhj, 
                       __ZN6AriSdk26ARI_IBIP2PMessageIndCb_SDKC1Ev, __ZN6AriSdk26ARI_IBIP2PMessageIndCb_SDKC2EPKhj, 
                       __ZN6AriSdk26ARI_IBIP2PMessageIndCb_SDKC2Ev, __ZN6AriSdk26ARI_IBISimAccessFcpReq_SDK4packEPP6AriMsg, 
                       __ZN6AriSdk26ARI_IBISimAccessFcpReq_SDK6unpackEv, __ZN6AriSdk26ARI_IBISimAccessFcpReq_SDKC1EPKhj, 
                       __ZN6AriSdk26ARI_IBISimAccessFcpReq_SDKC1Ev, __ZN6AriSdk26ARI_IBISimAccessFcpReq_SDKC2EPKhj, 
                       __ZN6AriSdk26ARI_IBISimAccessFcpReq_SDKC2Ev, __ZN6AriSdk26ARI_IBISimEccListIndCb_SDK4packEPP6AriMsg, 
                       __ZN6AriSdk26ARI_IBISimEccListIndCb_SDK6unpackEv, __ZN6AriSdk26ARI_IBISimEccListIndCb_SDKC1EPKhj, 
                       __ZN6AriSdk26ARI_IBISimEccListIndCb_SDKC1Ev, __ZN6AriSdk26ARI_IBISimEccListIndCb_SDKC2EPKhj, 
                       __ZN6AriSdk26ARI_IBISimEccListIndCb_SDKC2Ev, __ZN6AriSdk26ARI_IBISimFdnListIndCb_SDK4packEPP6AriMsg, 
                       __ZN6AriSdk26ARI_IBISimFdnListIndCb_SDK6unpackEv, __ZN6AriSdk26ARI_IBISimFdnListIndCb_SDKC1EPKhj, 
                       __ZN6AriSdk26ARI_IBISimFdnListIndCb_SDKC1Ev, __ZN6AriSdk26ARI_IBISimFdnListIndCb_SDKC2EPKhj, 
                       __ZN6AriSdk26ARI_IBISimFdnListIndCb_SDKC2Ev, __ZN6AriSdk26ARI_IBISimMsgListIndCb_SDK4packEPP6AriMsg, 
                       __ZN6AriSdk26ARI_IBISimMsgListIndCb_SDK6unpackEv, __ZN6AriSdk26ARI_IBISimMsgListIndCb_SDKC1EPKhj, 
                       __ZN6AriSdk26ARI_IBISimMsgListIndCb_SDKC1Ev, __ZN6AriSdk26ARI_IBISimMsgListIndCb_SDKC2EPKhj, 
                       __ZN6AriSdk26ARI_IBISimMsgListIndCb_SDKC2Ev, __ZN6AriSdk26ARI_IBISmsSendRspCb_V2_SDK4packEPP6AriMsg, 
                       __ZN6AriSdk26ARI_IBISmsSendRspCb_V2_SDK6unpackEv, __ZN6AriSdk26ARI_IBISmsSendRspCb_V2_SDKC1EPKhj, 
                       __ZN6AriSdk26ARI_IBISmsSendRspCb_V2_SDKC1Ev, __ZN6AriSdk26ARI_IBISmsSendRspCb_V2_SDKC2EPKhj, 
                       __ZN6AriSdk26ARI_IBISmsSendRspCb_V2_SDKC2Ev, __ZN6AriSdk26ARI_IBISmsServiceIndCb_SDK4packEPP6AriMsg, 
                       __ZN6AriSdk26ARI_IBISmsServiceIndCb_SDK6unpackEv, __ZN6AriSdk26ARI_IBISmsServiceIndCb_SDKC1EPKhj, 
                       __ZN6AriSdk26ARI_IBISmsServiceIndCb_SDKC1Ev, __ZN6AriSdk26ARI_IBISmsServiceIndCb_SDKC2EPKhj, 
                       __ZN6AriSdk26ARI_IBISmsServiceIndCb_SDKC2Ev, __ZN6AriSdk26ARI_IBISsFwdCheckIndCb_SDK4packEPP6AriMsg, 
                       __ZN6AriSdk26ARI_IBISsFwdCheckIndCb_SDK6unpackEv, __ZN6AriSdk26ARI_IBISsFwdCheckIndCb_SDKC1EPKhj, 
                       __ZN6AriSdk26ARI_IBISsFwdCheckIndCb_SDKC1Ev, __ZN6AriSdk26ARI_IBISsFwdCheckIndCb_SDKC2EPKhj, 
                       __ZN6AriSdk26ARI_IBISsFwdCheckIndCb_SDKC2Ev, __ZN6AriSdk27ARI_AriGrpMsgsAttribReq_SDK4packEPP6AriMsg, 
                       __ZN6AriSdk27ARI_AriGrpMsgsAttribReq_SDK6unpackEv, __ZN6AriSdk27ARI_AriGrpMsgsAttribReq_SDKC1EPKhj, 
                       __ZN6AriSdk27ARI_AriGrpMsgsAttribReq_SDKC1Ev, __ZN6AriSdk27ARI_AriGrpMsgsAttribReq_SDKC2EPKhj, 
                       __ZN6AriSdk27ARI_AriGrpMsgsAttribReq_SDKC2Ev, __ZN6AriSdk27ARI_CsiAwdsAddConfigReq_SDK4packEPP6AriMsg, 
                       __ZN6AriSdk27ARI_CsiAwdsAddConfigReq_SDK6unpackEv, __ZN6AriSdk27ARI_CsiAwdsAddConfigReq_SDKC1EPKhj, 
                       __ZN6AriSdk27ARI_CsiAwdsAddConfigReq_SDKC1Ev, __ZN6AriSdk27ARI_CsiAwdsAddConfigReq_SDKC2EPKhj, 
                       __ZN6AriSdk27ARI_CsiAwdsAddConfigReq_SDKC2Ev, __ZN6AriSdk27ARI_CsiAwdsMetricSubInd_SDK4packEPP6AriMsg, 
                       __ZN6AriSdk27ARI_CsiAwdsMetricSubInd_SDK6unpackEv, __ZN6AriSdk27ARI_CsiAwdsMetricSubInd_SDKC1EPKhj, 
                       __ZN6AriSdk27ARI_CsiAwdsMetricSubInd_SDKC1Ev, __ZN6AriSdk27ARI_CsiAwdsMetricSubInd_SDKC2EPKhj, 
                       __ZN6AriSdk27ARI_CsiAwdsMetricSubInd_SDKC2Ev, __ZN6AriSdk27ARI_CsiBspShutdownRspCb_SDK4packEPP6AriMsg, 
                       __ZN6AriSdk27ARI_CsiBspShutdownRspCb_SDK6unpackEv, __ZN6AriSdk27ARI_CsiBspShutdownRspCb_SDKC1EPKhj, 
                       __ZN6AriSdk27ARI_CsiBspShutdownRspCb_SDKC1Ev, __ZN6AriSdk27ARI_CsiBspShutdownRspCb_SDKC2EPKhj, 
                       __ZN6AriSdk27ARI_CsiBspShutdownRspCb_SDKC2Ev, __ZN6AriSdk27ARI_CsiBspStateGetRspCb_SDK4packEPP6AriMsg, 
                       __ZN6AriSdk27ARI_CsiBspStateGetRspCb_SDK6unpackEv, __ZN6AriSdk27ARI_CsiBspStateGetRspCb_SDKC1EPKhj, 
                       __ZN6AriSdk27ARI_CsiBspStateGetRspCb_SDKC1Ev, __ZN6AriSdk27ARI_CsiBspStateGetRspCb_SDKC2EPKhj, 
                       __ZN6AriSdk27ARI_CsiBspStateGetRspCb_SDKC2Ev, __ZN6AriSdk27ARI_CsiBspStateSetRspCb_SDK4packEPP6AriMsg, 
                       __ZN6AriSdk27ARI_CsiBspStateSetRspCb_SDK6unpackEv, __ZN6AriSdk27ARI_CsiBspStateSetRspCb_SDKC1EPKhj, 
                       __ZN6AriSdk27ARI_CsiBspStateSetRspCb_SDKC1Ev, __ZN6AriSdk27ARI_CsiBspStateSetRspCb_SDKC2EPKhj, 
                       __ZN6AriSdk27ARI_CsiBspStateSetRspCb_SDKC2Ev, __ZN6AriSdk27ARI_CsiBspStopSysmonReq_SDK4packEPP6AriMsg, 
                       __ZN6AriSdk27ARI_CsiBspStopSysmonReq_SDK6unpackEv, __ZN6AriSdk27ARI_CsiBspStopSysmonReq_SDKC1EPKhj, 
                       __ZN6AriSdk27ARI_CsiBspStopSysmonReq_SDKC1Ev, __ZN6AriSdk27ARI_CsiBspStopSysmonReq_SDKC2EPKhj, 
                       __ZN6AriSdk27ARI_CsiBspStopSysmonReq_SDKC2Ev, __ZN6AriSdk27ARI_CsiFpPrioSyncReqInd_SDK4packEPP6AriMsg, 
                       __ZN6AriSdk27ARI_CsiFpPrioSyncReqInd_SDK6unpackEv, __ZN6AriSdk27ARI_CsiFpPrioSyncReqInd_SDKC1EPKhj, 
                       __ZN6AriSdk27ARI_CsiFpPrioSyncReqInd_SDKC1Ev, __ZN6AriSdk27ARI_CsiFpPrioSyncReqInd_SDKC2EPKhj, 
                       __ZN6AriSdk27ARI_CsiFpPrioSyncReqInd_SDKC2Ev, __ZN6AriSdk27ARI_CsiGetSystemTimeReq_SDK4packEPP6AriMsg, 
                       __ZN6AriSdk27ARI_CsiGetSystemTimeReq_SDK6unpackEv, __ZN6AriSdk27ARI_CsiGetSystemTimeReq_SDKC1EPKhj, 
                       __ZN6AriSdk27ARI_CsiGetSystemTimeReq_SDKC1Ev, __ZN6AriSdk27ARI_CsiGetSystemTimeReq_SDKC2EPKhj, 
                       __ZN6AriSdk27ARI_CsiGetSystemTimeReq_SDKC2Ev, __ZN6AriSdk27ARI_CsiIceCaEnableRspCb_SDK4packEPP6AriMsg, 
                       __ZN6AriSdk27ARI_CsiIceCaEnableRspCb_SDK6unpackEv, __ZN6AriSdk27ARI_CsiIceCaEnableRspCb_SDKC1EPKhj, 
                       __ZN6AriSdk27ARI_CsiIceCaEnableRspCb_SDKC1Ev, __ZN6AriSdk27ARI_CsiIceCaEnableRspCb_SDKC2EPKhj, 
                       __ZN6AriSdk27ARI_CsiIceCaEnableRspCb_SDKC2Ev, __ZN6AriSdk27ARI_CsiIceFilerWriteReq_SDK4packEPP6AriMsg, 
                       __ZN6AriSdk27ARI_CsiIceFilerWriteReq_SDK6unpackEv, __ZN6AriSdk27ARI_CsiIceFilerWriteReq_SDKC1EPKhj, 
                       __ZN6AriSdk27ARI_CsiIceFilerWriteReq_SDKC1Ev, __ZN6AriSdk27ARI_CsiIceFilerWriteReq_SDKC2EPKhj, 
                       __ZN6AriSdk27ARI_CsiIceFilerWriteReq_SDKC2Ev, __ZN6AriSdk27ARI_CsiIceHearingAidReq_SDK4packEPP6AriMsg, 
                       __ZN6AriSdk27ARI_CsiIceHearingAidReq_SDK6unpackEv, __ZN6AriSdk27ARI_CsiIceHearingAidReq_SDKC1EPKhj, 
                       __ZN6AriSdk27ARI_CsiIceHearingAidReq_SDKC1Ev, __ZN6AriSdk27ARI_CsiIceHearingAidReq_SDKC2EPKhj, 
                       __ZN6AriSdk27ARI_CsiIceHearingAidReq_SDKC2Ev, __ZN6AriSdk27ARI_CsiMsCpsReadImeiReq_SDK4packEPP6AriMsg, 
                       __ZN6AriSdk27ARI_CsiMsCpsReadImeiReq_SDK6unpackEv, __ZN6AriSdk27ARI_CsiMsCpsReadImeiReq_SDKC1EPKhj, 
                       __ZN6AriSdk27ARI_CsiMsCpsReadImeiReq_SDKC1Ev, __ZN6AriSdk27ARI_CsiMsCpsReadImeiReq_SDKC2EPKhj, 
                       __ZN6AriSdk27ARI_CsiMsCpsReadImeiReq_SDKC2Ev, __ZN6AriSdk27ARI_CsiTraceAddMasksReq_SDK4packEPP6AriMsg, 
                       __ZN6AriSdk27ARI_CsiTraceAddMasksReq_SDK6unpackEv, __ZN6AriSdk27ARI_CsiTraceAddMasksReq_SDKC1EPKhj, 
                       __ZN6AriSdk27ARI_CsiTraceAddMasksReq_SDKC1Ev, __ZN6AriSdk27ARI_CsiTraceAddMasksReq_SDKC2EPKhj, 
                       __ZN6AriSdk27ARI_CsiTraceAddMasksReq_SDKC2Ev, __ZN6AriSdk27ARI_CsiTraceModeInitReq_SDK4packEPP6AriMsg, 
                       __ZN6AriSdk27ARI_CsiTraceModeInitReq_SDK6unpackEv, __ZN6AriSdk27ARI_CsiTraceModeInitReq_SDKC1EPKhj, 
                       __ZN6AriSdk27ARI_CsiTraceModeInitReq_SDKC1Ev, __ZN6AriSdk27ARI_CsiTraceModeInitReq_SDKC2EPKhj, 
                       __ZN6AriSdk27ARI_CsiTraceModeInitReq_SDKC2Ev, __ZN6AriSdk27ARI_IBICallPsRegisterFT_SDK4packEPP6AriMsg, 
                       __ZN6AriSdk27ARI_IBICallPsRegisterFT_SDK6unpackEv, __ZN6AriSdk27ARI_IBICallPsRegisterFT_SDKC1EPKhj, 
                       __ZN6AriSdk27ARI_IBICallPsRegisterFT_SDKC1Ev, __ZN6AriSdk27ARI_IBICallPsRegisterFT_SDKC2EPKhj, 
                       __ZN6AriSdk27ARI_IBICallPsRegisterFT_SDKC2Ev, __ZN6AriSdk27ARI_IBIMsLpGnssAbortCnf_SDK4packEPP6AriMsg, 
                       __ZN6AriSdk27ARI_IBIMsLpGnssAbortCnf_SDK6unpackEv, __ZN6AriSdk27ARI_IBIMsLpGnssAbortCnf_SDKC1EPKhj, 
                       __ZN6AriSdk27ARI_IBIMsLpGnssAbortCnf_SDKC1Ev, __ZN6AriSdk27ARI_IBIMsLpGnssAbortCnf_SDKC2EPKhj, 
                       __ZN6AriSdk27ARI_IBIMsLpGnssAbortCnf_SDKC2Ev, __ZN6AriSdk27ARI_IBINetBandStatusReq_SDK4packEPP6AriMsg, 
                       __ZN6AriSdk27ARI_IBINetBandStatusReq_SDK6unpackEv, __ZN6AriSdk27ARI_IBINetBandStatusReq_SDKC1EPKhj, 
                       __ZN6AriSdk27ARI_IBINetBandStatusReq_SDKC1Ev, __ZN6AriSdk27ARI_IBINetBandStatusReq_SDKC2EPKhj, 
                       __ZN6AriSdk27ARI_IBINetBandStatusReq_SDKC2Ev, __ZN6AriSdk27ARI_IBINetCellInfoIndCb_SDK4packEPP6AriMsg, 
                       __ZN6AriSdk27ARI_IBINetCellInfoIndCb_SDK6unpackEv, __ZN6AriSdk27ARI_IBINetCellInfoIndCb_SDKC1EPKhj, 
                       __ZN6AriSdk27ARI_IBINetCellInfoIndCb_SDKC1Ev, __ZN6AriSdk27ARI_IBINetCellInfoIndCb_SDKC2EPKhj, 
                       __ZN6AriSdk27ARI_IBINetCellInfoIndCb_SDKC2Ev, __ZN6AriSdk27ARI_IBIPriWriteRspCb_V2_SDK4packEPP6AriMsg, 
                       __ZN6AriSdk27ARI_IBIPriWriteRspCb_V2_SDK6unpackEv, __ZN6AriSdk27ARI_IBIPriWriteRspCb_V2_SDKC1EPKhj, 
                       __ZN6AriSdk27ARI_IBIPriWriteRspCb_V2_SDKC1Ev, __ZN6AriSdk27ARI_IBIPriWriteRspCb_V2_SDKC2EPKhj, 
                       __ZN6AriSdk27ARI_IBIPriWriteRspCb_V2_SDKC2Ev, __ZN6AriSdk27ARI_IBISendApacsDataReq_SDK4packEPP6AriMsg, 
                       __ZN6AriSdk27ARI_IBISendApacsDataReq_SDK6unpackEv, __ZN6AriSdk27ARI_IBISendApacsDataReq_SDKC1EPKhj, 
                       __ZN6AriSdk27ARI_IBISendApacsDataReq_SDKC1Ev, __ZN6AriSdk27ARI_IBISendApacsDataReq_SDKC2EPKhj, 
                       __ZN6AriSdk27ARI_IBISendApacsDataReq_SDKC2Ev, __ZN6AriSdk27ARI_IBISimGetEccListReq_SDK4packEPP6AriMsg, 
                       __ZN6AriSdk27ARI_IBISimGetEccListReq_SDK6unpackEv, __ZN6AriSdk27ARI_IBISimGetEccListReq_SDKC1EPKhj, 
                       __ZN6AriSdk27ARI_IBISimGetEccListReq_SDKC1Ev, __ZN6AriSdk27ARI_IBISimGetEccListReq_SDKC2EPKhj, 
                       __ZN6AriSdk27ARI_IBISimGetEccListReq_SDKC2Ev, __ZN6AriSdk27ARI_IBISimGetEfSmsRspCb_SDK4packEPP6AriMsg, 
                       __ZN6AriSdk27ARI_IBISimGetEfSmsRspCb_SDK6unpackEv, __ZN6AriSdk27ARI_IBISimGetEfSmsRspCb_SDKC1EPKhj, 
                       __ZN6AriSdk27ARI_IBISimGetEfSmsRspCb_SDKC1Ev, __ZN6AriSdk27ARI_IBISimGetEfSmsRspCb_SDKC2EPKhj, 
                       __ZN6AriSdk27ARI_IBISimGetEfSmsRspCb_SDKC2Ev, __ZN6AriSdk27ARI_IBISimGetFdnListReq_SDK4packEPP6AriMsg, 
                       __ZN6AriSdk27ARI_IBISimGetFdnListReq_SDK6unpackEv, __ZN6AriSdk27ARI_IBISimGetFdnListReq_SDKC1EPKhj, 
                       __ZN6AriSdk27ARI_IBISimGetFdnListReq_SDKC1Ev, __ZN6AriSdk27ARI_IBISimGetFdnListReq_SDKC2EPKhj, 
                       __ZN6AriSdk27ARI_IBISimGetFdnListReq_SDKC2Ev, __ZN6AriSdk27ARI_IBISimGetMsgListReq_SDK4packEPP6AriMsg, 
                       __ZN6AriSdk27ARI_IBISimGetMsgListReq_SDK6unpackEv, __ZN6AriSdk27ARI_IBISimGetMsgListReq_SDKC1EPKhj, 
                       __ZN6AriSdk27ARI_IBISimGetMsgListReq_SDKC1Ev, __ZN6AriSdk27ARI_IBISimGetMsgListReq_SDKC2EPKhj, 
                       __ZN6AriSdk27ARI_IBISimGetMsgListReq_SDKC2Ev, __ZN6AriSdk27ARI_IBISimPbLocationReq_SDK4packEPP6AriMsg, 
                       __ZN6AriSdk27ARI_IBISimPbLocationReq_SDK6unpackEv, __ZN6AriSdk27ARI_IBISimPbLocationReq_SDKC1EPKhj, 
                       __ZN6AriSdk27ARI_IBISimPbLocationReq_SDKC1Ev, __ZN6AriSdk27ARI_IBISimPbLocationReq_SDKC2EPKhj, 
                       __ZN6AriSdk27ARI_IBISimPbLocationReq_SDKC2Ev, __ZN6AriSdk27ARI_IBISmsIncomingIndCb_SDK4packEPP6AriMsg, 
                       __ZN6AriSdk27ARI_IBISmsIncomingIndCb_SDK6unpackEv, __ZN6AriSdk27ARI_IBISmsIncomingIndCb_SDKC1EPKhj, 
                       __ZN6AriSdk27ARI_IBISmsIncomingIndCb_SDKC1Ev, __ZN6AriSdk27ARI_IBISmsIncomingIndCb_SDKC2EPKhj, 
                       __ZN6AriSdk27ARI_IBISmsIncomingIndCb_SDKC2Ev, __ZN6AriSdk27ARI_IBISsCallBarringReq_SDK4packEPP6AriMsg, 
                       __ZN6AriSdk27ARI_IBISsCallBarringReq_SDK6unpackEv, __ZN6AriSdk27ARI_IBISsCallBarringReq_SDKC1EPKhj, 
                       __ZN6AriSdk27ARI_IBISsCallBarringReq_SDKC1Ev, __ZN6AriSdk27ARI_IBISsCallBarringReq_SDKC2EPKhj, 
                       __ZN6AriSdk27ARI_IBISsCallBarringReq_SDKC2Ev, __ZN6AriSdk27ARI_IBISsCallForwardReq_SDK4packEPP6AriMsg, 
                       __ZN6AriSdk27ARI_IBISsCallForwardReq_SDK6unpackEv, __ZN6AriSdk27ARI_IBISsCallForwardReq_SDKC1EPKhj, 
                       __ZN6AriSdk27ARI_IBISsCallForwardReq_SDKC1Ev, __ZN6AriSdk27ARI_IBISsCallForwardReq_SDKC2EPKhj, 
                       __ZN6AriSdk27ARI_IBISsCallForwardReq_SDKC2Ev, __ZN6AriSdk27ARI_IBISsCallWaitingReq_SDK4packEPP6AriMsg, 
                       __ZN6AriSdk27ARI_IBISsCallWaitingReq_SDK6unpackEv, __ZN6AriSdk27ARI_IBISsCallWaitingReq_SDKC1EPKhj, 
                       __ZN6AriSdk27ARI_IBISsCallWaitingReq_SDKC1Ev, __ZN6AriSdk27ARI_IBISsCallWaitingReq_SDKC2EPKhj, 
                       __ZN6AriSdk27ARI_IBISsCallWaitingReq_SDKC2Ev, __ZN6AriSdk28ARI_AriGrpMsgsAttribResp_SDK4packEPP6AriMsg, 
                       __ZN6AriSdk28ARI_AriGrpMsgsAttribResp_SDK6unpackEv, __ZN6AriSdk28ARI_AriGrpMsgsAttribResp_SDKC1EPKhj, 
                       __ZN6AriSdk28ARI_AriGrpMsgsAttribResp_SDKC1Ev, __ZN6AriSdk28ARI_AriGrpMsgsAttribResp_SDKC2EPKhj, 
                       __ZN6AriSdk28ARI_AriGrpMsgsAttribResp_SDKC2Ev, __ZN6AriSdk28ARI_CsiBspStartSysmonReq_SDK4packEPP6AriMsg, 
                       __ZN6AriSdk28ARI_CsiBspStartSysmonReq_SDK6unpackEv, __ZN6AriSdk28ARI_CsiBspStartSysmonReq_SDKC1EPKhj, 
                       __ZN6AriSdk28ARI_CsiBspStartSysmonReq_SDKC1Ev, __ZN6AriSdk28ARI_CsiBspStartSysmonReq_SDKC2EPKhj, 
                       __ZN6AriSdk28ARI_CsiBspStartSysmonReq_SDKC2Ev, __ZN6AriSdk28ARI_CsiCddGetDebugLogReq_SDK4packEPP6AriMsg, 
                       __ZN6AriSdk28ARI_CsiCddGetDebugLogReq_SDK6unpackEv, __ZN6AriSdk28ARI_CsiCddGetDebugLogReq_SDKC1EPKhj, 
                       __ZN6AriSdk28ARI_CsiCddGetDebugLogReq_SDKC1Ev, __ZN6AriSdk28ARI_CsiCddGetDebugLogReq_SDKC2EPKhj, 
                       __ZN6AriSdk28ARI_CsiCddGetDebugLogReq_SDKC2Ev, __ZN6AriSdk28ARI_CsiGetSystemTimeResp_SDK4packEPP6AriMsg, 
                       __ZN6AriSdk28ARI_CsiGetSystemTimeResp_SDK6unpackEv, __ZN6AriSdk28ARI_CsiGetSystemTimeResp_SDKC1EPKhj, 
                       __ZN6AriSdk28ARI_CsiGetSystemTimeResp_SDKC1Ev, __ZN6AriSdk28ARI_CsiGetSystemTimeResp_SDKC2EPKhj, 
                       __ZN6AriSdk28ARI_CsiGetSystemTimeResp_SDKC2Ev, __ZN6AriSdk28ARI_CsiIceAntennaPrefReq_SDK4packEPP6AriMsg, 
                       __ZN6AriSdk28ARI_CsiIceAntennaPrefReq_SDK6unpackEv, __ZN6AriSdk28ARI_CsiIceAntennaPrefReq_SDKC1EPKhj, 
                       __ZN6AriSdk28ARI_CsiIceAntennaPrefReq_SDKC1Ev, __ZN6AriSdk28ARI_CsiIceAntennaPrefReq_SDKC2EPKhj, 
                       __ZN6AriSdk28ARI_CsiIceAntennaPrefReq_SDKC2Ev, __ZN6AriSdk28ARI_CsiIceArfcnLockRspCb_SDK4packEPP6AriMsg, 
                       __ZN6AriSdk28ARI_CsiIceArfcnLockRspCb_SDK6unpackEv, __ZN6AriSdk28ARI_CsiIceArfcnLockRspCb_SDKC1EPKhj, 
                       __ZN6AriSdk28ARI_CsiIceArfcnLockRspCb_SDKC1Ev, __ZN6AriSdk28ARI_CsiIceArfcnLockRspCb_SDKC2EPKhj, 
                       __ZN6AriSdk28ARI_CsiIceArfcnLockRspCb_SDKC2Ev, __ZN6AriSdk28ARI_CsiIceArtdSettingReq_SDK4packEPP6AriMsg, 
                       __ZN6AriSdk28ARI_CsiIceArtdSettingReq_SDK6unpackEv, __ZN6AriSdk28ARI_CsiIceArtdSettingReq_SDKC1EPKhj, 
                       __ZN6AriSdk28ARI_CsiIceArtdSettingReq_SDKC1Ev, __ZN6AriSdk28ARI_CsiIceArtdSettingReq_SDKC2EPKhj, 
                       __ZN6AriSdk28ARI_CsiIceArtdSettingReq_SDKC2Ev, __ZN6AriSdk28ARI_CsiIceAudLoopbackReq_SDK4packEPP6AriMsg, 
                       __ZN6AriSdk28ARI_CsiIceAudLoopbackReq_SDK6unpackEv, __ZN6AriSdk28ARI_CsiIceAudLoopbackReq_SDKC1EPKhj, 
                       __ZN6AriSdk28ARI_CsiIceAudLoopbackReq_SDKC1Ev, __ZN6AriSdk28ARI_CsiIceAudLoopbackReq_SDKC2EPKhj, 
                       __ZN6AriSdk28ARI_CsiIceAudLoopbackReq_SDKC2Ev, __ZN6AriSdk28ARI_CsiIceAudToneStopReq_SDK4packEPP6AriMsg, 
                       __ZN6AriSdk28ARI_CsiIceAudToneStopReq_SDK6unpackEv, __ZN6AriSdk28ARI_CsiIceAudToneStopReq_SDKC1EPKhj, 
                       __ZN6AriSdk28ARI_CsiIceAudToneStopReq_SDKC1Ev, __ZN6AriSdk28ARI_CsiIceAudToneStopReq_SDKC2EPKhj, 
                       __ZN6AriSdk28ARI_CsiIceAudToneStopReq_SDKC2Ev, __ZN6AriSdk28ARI_CsiIceFilerReadRspCb_SDK4packEPP6AriMsg, 
                       __ZN6AriSdk28ARI_CsiIceFilerReadRspCb_SDK6unpackEv, __ZN6AriSdk28ARI_CsiIceFilerReadRspCb_SDKC1EPKhj, 
                       __ZN6AriSdk28ARI_CsiIceFilerReadRspCb_SDKC1Ev, __ZN6AriSdk28ARI_CsiIceFilerReadRspCb_SDKC2EPKhj, 
                       __ZN6AriSdk28ARI_CsiIceFilerReadRspCb_SDKC2Ev, __ZN6AriSdk28ARI_CsiIceGetCaEnableReq_SDK4packEPP6AriMsg, 
                       __ZN6AriSdk28ARI_CsiIceGetCaEnableReq_SDK6unpackEv, __ZN6AriSdk28ARI_CsiIceGetCaEnableReq_SDKC1EPKhj, 
                       __ZN6AriSdk28ARI_CsiIceGetCaEnableReq_SDKC1Ev, __ZN6AriSdk28ARI_CsiIceGetCaEnableReq_SDKC2EPKhj, 
                       __ZN6AriSdk28ARI_CsiIceGetCaEnableReq_SDKC2Ev, __ZN6AriSdk28ARI_CsiIceRxDiversityReq_SDK4packEPP6AriMsg, 
                       __ZN6AriSdk28ARI_CsiIceRxDiversityReq_SDK6unpackEv, __ZN6AriSdk28ARI_CsiIceRxDiversityReq_SDKC1EPKhj, 
                       __ZN6AriSdk28ARI_CsiIceRxDiversityReq_SDKC1Ev, __ZN6AriSdk28ARI_CsiIceRxDiversityReq_SDKC2EPKhj, 
                       __ZN6AriSdk28ARI_CsiIceRxDiversityReq_SDKC2Ev, __ZN6AriSdk28ARI_CsiIceSarEnableRspCb_SDK4packEPP6AriMsg, 
                       __ZN6AriSdk28ARI_CsiIceSarEnableRspCb_SDK6unpackEv, __ZN6AriSdk28ARI_CsiIceSarEnableRspCb_SDKC1EPKhj, 
                       __ZN6AriSdk28ARI_CsiIceSarEnableRspCb_SDKC1Ev, __ZN6AriSdk28ARI_CsiIceSarEnableRspCb_SDKC2EPKhj, 
                       __ZN6AriSdk28ARI_CsiIceSarEnableRspCb_SDKC2Ev, __ZN6AriSdk28ARI_CsiIceSarWaitTimeReq_SDK4packEPP6AriMsg, 
                       __ZN6AriSdk28ARI_CsiIceSarWaitTimeReq_SDK6unpackEv, __ZN6AriSdk28ARI_CsiIceSarWaitTimeReq_SDKC1EPKhj, 
                       __ZN6AriSdk28ARI_CsiIceSarWaitTimeReq_SDKC1Ev, __ZN6AriSdk28ARI_CsiIceSarWaitTimeReq_SDKC2EPKhj, 
                       __ZN6AriSdk28ARI_CsiIceSarWaitTimeReq_SDKC2Ev, __ZN6AriSdk28ARI_CsiIceTemperatureReq_SDK4packEPP6AriMsg, 
                       __ZN6AriSdk28ARI_CsiIceTemperatureReq_SDK6unpackEv, __ZN6AriSdk28ARI_CsiIceTemperatureReq_SDKC1EPKhj, 
                       __ZN6AriSdk28ARI_CsiIceTemperatureReq_SDKC1Ev, __ZN6AriSdk28ARI_CsiIceTemperatureReq_SDKC2EPKhj, 
                       __ZN6AriSdk28ARI_CsiIceTemperatureReq_SDKC2Ev, __ZN6AriSdk28ARI_CsiIdcSetRTConfigReq_SDK4packEPP6AriMsg, 
                       __ZN6AriSdk28ARI_CsiIdcSetRTConfigReq_SDK6unpackEv, __ZN6AriSdk28ARI_CsiIdcSetRTConfigReq_SDKC1EPKhj, 
                       __ZN6AriSdk28ARI_CsiIdcSetRTConfigReq_SDKC1Ev, __ZN6AriSdk28ARI_CsiIdcSetRTConfigReq_SDKC2EPKhj, 
                       __ZN6AriSdk28ARI_CsiIdcSetRTConfigReq_SDKC2Ev, __ZN6AriSdk28ARI_CsiIdcTestModeCmdReq_SDK4packEPP6AriMsg, 
                       __ZN6AriSdk28ARI_CsiIdcTestModeCmdReq_SDK6unpackEv, __ZN6AriSdk28ARI_CsiIdcTestModeCmdReq_SDKC1EPKhj, 
                       __ZN6AriSdk28ARI_CsiIdcTestModeCmdReq_SDKC1Ev, __ZN6AriSdk28ARI_CsiIdcTestModeCmdReq_SDKC2EPKhj, 
                       __ZN6AriSdk28ARI_CsiIdcTestModeCmdReq_SDKC2Ev, __ZN6AriSdk28ARI_CsiIdcTestModeCmdRsp_SDK4packEPP6AriMsg, 
                       __ZN6AriSdk28ARI_CsiIdcTestModeCmdRsp_SDK6unpackEv, __ZN6AriSdk28ARI_CsiIdcTestModeCmdRsp_SDKC1EPKhj, 
                       __ZN6AriSdk28ARI_CsiIdcTestModeCmdRsp_SDKC1Ev, __ZN6AriSdk28ARI_CsiIdcTestModeCmdRsp_SDKC2EPKhj, 
                       __ZN6AriSdk28ARI_CsiIdcTestModeCmdRsp_SDKC2Ev, __ZN6AriSdk28ARI_CsiSahGetDebugLogReq_SDK4packEPP6AriMsg, 
                       __ZN6AriSdk28ARI_CsiSahGetDebugLogReq_SDK6unpackEv, __ZN6AriSdk28ARI_CsiSahGetDebugLogReq_SDKC1EPKhj, 
                       __ZN6AriSdk28ARI_CsiSahGetDebugLogReq_SDKC1Ev, __ZN6AriSdk28ARI_CsiSahGetDebugLogReq_SDKC2EPKhj, 
                       __ZN6AriSdk28ARI_CsiSahGetDebugLogReq_SDKC2Ev, __ZN6AriSdk28ARI_CsiSecGetChipIdRspCb_SDK4packEPP6AriMsg, 
                       __ZN6AriSdk28ARI_CsiSecGetChipIdRspCb_SDK6unpackEv, __ZN6AriSdk28ARI_CsiSecGetChipIdRspCb_SDKC1EPKhj, 
                       __ZN6AriSdk28ARI_CsiSecGetChipIdRspCb_SDKC1Ev, __ZN6AriSdk28ARI_CsiSecGetChipIdRspCb_SDKC2EPKhj, 
                       __ZN6AriSdk28ARI_CsiSecGetChipIdRspCb_SDKC2Ev, __ZN6AriSdk28ARI_CsiSecGetPkHashRspCb_SDK4packEPP6AriMsg, 
                       __ZN6AriSdk28ARI_CsiSecGetPkHashRspCb_SDK6unpackEv, __ZN6AriSdk28ARI_CsiSecGetPkHashRspCb_SDKC1EPKhj, 
                       __ZN6AriSdk28ARI_CsiSecGetPkHashRspCb_SDKC1Ev, __ZN6AriSdk28ARI_CsiSecGetPkHashRspCb_SDKC2EPKhj, 
                       __ZN6AriSdk28ARI_CsiSecGetPkHashRspCb_SDKC2Ev, __ZN6AriSdk28ARI_IBICallCsHoldCallReq_SDK4packEPP6AriMsg, 
                       __ZN6AriSdk28ARI_IBICallCsHoldCallReq_SDK6unpackEv, __ZN6AriSdk28ARI_IBICallCsHoldCallReq_SDKC1EPKhj, 
                       __ZN6AriSdk28ARI_IBICallCsHoldCallReq_SDKC1Ev, __ZN6AriSdk28ARI_IBICallCsHoldCallReq_SDKC2EPKhj, 
                       __ZN6AriSdk28ARI_IBICallCsHoldCallReq_SDKC2Ev, __ZN6AriSdk28ARI_IBICallCsStopDtmfReq_SDK4packEPP6AriMsg, 
                       __ZN6AriSdk28ARI_IBICallCsStopDtmfReq_SDK6unpackEv, __ZN6AriSdk28ARI_IBICallCsStopDtmfReq_SDKC1EPKhj, 
                       __ZN6AriSdk28ARI_IBICallCsStopDtmfReq_SDKC1Ev, __ZN6AriSdk28ARI_IBICallCsStopDtmfReq_SDKC2EPKhj, 
                       __ZN6AriSdk28ARI_IBICallCsStopDtmfReq_SDKC2Ev, __ZN6AriSdk28ARI_IBICallPsLqmQueryReq_SDK4packEPP6AriMsg, 
                       __ZN6AriSdk28ARI_IBICallPsLqmQueryReq_SDK6unpackEv, __ZN6AriSdk28ARI_IBICallPsLqmQueryReq_SDKC1EPKhj, 
                       __ZN6AriSdk28ARI_IBICallPsLqmQueryReq_SDKC1Ev, __ZN6AriSdk28ARI_IBICallPsLqmQueryReq_SDKC2EPKhj, 
                       __ZN6AriSdk28ARI_IBICallPsLqmQueryReq_SDKC2Ev, __ZN6AriSdk28ARI_IBICallPsModifyIndCb_SDK4packEPP6AriMsg, 
                       __ZN6AriSdk28ARI_IBICallPsModifyIndCb_SDK6unpackEv, __ZN6AriSdk28ARI_IBICallPsModifyIndCb_SDKC1EPKhj, 
                       __ZN6AriSdk28ARI_IBICallPsModifyIndCb_SDKC1Ev, __ZN6AriSdk28ARI_IBICallPsModifyIndCb_SDKC2EPKhj, 
                       __ZN6AriSdk28ARI_IBICallPsModifyIndCb_SDKC2Ev, __ZN6AriSdk28ARI_IBICallPsResumeIndCb_SDK4packEPP6AriMsg, 
                       __ZN6AriSdk28ARI_IBICallPsResumeIndCb_SDK6unpackEv, __ZN6AriSdk28ARI_IBICallPsResumeIndCb_SDKC1EPKhj, 
                       __ZN6AriSdk28ARI_IBICallPsResumeIndCb_SDKC1Ev, __ZN6AriSdk28ARI_IBICallPsResumeIndCb_SDKC2EPKhj, 
                       __ZN6AriSdk28ARI_IBICallPsResumeIndCb_SDKC2Ev, __ZN6AriSdk28ARI_IBICbsGetConfigRspCb_SDK4packEPP6AriMsg, 
                       __ZN6AriSdk28ARI_IBICbsGetConfigRspCb_SDK6unpackEv, __ZN6AriSdk28ARI_IBICbsGetConfigRspCb_SDKC1EPKhj, 
                       __ZN6AriSdk28ARI_IBICbsGetConfigRspCb_SDKC1Ev, __ZN6AriSdk28ARI_IBICbsGetConfigRspCb_SDKC2EPKhj, 
                       __ZN6AriSdk28ARI_IBICbsGetConfigRspCb_SDKC2Ev, __ZN6AriSdk28ARI_IBIImsMEStopMediaReq_SDK4packEPP6AriMsg, 
                       __ZN6AriSdk28ARI_IBIImsMEStopMediaReq_SDK6unpackEv, __ZN6AriSdk28ARI_IBIImsMEStopMediaReq_SDKC1EPKhj, 
                       __ZN6AriSdk28ARI_IBIImsMEStopMediaReq_SDKC1Ev, __ZN6AriSdk28ARI_IBIImsMEStopMediaReq_SDKC2EPKhj, 
                       __ZN6AriSdk28ARI_IBIImsMEStopMediaReq_SDKC2Ev, __ZN6AriSdk28ARI_IBIMsSimSetSmsTagReq_SDK4packEPP6AriMsg, 
                       __ZN6AriSdk28ARI_IBIMsSimSetSmsTagReq_SDK6unpackEv, __ZN6AriSdk28ARI_IBIMsSimSetSmsTagReq_SDKC1EPKhj, 
                       __ZN6AriSdk28ARI_IBIMsSimSetSmsTagReq_SDKC1Ev, __ZN6AriSdk28ARI_IBIMsSimSetSmsTagReq_SDKC2EPKhj, 
                       __ZN6AriSdk28ARI_IBIMsSimSetSmsTagReq_SDKC2Ev, __ZN6AriSdk28ARI_IBINetAttachRspCb_V1_SDK4packEPP6AriMsg, 
                       __ZN6AriSdk28ARI_IBINetAttachRspCb_V1_SDK6unpackEv, __ZN6AriSdk28ARI_IBINetAttachRspCb_V1_SDKC1EPKhj, 
                       __ZN6AriSdk28ARI_IBINetAttachRspCb_V1_SDKC1Ev, __ZN6AriSdk28ARI_IBINetAttachRspCb_V1_SDKC2EPKhj, 
                       __ZN6AriSdk28ARI_IBINetAttachRspCb_V1_SDKC2Ev, __ZN6AriSdk28ARI_IBINetGetCellInfoReq_SDK4packEPP6AriMsg, 
                       __ZN6AriSdk28ARI_IBINetGetCellInfoReq_SDK6unpackEv, __ZN6AriSdk28ARI_IBINetGetCellInfoReq_SDKC1EPKhj, 
                       __ZN6AriSdk28ARI_IBINetGetCellInfoReq_SDKC1Ev, __ZN6AriSdk28ARI_IBINetGetCellInfoReq_SDKC2EPKhj, 
                       __ZN6AriSdk28ARI_IBINetGetCellInfoReq_SDKC2Ev, __ZN6AriSdk28ARI_IBINetIceApStatusReq_SDK4packEPP6AriMsg, 
                       __ZN6AriSdk28ARI_IBINetIceApStatusReq_SDK6unpackEv, __ZN6AriSdk28ARI_IBINetIceApStatusReq_SDKC1EPKhj, 
                       __ZN6AriSdk28ARI_IBINetIceApStatusReq_SDKC1Ev, __ZN6AriSdk28ARI_IBINetIceApStatusReq_SDKC2EPKhj, 
                       __ZN6AriSdk28ARI_IBINetIceApStatusReq_SDKC2Ev, __ZN6AriSdk28ARI_IBINetIceFdStatusReq_SDK4packEPP6AriMsg, 
                       __ZN6AriSdk28ARI_IBINetIceFdStatusReq_SDK6unpackEv, __ZN6AriSdk28ARI_IBINetIceFdStatusReq_SDKC1EPKhj, 
                       __ZN6AriSdk28ARI_IBINetIceFdStatusReq_SDKC1Ev, __ZN6AriSdk28ARI_IBINetIceFdStatusReq_SDKC2EPKhj, 
                       __ZN6AriSdk28ARI_IBINetIceFdStatusReq_SDKC2Ev, __ZN6AriSdk28ARI_IBINetPowerDownCnfCb_SDK4packEPP6AriMsg, 
                       __ZN6AriSdk28ARI_IBINetPowerDownCnfCb_SDK6unpackEv, __ZN6AriSdk28ARI_IBINetPowerDownCnfCb_SDKC1EPKhj, 
                       __ZN6AriSdk28ARI_IBINetPowerDownCnfCb_SDKC1Ev, __ZN6AriSdk28ARI_IBINetPowerDownCnfCb_SDKC2EPKhj, 
                       __ZN6AriSdk28ARI_IBINetPowerDownCnfCb_SDKC2Ev, __ZN6AriSdk28ARI_IBINetTimerInfoIndCb_SDK4packEPP6AriMsg, 
                       __ZN6AriSdk28ARI_IBINetTimerInfoIndCb_SDK6unpackEv, __ZN6AriSdk28ARI_IBINetTimerInfoIndCb_SDKC1EPKhj, 
                       __ZN6AriSdk28ARI_IBINetTimerInfoIndCb_SDKC1Ev, __ZN6AriSdk28ARI_IBINetTimerInfoIndCb_SDKC2EPKhj, 
                       __ZN6AriSdk28ARI_IBINetTimerInfoIndCb_SDKC2Ev, __ZN6AriSdk28ARI_IBISimAccessFcpRspCb_SDK4packEPP6AriMsg, 
                       __ZN6AriSdk28ARI_IBISimAccessFcpRspCb_SDK6unpackEv, __ZN6AriSdk28ARI_IBISimAccessFcpRspCb_SDKC1EPKhj, 
                       __ZN6AriSdk28ARI_IBISimAccessFcpRspCb_SDKC1Ev, __ZN6AriSdk28ARI_IBISimAccessFcpRspCb_SDKC2EPKhj, 
                       __ZN6AriSdk28ARI_IBISimAccessFcpRspCb_SDKC2Ev, __ZN6AriSdk28ARI_IBISimApplicationReq_SDK4packEPP6AriMsg, 
                       __ZN6AriSdk28ARI_IBISimApplicationReq_SDK6unpackEv, __ZN6AriSdk28ARI_IBISimApplicationReq_SDKC1EPKhj, 
                       __ZN6AriSdk28ARI_IBISimApplicationReq_SDKC1Ev, __ZN6AriSdk28ARI_IBISimApplicationReq_SDKC2EPKhj, 
                       __ZN6AriSdk28ARI_IBISimApplicationReq_SDKC2Ev, __ZN6AriSdk28ARI_IBISimOpenChannelReq_SDK4packEPP6AriMsg, 
                       __ZN6AriSdk28ARI_IBISimOpenChannelReq_SDK6unpackEv, __ZN6AriSdk28ARI_IBISimOpenChannelReq_SDKC1EPKhj, 
                       __ZN6AriSdk28ARI_IBISimOpenChannelReq_SDKC1Ev, __ZN6AriSdk28ARI_IBISimOpenChannelReq_SDKC2EPKhj, 
                       __ZN6AriSdk28ARI_IBISimOpenChannelReq_SDKC2Ev, __ZN6AriSdk28ARI_IBISimPbReadEntryReq_SDK4packEPP6AriMsg, 
                       __ZN6AriSdk28ARI_IBISimPbReadEntryReq_SDK6unpackEv, __ZN6AriSdk28ARI_IBISimPbReadEntryReq_SDKC1EPKhj, 
                       __ZN6AriSdk28ARI_IBISimPbReadEntryReq_SDKC1Ev, __ZN6AriSdk28ARI_IBISimPbReadEntryReq_SDKC2EPKhj, 
                       __ZN6AriSdk28ARI_IBISimPbReadEntryReq_SDKC2Ev, __ZN6AriSdk28ARI_IBISimSetSmsTagRspCb_SDK4packEPP6AriMsg, 
                       __ZN6AriSdk28ARI_IBISimSetSmsTagRspCb_SDK6unpackEv, __ZN6AriSdk28ARI_IBISimSetSmsTagRspCb_SDKC1EPKhj, 
                       __ZN6AriSdk28ARI_IBISimSetSmsTagRspCb_SDKC1Ev, __ZN6AriSdk28ARI_IBISimSetSmsTagRspCb_SDKC2EPKhj, 
                       __ZN6AriSdk28ARI_IBISimSetSmsTagRspCb_SDKC2Ev, __ZN6AriSdk28ARI_IBISmsIncomingSmsAck_SDK4packEPP6AriMsg, 
                       __ZN6AriSdk28ARI_IBISmsIncomingSmsAck_SDK6unpackEv, __ZN6AriSdk28ARI_IBISmsIncomingSmsAck_SDKC1EPKhj, 
                       __ZN6AriSdk28ARI_IBISmsIncomingSmsAck_SDKC1Ev, __ZN6AriSdk28ARI_IBISmsIncomingSmsAck_SDKC2EPKhj, 
                       __ZN6AriSdk28ARI_IBISmsIncomingSmsAck_SDKC2Ev, __ZN6AriSdk28ARI_IBISsExtendedUssdReq_SDK4packEPP6AriMsg, 
                       __ZN6AriSdk28ARI_IBISsExtendedUssdReq_SDK6unpackEv, __ZN6AriSdk28ARI_IBISsExtendedUssdReq_SDKC1EPKhj, 
                       __ZN6AriSdk28ARI_IBISsExtendedUssdReq_SDKC1Ev, __ZN6AriSdk28ARI_IBISsExtendedUssdReq_SDKC2EPKhj, 
                       __ZN6AriSdk28ARI_IBISsExtendedUssdReq_SDKC2Ev, __ZN6AriSdk29ARI_CsiAwdsAddConfigRspCb_SDK4packEPP6AriMsg, 
                       __ZN6AriSdk29ARI_CsiAwdsAddConfigRspCb_SDK6unpackEv, __ZN6AriSdk29ARI_CsiAwdsAddConfigRspCb_SDKC1EPKhj, 
                       __ZN6AriSdk29ARI_CsiAwdsAddConfigRspCb_SDKC1Ev, __ZN6AriSdk29ARI_CsiAwdsAddConfigRspCb_SDKC2EPKhj, 
                       __ZN6AriSdk29ARI_CsiAwdsAddConfigRspCb_SDKC2Ev, __ZN6AriSdk29ARI_CsiBspNvmReadGroupReq_SDK4packEPP6AriMsg, 
                       __ZN6AriSdk29ARI_CsiBspNvmReadGroupReq_SDK6unpackEv, __ZN6AriSdk29ARI_CsiBspNvmReadGroupReq_SDKC1EPKhj, 
                       __ZN6AriSdk29ARI_CsiBspNvmReadGroupReq_SDKC1Ev, __ZN6AriSdk29ARI_CsiBspNvmReadGroupReq_SDKC2EPKhj, 
                       __ZN6AriSdk29ARI_CsiBspNvmReadGroupReq_SDKC2Ev, __ZN6AriSdk29ARI_CsiBspStopSysmonRspCb_SDK4packEPP6AriMsg, 
                       __ZN6AriSdk29ARI_CsiBspStopSysmonRspCb_SDK6unpackEv, __ZN6AriSdk29ARI_CsiBspStopSysmonRspCb_SDKC1EPKhj, 
                       __ZN6AriSdk29ARI_CsiBspStopSysmonRspCb_SDKC1Ev, __ZN6AriSdk29ARI_CsiBspStopSysmonRspCb_SDKC2EPKhj, 
                       __ZN6AriSdk29ARI_CsiBspStopSysmonRspCb_SDKC2Ev, __ZN6AriSdk29ARI_CsiCddGetParamDumpReq_SDK4packEPP6AriMsg, 
                       __ZN6AriSdk29ARI_CsiCddGetParamDumpReq_SDK6unpackEv, __ZN6AriSdk29ARI_CsiCddGetParamDumpReq_SDKC1EPKhj, 
                       __ZN6AriSdk29ARI_CsiCddGetParamDumpReq_SDKC1Ev, __ZN6AriSdk29ARI_CsiCddGetParamDumpReq_SDKC2EPKhj, 
                       __ZN6AriSdk29ARI_CsiCddGetParamDumpReq_SDKC2Ev, __ZN6AriSdk29ARI_CsiFpUpdateHeaderData_SDK4packEPP6AriMsg, 
                       __ZN6AriSdk29ARI_CsiFpUpdateHeaderData_SDK6unpackEv, __ZN6AriSdk29ARI_CsiFpUpdateHeaderData_SDKC1EPKhj, 
                       __ZN6AriSdk29ARI_CsiFpUpdateHeaderData_SDKC1Ev, __ZN6AriSdk29ARI_CsiFpUpdateHeaderData_SDKC2EPKhj, 
                       __ZN6AriSdk29ARI_CsiFpUpdateHeaderData_SDKC2Ev, __ZN6AriSdk29ARI_CsiIceAudCallEventReq_SDK4packEPP6AriMsg, 
                       __ZN6AriSdk29ARI_CsiIceAudCallEventReq_SDK6unpackEv, __ZN6AriSdk29ARI_CsiIceAudCallEventReq_SDKC1EPKhj, 
                       __ZN6AriSdk29ARI_CsiIceAudCallEventReq_SDKC1Ev, __ZN6AriSdk29ARI_CsiIceAudCallEventReq_SDKC2EPKhj, 
                       __ZN6AriSdk29ARI_CsiIceAudCallEventReq_SDKC2Ev, __ZN6AriSdk29ARI_CsiIceAudSetDeviceReq_SDK4packEPP6AriMsg, 
                       __ZN6AriSdk29ARI_CsiIceAudSetDeviceReq_SDK6unpackEv, __ZN6AriSdk29ARI_CsiIceAudSetDeviceReq_SDKC1EPKhj, 
                       __ZN6AriSdk29ARI_CsiIceAudSetDeviceReq_SDKC1Ev, __ZN6AriSdk29ARI_CsiIceAudSetDeviceReq_SDKC2EPKhj, 
                       __ZN6AriSdk29ARI_CsiIceAudSetDeviceReq_SDKC2Ev, __ZN6AriSdk29ARI_CsiIceAudSetI2SRespCb_SDK4packEPP6AriMsg, 
                       __ZN6AriSdk29ARI_CsiIceAudSetI2SRespCb_SDK6unpackEv, __ZN6AriSdk29ARI_CsiIceAudSetI2SRespCb_SDKC1EPKhj, 
                       __ZN6AriSdk29ARI_CsiIceAudSetI2SRespCb_SDKC1Ev, __ZN6AriSdk29ARI_CsiIceAudSetI2SRespCb_SDKC2EPKhj, 
                       __ZN6AriSdk29ARI_CsiIceAudSetI2SRespCb_SDKC2Ev, __ZN6AriSdk29ARI_CsiIceAudToneEndIndCb_SDK4packEPP6AriMsg, 
                       __ZN6AriSdk29ARI_CsiIceAudToneEndIndCb_SDK6unpackEv, __ZN6AriSdk29ARI_CsiIceAudToneEndIndCb_SDKC1EPKhj, 
                       __ZN6AriSdk29ARI_CsiIceAudToneEndIndCb_SDKC1Ev, __ZN6AriSdk29ARI_CsiIceAudToneEndIndCb_SDKC2EPKhj, 
                       __ZN6AriSdk29ARI_CsiIceAudToneEndIndCb_SDKC2Ev, __ZN6AriSdk29ARI_CsiIceAudToneStartReq_SDK4packEPP6AriMsg, 
                       __ZN6AriSdk29ARI_CsiIceAudToneStartReq_SDK6unpackEv, __ZN6AriSdk29ARI_CsiIceAudToneStartReq_SDKC1EPKhj, 
                       __ZN6AriSdk29ARI_CsiIceAudToneStartReq_SDKC1Ev, __ZN6AriSdk29ARI_CsiIceAudToneStartReq_SDKC2EPKhj, 
                       __ZN6AriSdk29ARI_CsiIceAudToneStartReq_SDKC2Ev, __ZN6AriSdk29ARI_CsiIceFilerWriteRspCb_SDK4packEPP6AriMsg, 
                       __ZN6AriSdk29ARI_CsiIceFilerWriteRspCb_SDK6unpackEv, __ZN6AriSdk29ARI_CsiIceFilerWriteRspCb_SDKC1EPKhj, 
                       __ZN6AriSdk29ARI_CsiIceFilerWriteRspCb_SDKC1Ev, __ZN6AriSdk29ARI_CsiIceFilerWriteRspCb_SDKC2EPKhj, 
                       __ZN6AriSdk29ARI_CsiIceFilerWriteRspCb_SDKC2Ev, __ZN6AriSdk29ARI_CsiIceGetArfcnLockReq_SDK4packEPP6AriMsg, 
                       __ZN6AriSdk29ARI_CsiIceGetArfcnLockReq_SDK6unpackEv, __ZN6AriSdk29ARI_CsiIceGetArfcnLockReq_SDKC1EPKhj, 
                       __ZN6AriSdk29ARI_CsiIceGetArfcnLockReq_SDKC1Ev, __ZN6AriSdk29ARI_CsiIceGetArfcnLockReq_SDKC2EPKhj, 
                       __ZN6AriSdk29ARI_CsiIceGetArfcnLockReq_SDKC2Ev, __ZN6AriSdk29ARI_CsiIceGetTxAntennaReq_SDK4packEPP6AriMsg, 
                       __ZN6AriSdk29ARI_CsiIceGetTxAntennaReq_SDK6unpackEv, __ZN6AriSdk29ARI_CsiIceGetTxAntennaReq_SDKC1EPKhj, 
                       __ZN6AriSdk29ARI_CsiIceGetTxAntennaReq_SDKC1Ev, __ZN6AriSdk29ARI_CsiIceGetTxAntennaReq_SDKC2EPKhj, 
                       __ZN6AriSdk29ARI_CsiIceGetTxAntennaReq_SDKC2Ev, __ZN6AriSdk29ARI_CsiIceHearingAidRspCb_SDK4packEPP6AriMsg, 
                       __ZN6AriSdk29ARI_CsiIceHearingAidRspCb_SDK6unpackEv, __ZN6AriSdk29ARI_CsiIceHearingAidRspCb_SDKC1EPKhj, 
                       __ZN6AriSdk29ARI_CsiIceHearingAidRspCb_SDKC1Ev, __ZN6AriSdk29ARI_CsiIceHearingAidRspCb_SDKC2EPKhj, 
                       __ZN6AriSdk29ARI_CsiIceHearingAidRspCb_SDKC2Ev, __ZN6AriSdk29ARI_CsiIceSetTxAntennaReq_SDK4packEPP6AriMsg, 
                       __ZN6AriSdk29ARI_CsiIceSetTxAntennaReq_SDK6unpackEv, __ZN6AriSdk29ARI_CsiIceSetTxAntennaReq_SDKC1EPKhj, 
                       __ZN6AriSdk29ARI_CsiIceSetTxAntennaReq_SDKC1Ev, __ZN6AriSdk29ARI_CsiIceSetTxAntennaReq_SDKC2EPKhj, 
                       __ZN6AriSdk29ARI_CsiIceSetTxAntennaReq_SDKC2Ev, __ZN6AriSdk29ARI_CsiIceSpeakerStateReq_SDK4packEPP6AriMsg, 
                       __ZN6AriSdk29ARI_CsiIceSpeakerStateReq_SDK6unpackEv, __ZN6AriSdk29ARI_CsiIceSpeakerStateReq_SDKC1EPKhj, 
                       __ZN6AriSdk29ARI_CsiIceSpeakerStateReq_SDKC1Ev, __ZN6AriSdk29ARI_CsiIceSpeakerStateReq_SDKC2EPKhj, 
                       __ZN6AriSdk29ARI_CsiIceSpeakerStateReq_SDKC2Ev, __ZN6AriSdk29ARI_CsiIceWakeupReasonReq_SDK4packEPP6AriMsg, 
                       __ZN6AriSdk29ARI_CsiIceWakeupReasonReq_SDK6unpackEv, __ZN6AriSdk29ARI_CsiIceWakeupReasonReq_SDKC1EPKhj, 
                       __ZN6AriSdk29ARI_CsiIceWakeupReasonReq_SDKC1Ev, __ZN6AriSdk29ARI_CsiIceWakeupReasonReq_SDKC2EPKhj, 
                       __ZN6AriSdk29ARI_CsiIceWakeupReasonReq_SDKC2Ev, __ZN6AriSdk29ARI_CsiIdcControlEventReq_SDK4packEPP6AriMsg, 
                       __ZN6AriSdk29ARI_CsiIdcControlEventReq_SDK6unpackEv, __ZN6AriSdk29ARI_CsiIdcControlEventReq_SDKC1EPKhj, 
                       __ZN6AriSdk29ARI_CsiIdcControlEventReq_SDKC1Ev, __ZN6AriSdk29ARI_CsiIdcControlEventReq_SDKC2EPKhj, 
                       __ZN6AriSdk29ARI_CsiIdcControlEventReq_SDKC2Ev, __ZN6AriSdk29ARI_CsiIpcGetLogBufferReq_SDK4packEPP6AriMsg, 
                       __ZN6AriSdk29ARI_CsiIpcGetLogBufferReq_SDK6unpackEv, __ZN6AriSdk29ARI_CsiIpcGetLogBufferReq_SDKC1EPKhj, 
                       __ZN6AriSdk29ARI_CsiIpcGetLogBufferReq_SDKC1Ev, __ZN6AriSdk29ARI_CsiIpcGetLogBufferReq_SDKC2EPKhj, 
                       __ZN6AriSdk29ARI_CsiIpcGetLogBufferReq_SDKC2Ev, __ZN6AriSdk29ARI_CsiIpcGetLogBufferRsp_SDK4packEPP6AriMsg, 
                       __ZN6AriSdk29ARI_CsiIpcGetLogBufferRsp_SDK6unpackEv, __ZN6AriSdk29ARI_CsiIpcGetLogBufferRsp_SDKC1EPKhj, 
                       __ZN6AriSdk29ARI_CsiIpcGetLogBufferRsp_SDKC1Ev, __ZN6AriSdk29ARI_CsiIpcGetLogBufferRsp_SDKC2EPKhj, 
                       __ZN6AriSdk29ARI_CsiIpcGetLogBufferRsp_SDKC2Ev, __ZN6AriSdk29ARI_CsiMonMemoryStatusReq_SDK4packEPP6AriMsg, 
                       __ZN6AriSdk29ARI_CsiMonMemoryStatusReq_SDK6unpackEv, __ZN6AriSdk29ARI_CsiMonMemoryStatusReq_SDKC1EPKhj, 
                       __ZN6AriSdk29ARI_CsiMonMemoryStatusReq_SDKC1Ev, __ZN6AriSdk29ARI_CsiMonMemoryStatusReq_SDKC2EPKhj, 
                       __ZN6AriSdk29ARI_CsiMonMemoryStatusReq_SDKC2Ev, __ZN6AriSdk29ARI_CsiMsCpsReadImeiRspCb_SDK4packEPP6AriMsg, 
                       __ZN6AriSdk29ARI_CsiMsCpsReadImeiRspCb_SDK6unpackEv, __ZN6AriSdk29ARI_CsiMsCpsReadImeiRspCb_SDKC1EPKhj, 
                       __ZN6AriSdk29ARI_CsiMsCpsReadImeiRspCb_SDKC1Ev, __ZN6AriSdk29ARI_CsiMsCpsReadImeiRspCb_SDKC2EPKhj, 
                       __ZN6AriSdk29ARI_CsiMsCpsReadImeiRspCb_SDKC2Ev, __ZN6AriSdk29ARI_CsiSecGetRandomNumReq_SDK4packEPP6AriMsg, 
                       __ZN6AriSdk29ARI_CsiSecGetRandomNumReq_SDK6unpackEv, __ZN6AriSdk29ARI_CsiSecGetRandomNumReq_SDKC1EPKhj, 
                       __ZN6AriSdk29ARI_CsiSecGetRandomNumReq_SDKC1Ev, __ZN6AriSdk29ARI_CsiSecGetRandomNumReq_SDKC2EPKhj, 
                       __ZN6AriSdk29ARI_CsiSecGetRandomNumReq_SDKC2Ev, __ZN6AriSdk29ARI_CsiTraceAddMasksRspCb_SDK4packEPP6AriMsg, 
                       __ZN6AriSdk29ARI_CsiTraceAddMasksRspCb_SDK6unpackEv, __ZN6AriSdk29ARI_CsiTraceAddMasksRspCb_SDKC1EPKhj, 
                       __ZN6AriSdk29ARI_CsiTraceAddMasksRspCb_SDKC1Ev, __ZN6AriSdk29ARI_CsiTraceAddMasksRspCb_SDKC2EPKhj, 
                       __ZN6AriSdk29ARI_CsiTraceAddMasksRspCb_SDKC2Ev, __ZN6AriSdk29ARI_CsiTraceModeInitRspCb_SDK4packEPP6AriMsg, 
                       __ZN6AriSdk29ARI_CsiTraceModeInitRspCb_SDK6unpackEv, __ZN6AriSdk29ARI_CsiTraceModeInitRspCb_SDKC1EPKhj, 
                       __ZN6AriSdk29ARI_CsiTraceModeInitRspCb_SDKC1Ev, __ZN6AriSdk29ARI_CsiTraceModeInitRspCb_SDKC2EPKhj, 
                       __ZN6AriSdk29ARI_CsiTraceModeInitRspCb_SDKC2Ev, __ZN6AriSdk29ARI_IBIApacsDataStatusReq_SDK4packEPP6AriMsg, 
                       __ZN6AriSdk29ARI_IBIApacsDataStatusReq_SDK6unpackEv, __ZN6AriSdk29ARI_IBIApacsDataStatusReq_SDKC1EPKhj, 
                       __ZN6AriSdk29ARI_IBIApacsDataStatusReq_SDKC1Ev, __ZN6AriSdk29ARI_IBIApacsDataStatusReq_SDKC2EPKhj, 
                       __ZN6AriSdk29ARI_IBIApacsDataStatusReq_SDKC2Ev, __ZN6AriSdk29ARI_IBICallCsCtmInfoIndCb_SDK4packEPP6AriMsg, 
                       __ZN6AriSdk29ARI_IBICallCsCtmInfoIndCb_SDK6unpackEv, __ZN6AriSdk29ARI_IBICallCsCtmInfoIndCb_SDKC1EPKhj, 
                       __ZN6AriSdk29ARI_IBICallCsCtmInfoIndCb_SDKC1Ev, __ZN6AriSdk29ARI_IBICallCsCtmInfoIndCb_SDKC2EPKhj, 
                       __ZN6AriSdk29ARI_IBICallCsCtmInfoIndCb_SDKC2Ev, __ZN6AriSdk29ARI_IBICallCsJoinCallsReq_SDK4packEPP6AriMsg, 
                       __ZN6AriSdk29ARI_IBICallCsJoinCallsReq_SDK6unpackEv, __ZN6AriSdk29ARI_IBICallCsJoinCallsReq_SDKC1EPKhj, 
                       __ZN6AriSdk29ARI_IBICallCsJoinCallsReq_SDKC1Ev, __ZN6AriSdk29ARI_IBICallCsJoinCallsReq_SDKC2EPKhj, 
                       __ZN6AriSdk29ARI_IBICallCsJoinCallsReq_SDKC2Ev, __ZN6AriSdk29ARI_IBICallCsSplitMptyReq_SDK4packEPP6AriMsg, 
                       __ZN6AriSdk29ARI_IBICallCsSplitMptyReq_SDK6unpackEv, __ZN6AriSdk29ARI_IBICallCsSplitMptyReq_SDKC1EPKhj, 
                       __ZN6AriSdk29ARI_IBICallCsSplitMptyReq_SDKC1Ev, __ZN6AriSdk29ARI_IBICallCsSplitMptyReq_SDKC2EPKhj, 
                       __ZN6AriSdk29ARI_IBICallCsSplitMptyReq_SDKC2Ev, __ZN6AriSdk29ARI_IBICallCsStartDtmfReq_SDK4packEPP6AriMsg, 
                       __ZN6AriSdk29ARI_IBICallCsStartDtmfReq_SDK6unpackEv, __ZN6AriSdk29ARI_IBICallCsStartDtmfReq_SDKC1EPKhj, 
                       __ZN6AriSdk29ARI_IBICallCsStartDtmfReq_SDKC1Ev, __ZN6AriSdk29ARI_IBICallCsStartDtmfReq_SDKC2EPKhj, 
                       __ZN6AriSdk29ARI_IBICallCsStartDtmfReq_SDKC2Ev, __ZN6AriSdk29ARI_IBICallCsSwapCallsReq_SDK4packEPP6AriMsg, 
                       __ZN6AriSdk29ARI_IBICallCsSwapCallsReq_SDK6unpackEv, __ZN6AriSdk29ARI_IBICallCsSwapCallsReq_SDKC1EPKhj, 
                       __ZN6AriSdk29ARI_IBICallCsSwapCallsReq_SDKC1Ev, __ZN6AriSdk29ARI_IBICallCsSwapCallsReq_SDKC2EPKhj, 
                       __ZN6AriSdk29ARI_IBICallCsSwapCallsReq_SDKC2Ev, __ZN6AriSdk29ARI_IBICallPsDeRegisterFT_SDK4packEPP6AriMsg, 
                       __ZN6AriSdk29ARI_IBICallPsDeRegisterFT_SDK6unpackEv, __ZN6AriSdk29ARI_IBICallPsDeRegisterFT_SDKC1EPKhj, 
                       __ZN6AriSdk29ARI_IBICallPsDeRegisterFT_SDKC1Ev, __ZN6AriSdk29ARI_IBICallPsDeRegisterFT_SDKC2EPKhj, 
                       __ZN6AriSdk29ARI_IBICallPsDeRegisterFT_SDKC2Ev, __ZN6AriSdk29ARI_IBICallPsFlushDataReq_SDK4packEPP6AriMsg, 
                       __ZN6AriSdk29ARI_IBICallPsFlushDataReq_SDK6unpackEv, __ZN6AriSdk29ARI_IBICallPsFlushDataReq_SDKC1EPKhj, 
                       __ZN6AriSdk29ARI_IBICallPsFlushDataReq_SDKC1Ev, __ZN6AriSdk29ARI_IBICallPsFlushDataReq_SDKC2EPKhj, 
                       __ZN6AriSdk29ARI_IBICallPsFlushDataReq_SDKC2Ev, __ZN6AriSdk29ARI_IBICallPsLqmDataIndCb_SDK4packEPP6AriMsg, 
                       __ZN6AriSdk29ARI_IBICallPsLqmDataIndCb_SDK6unpackEv, __ZN6AriSdk29ARI_IBICallPsLqmDataIndCb_SDKC1EPKhj, 
                       __ZN6AriSdk29ARI_IBICallPsLqmDataIndCb_SDKC1Ev, __ZN6AriSdk29ARI_IBICallPsLqmDataIndCb_SDKC2EPKhj, 
                       __ZN6AriSdk29ARI_IBICallPsLqmDataIndCb_SDKC2Ev, __ZN6AriSdk29ARI_IBICallPsSuspendIndCb_SDK4packEPP6AriMsg, 
                       __ZN6AriSdk29ARI_IBICallPsSuspendIndCb_SDK6unpackEv, __ZN6AriSdk29ARI_IBICallPsSuspendIndCb_SDKC1EPKhj, 
                       __ZN6AriSdk29ARI_IBICallPsSuspendIndCb_SDKC1Ev, __ZN6AriSdk29ARI_IBICallPsSuspendIndCb_SDKC2EPKhj, 
                       __ZN6AriSdk29ARI_IBICallPsSuspendIndCb_SDKC2Ev, __ZN6AriSdk29ARI_IBICbsNewMessageIndCb_SDK4packEPP6AriMsg, 
                       __ZN6AriSdk29ARI_IBICbsNewMessageIndCb_SDK6unpackEv, __ZN6AriSdk29ARI_IBICbsNewMessageIndCb_SDKC1EPKhj, 
                       __ZN6AriSdk29ARI_IBICbsNewMessageIndCb_SDKC1Ev, __ZN6AriSdk29ARI_IBICbsNewMessageIndCb_SDKC2EPKhj, 
                       __ZN6AriSdk29ARI_IBICbsNewMessageIndCb_SDKC2Ev, __ZN6AriSdk29ARI_IBIImsMEStartMediaReq_SDK4packEPP6AriMsg, 
                       __ZN6AriSdk29ARI_IBIImsMEStartMediaReq_SDK6unpackEv, __ZN6AriSdk29ARI_IBIImsMEStartMediaReq_SDKC1EPKhj, 
                       __ZN6AriSdk29ARI_IBIImsMEStartMediaReq_SDKC1Ev, __ZN6AriSdk29ARI_IBIImsMEStartMediaReq_SDKC2EPKhj, 
                       __ZN6AriSdk29ARI_IBIImsMEStartMediaReq_SDKC2Ev, __ZN6AriSdk29ARI_IBIMsLpGnssAbortReqCb_SDK4packEPP6AriMsg, 
                       __ZN6AriSdk29ARI_IBIMsLpGnssAbortReqCb_SDK6unpackEv, __ZN6AriSdk29ARI_IBIMsLpGnssAbortReqCb_SDKC1EPKhj, 
                       __ZN6AriSdk29ARI_IBIMsLpGnssAbortReqCb_SDKC1Ev, __ZN6AriSdk29ARI_IBIMsLpGnssAbortReqCb_SDKC2EPKhj, 
                       __ZN6AriSdk29ARI_IBIMsLpGnssAbortReqCb_SDKC2Ev, __ZN6AriSdk29ARI_IBINetBandStatusIndCb_SDK4packEPP6AriMsg, 
                       __ZN6AriSdk29ARI_IBINetBandStatusIndCb_SDK6unpackEv, __ZN6AriSdk29ARI_IBINetBandStatusIndCb_SDKC1EPKhj, 
                       __ZN6AriSdk29ARI_IBINetBandStatusIndCb_SDKC1Ev, __ZN6AriSdk29ARI_IBINetBandStatusIndCb_SDKC2EPKhj, 
                       __ZN6AriSdk29ARI_IBINetBandStatusIndCb_SDKC2Ev, __ZN6AriSdk29ARI_IBINetBandStatusRspCb_SDK4packEPP6AriMsg, 
                       __ZN6AriSdk29ARI_IBINetBandStatusRspCb_SDK6unpackEv, __ZN6AriSdk29ARI_IBINetBandStatusRspCb_SDKC1EPKhj, 
                       __ZN6AriSdk29ARI_IBINetBandStatusRspCb_SDKC1Ev, __ZN6AriSdk29ARI_IBINetBandStatusRspCb_SDKC2EPKhj, 
                       __ZN6AriSdk29ARI_IBINetBandStatusRspCb_SDKC2Ev, __ZN6AriSdk29ARI_IBISendApacsDataRspCb_SDK4packEPP6AriMsg, 
                       __ZN6AriSdk29ARI_IBISendApacsDataRspCb_SDK6unpackEv, __ZN6AriSdk29ARI_IBISendApacsDataRspCb_SDKC1EPKhj, 
                       __ZN6AriSdk29ARI_IBISendApacsDataRspCb_SDKC1Ev, __ZN6AriSdk29ARI_IBISendApacsDataRspCb_SDKC2EPKhj, 
                       __ZN6AriSdk29ARI_IBISendApacsDataRspCb_SDKC2Ev, __ZN6AriSdk29ARI_IBISetRtcEpochTimeReq_SDK4packEPP6AriMsg, 
                       __ZN6AriSdk29ARI_IBISetRtcEpochTimeReq_SDK6unpackEv, __ZN6AriSdk29ARI_IBISetRtcEpochTimeReq_SDKC1EPKhj, 
                       __ZN6AriSdk29ARI_IBISetRtcEpochTimeReq_SDKC1Ev, __ZN6AriSdk29ARI_IBISetRtcEpochTimeReq_SDKC2EPKhj, 
                       __ZN6AriSdk29ARI_IBISetRtcEpochTimeReq_SDKC2Ev, __ZN6AriSdk29ARI_IBISimCloseChannelReq_SDK4packEPP6AriMsg, 
                       __ZN6AriSdk29ARI_IBISimCloseChannelReq_SDK6unpackEv, __ZN6AriSdk29ARI_IBISimCloseChannelReq_SDKC1EPKhj, 
                       __ZN6AriSdk29ARI_IBISimCloseChannelReq_SDKC1Ev, __ZN6AriSdk29ARI_IBISimCloseChannelReq_SDKC2EPKhj, 
                       __ZN6AriSdk29ARI_IBISimCloseChannelReq_SDKC2Ev, __ZN6AriSdk29ARI_IBISimExtSimlockIndCb_SDK4packEPP6AriMsg, 
                       __ZN6AriSdk29ARI_IBISimExtSimlockIndCb_SDK6unpackEv, __ZN6AriSdk29ARI_IBISimExtSimlockIndCb_SDKC1EPKhj, 
                       __ZN6AriSdk29ARI_IBISimExtSimlockIndCb_SDKC1Ev, __ZN6AriSdk29ARI_IBISimExtSimlockIndCb_SDKC2EPKhj, 
                       __ZN6AriSdk29ARI_IBISimExtSimlockIndCb_SDKC2Ev, __ZN6AriSdk29ARI_IBISimExtendedAuthReq_SDK4packEPP6AriMsg, 
                       __ZN6AriSdk29ARI_IBISimExtendedAuthReq_SDK6unpackEv, __ZN6AriSdk29ARI_IBISimExtendedAuthReq_SDKC1EPKhj, 
                       __ZN6AriSdk29ARI_IBISimExtendedAuthReq_SDKC1Ev, __ZN6AriSdk29ARI_IBISimExtendedAuthReq_SDKC2EPKhj, 
                       __ZN6AriSdk29ARI_IBISimExtendedAuthReq_SDKC2Ev, __ZN6AriSdk29ARI_IBISimFullAccessIndCb_SDK4packEPP6AriMsg, 
                       __ZN6AriSdk29ARI_IBISimFullAccessIndCb_SDK6unpackEv, __ZN6AriSdk29ARI_IBISimFullAccessIndCb_SDKC1EPKhj, 
                       __ZN6AriSdk29ARI_IBISimFullAccessIndCb_SDKC1Ev, __ZN6AriSdk29ARI_IBISimFullAccessIndCb_SDKC2EPKhj, 
                       __ZN6AriSdk29ARI_IBISimFullAccessIndCb_SDKC2Ev, __ZN6AriSdk29ARI_IBISimGetEccListRspCb_SDK4packEPP6AriMsg, 
                       __ZN6AriSdk29ARI_IBISimGetEccListRspCb_SDK6unpackEv, __ZN6AriSdk29ARI_IBISimGetEccListRspCb_SDKC1EPKhj, 
                       __ZN6AriSdk29ARI_IBISimGetEccListRspCb_SDKC1Ev, __ZN6AriSdk29ARI_IBISimGetEccListRspCb_SDKC2EPKhj, 
                       __ZN6AriSdk29ARI_IBISimGetEccListRspCb_SDKC2Ev, __ZN6AriSdk29ARI_IBISimGetFdnListRspCb_SDK4packEPP6AriMsg, 
                       __ZN6AriSdk29ARI_IBISimGetFdnListRspCb_SDK6unpackEv, __ZN6AriSdk29ARI_IBISimGetFdnListRspCb_SDKC1EPKhj, 
                       __ZN6AriSdk29ARI_IBISimGetFdnListRspCb_SDKC1Ev, __ZN6AriSdk29ARI_IBISimGetFdnListRspCb_SDKC2EPKhj, 
                       __ZN6AriSdk29ARI_IBISimGetFdnListRspCb_SDKC2Ev, __ZN6AriSdk29ARI_IBISimGetMsgListRspCb_SDK4packEPP6AriMsg, 
                       __ZN6AriSdk29ARI_IBISimGetMsgListRspCb_SDK6unpackEv, __ZN6AriSdk29ARI_IBISimGetMsgListRspCb_SDKC1EPKhj, 
                       __ZN6AriSdk29ARI_IBISimGetMsgListRspCb_SDKC1Ev, __ZN6AriSdk29ARI_IBISimGetMsgListRspCb_SDKC2EPKhj, 
                       __ZN6AriSdk29ARI_IBISimGetMsgListRspCb_SDKC2Ev, __ZN6AriSdk29ARI_IBISimPbWriteEntryReq_SDK4packEPP6AriMsg, 
                       __ZN6AriSdk29ARI_IBISimPbWriteEntryReq_SDK6unpackEv, __ZN6AriSdk29ARI_IBISimPbWriteEntryReq_SDKC1EPKhj, 
                       __ZN6AriSdk29ARI_IBISimPbWriteEntryReq_SDKC1Ev, __ZN6AriSdk29ARI_IBISimPbWriteEntryReq_SDKC2EPKhj, 
                       __ZN6AriSdk29ARI_IBISimPbWriteEntryReq_SDKC2Ev, __ZN6AriSdk29ARI_IBISimTkExecStkCmdRsp_SDK4packEPP6AriMsg, 
                       __ZN6AriSdk29ARI_IBISimTkExecStkCmdRsp_SDK6unpackEv, __ZN6AriSdk29ARI_IBISimTkExecStkCmdRsp_SDKC1EPKhj, 
                       __ZN6AriSdk29ARI_IBISimTkExecStkCmdRsp_SDKC1Ev, __ZN6AriSdk29ARI_IBISimTkExecStkCmdRsp_SDKC2EPKhj, 
                       __ZN6AriSdk29ARI_IBISimTkExecStkCmdRsp_SDKC2Ev, __ZN6AriSdk29ARI_IBISimTkRefreshFcnRsp_SDK4packEPP6AriMsg, 
                       __ZN6AriSdk29ARI_IBISimTkRefreshFcnRsp_SDK6unpackEv, __ZN6AriSdk29ARI_IBISimTkRefreshFcnRsp_SDKC1EPKhj, 
                       __ZN6AriSdk29ARI_IBISimTkRefreshFcnRsp_SDKC1Ev, __ZN6AriSdk29ARI_IBISimTkRefreshFcnRsp_SDKC2EPKhj, 
                       __ZN6AriSdk29ARI_IBISimTkRefreshFcnRsp_SDKC2Ev, __ZN6AriSdk29ARI_IBISimTkResetQueryRsp_SDK4packEPP6AriMsg, 
                       __ZN6AriSdk29ARI_IBISimTkResetQueryRsp_SDK6unpackEv, __ZN6AriSdk29ARI_IBISimTkResetQueryRsp_SDKC1EPKhj, 
                       __ZN6AriSdk29ARI_IBISimTkResetQueryRsp_SDKC1Ev, __ZN6AriSdk29ARI_IBISimTkResetQueryRsp_SDKC2EPKhj, 
                       __ZN6AriSdk29ARI_IBISimTkResetQueryRsp_SDKC2Ev, __ZN6AriSdk29ARI_IBISmsDataDownloadReq_SDK4packEPP6AriMsg, 
                       __ZN6AriSdk29ARI_IBISmsDataDownloadReq_SDK6unpackEv, __ZN6AriSdk29ARI_IBISmsDataDownloadReq_SDKC1EPKhj, 
                       __ZN6AriSdk29ARI_IBISmsDataDownloadReq_SDKC1Ev, __ZN6AriSdk29ARI_IBISmsDataDownloadReq_SDKC2EPKhj, 
                       __ZN6AriSdk29ARI_IBISmsDataDownloadReq_SDKC2Ev, __ZN6AriSdk29ARI_IBISsCallBarringRspCb_SDK4packEPP6AriMsg, 
                       __ZN6AriSdk29ARI_IBISsCallBarringRspCb_SDK6unpackEv, __ZN6AriSdk29ARI_IBISsCallBarringRspCb_SDKC1EPKhj, 
                       __ZN6AriSdk29ARI_IBISsCallBarringRspCb_SDKC1Ev, __ZN6AriSdk29ARI_IBISsCallBarringRspCb_SDKC2EPKhj, 
                       __ZN6AriSdk29ARI_IBISsCallBarringRspCb_SDKC2Ev, __ZN6AriSdk29ARI_IBISsCallForwardRspCb_SDK4packEPP6AriMsg, 
                       __ZN6AriSdk29ARI_IBISsCallForwardRspCb_SDK6unpackEv, __ZN6AriSdk29ARI_IBISsCallForwardRspCb_SDKC1EPKhj, 
                       __ZN6AriSdk29ARI_IBISsCallForwardRspCb_SDKC1Ev, __ZN6AriSdk29ARI_IBISsCallForwardRspCb_SDKC2EPKhj, 
                       __ZN6AriSdk29ARI_IBISsCallForwardRspCb_SDKC2Ev, __ZN6AriSdk29ARI_IBISsCallWaitingRspCb_SDK4packEPP6AriMsg, 
                       __ZN6AriSdk29ARI_IBISsCallWaitingRspCb_SDK6unpackEv, __ZN6AriSdk29ARI_IBISsCallWaitingRspCb_SDKC1EPKhj, 
                       __ZN6AriSdk29ARI_IBISsCallWaitingRspCb_SDKC1Ev, __ZN6AriSdk29ARI_IBISsCallWaitingRspCb_SDKC2EPKhj, 
                       __ZN6AriSdk29ARI_IBISsCallWaitingRspCb_SDKC2Ev, __ZN6AriSdk29ARI_IBIXccClockControlReq_SDK4packEPP6AriMsg, 
                       __ZN6AriSdk29ARI_IBIXccClockControlReq_SDK6unpackEv, __ZN6AriSdk29ARI_IBIXccClockControlReq_SDKC1EPKhj, 
                       __ZN6AriSdk29ARI_IBIXccClockControlReq_SDKC1Ev, __ZN6AriSdk29ARI_IBIXccClockControlReq_SDKC2EPKhj, 
                       __ZN6AriSdk29ARI_IBIXccClockControlReq_SDKC2Ev, __ZN6AriSdk30ARI_AriUtaMsCpsSetSvnRspCb_SDK4packEPP6AriMsg, 
                       __ZN6AriSdk30ARI_AriUtaMsCpsSetSvnRspCb_SDK6unpackEv, __ZN6AriSdk30ARI_AriUtaMsCpsSetSvnRspCb_SDKC1EPKhj, 
                       __ZN6AriSdk30ARI_AriUtaMsCpsSetSvnRspCb_SDKC1Ev, __ZN6AriSdk30ARI_AriUtaMsCpsSetSvnRspCb_SDKC2EPKhj, 
                       __ZN6AriSdk30ARI_AriUtaMsCpsSetSvnRspCb_SDKC2Ev, __ZN6AriSdk30ARI_AriUtaMsNetAttachRspCb_SDK4packEPP6AriMsg, 
                       __ZN6AriSdk30ARI_AriUtaMsNetAttachRspCb_SDK6unpackEv, __ZN6AriSdk30ARI_AriUtaMsNetAttachRspCb_SDKC1EPKhj, 
                       __ZN6AriSdk30ARI_AriUtaMsNetAttachRspCb_SDKC1Ev, __ZN6AriSdk30ARI_AriUtaMsNetAttachRspCb_SDKC2EPKhj, 
                       __ZN6AriSdk30ARI_AriUtaMsNetAttachRspCb_SDKC2Ev, __ZN6AriSdk30ARI_AriUtaMsNetDetachRspCb_SDK4packEPP6AriMsg, 
                       __ZN6AriSdk30ARI_AriUtaMsNetDetachRspCb_SDK6unpackEv, __ZN6AriSdk30ARI_AriUtaMsNetDetachRspCb_SDKC1EPKhj, 
                       __ZN6AriSdk30ARI_AriUtaMsNetDetachRspCb_SDKC1Ev, __ZN6AriSdk30ARI_AriUtaMsNetDetachRspCb_SDKC2EPKhj, 
                       __ZN6AriSdk30ARI_AriUtaMsNetDetachRspCb_SDKC2Ev, __ZN6AriSdk30ARI_CsiAwdsDeleteConfigReq_SDK4packEPP6AriMsg, 
                       __ZN6AriSdk30ARI_CsiAwdsDeleteConfigReq_SDK6unpackEv, __ZN6AriSdk30ARI_CsiAwdsDeleteConfigReq_SDKC1EPKhj, 
                       __ZN6AriSdk30ARI_CsiAwdsDeleteConfigReq_SDKC1Ev, __ZN6AriSdk30ARI_CsiAwdsDeleteConfigReq_SDKC2EPKhj, 
                       __ZN6AriSdk30ARI_CsiAwdsDeleteConfigReq_SDKC2Ev, __ZN6AriSdk30ARI_CsiAwdsGlobalSwitchReq_SDK4packEPP6AriMsg, 
                       __ZN6AriSdk30ARI_CsiAwdsGlobalSwitchReq_SDK6unpackEv, __ZN6AriSdk30ARI_CsiAwdsGlobalSwitchReq_SDKC1EPKhj, 
                       __ZN6AriSdk30ARI_CsiAwdsGlobalSwitchReq_SDKC1Ev, __ZN6AriSdk30ARI_CsiAwdsGlobalSwitchReq_SDKC2EPKhj, 
                       __ZN6AriSdk30ARI_CsiAwdsGlobalSwitchReq_SDKC2Ev, __ZN6AriSdk30ARI_CsiAwdsPiiLocConfigReq_SDK4packEPP6AriMsg, 
                       __ZN6AriSdk30ARI_CsiAwdsPiiLocConfigReq_SDK6unpackEv, __ZN6AriSdk30ARI_CsiAwdsPiiLocConfigReq_SDKC1EPKhj, 
                       __ZN6AriSdk30ARI_CsiAwdsPiiLocConfigReq_SDKC1Ev, __ZN6AriSdk30ARI_CsiAwdsPiiLocConfigReq_SDKC2EPKhj, 
                       __ZN6AriSdk30ARI_CsiAwdsPiiLocConfigReq_SDKC2Ev, __ZN6AriSdk30ARI_CsiBspDebugJtagModeReq_SDK4packEPP6AriMsg, 
                       __ZN6AriSdk30ARI_CsiBspDebugJtagModeReq_SDK6unpackEv, __ZN6AriSdk30ARI_CsiBspDebugJtagModeReq_SDKC1EPKhj, 
                       __ZN6AriSdk30ARI_CsiBspDebugJtagModeReq_SDKC1Ev, __ZN6AriSdk30ARI_CsiBspDebugJtagModeReq_SDKC2EPKhj, 
                       __ZN6AriSdk30ARI_CsiBspDebugJtagModeReq_SDKC2Ev, __ZN6AriSdk30ARI_CsiBspStartSysmonRspCb_SDK4packEPP6AriMsg, 
                       __ZN6AriSdk30ARI_CsiBspStartSysmonRspCb_SDK6unpackEv, __ZN6AriSdk30ARI_CsiBspStartSysmonRspCb_SDKC1EPKhj, 
                       __ZN6AriSdk30ARI_CsiBspStartSysmonRspCb_SDKC1Ev, __ZN6AriSdk30ARI_CsiBspStartSysmonRspCb_SDKC2EPKhj, 
                       __ZN6AriSdk30ARI_CsiBspStartSysmonRspCb_SDKC2Ev, __ZN6AriSdk30ARI_CsiCddGetDebugLogRspCb_SDK4packEPP6AriMsg, 
                       __ZN6AriSdk30ARI_CsiCddGetDebugLogRspCb_SDK6unpackEv, __ZN6AriSdk30ARI_CsiCddGetDebugLogRspCb_SDKC1EPKhj, 
                       __ZN6AriSdk30ARI_CsiCddGetDebugLogRspCb_SDKC1Ev, __ZN6AriSdk30ARI_CsiCddGetDebugLogRspCb_SDKC2EPKhj, 
                       __ZN6AriSdk30ARI_CsiCddGetDebugLogRspCb_SDKC2Ev, __ZN6AriSdk30ARI_CsiIceAntennaPrefRspCb_SDK4packEPP6AriMsg, 
                       __ZN6AriSdk30ARI_CsiIceAntennaPrefRspCb_SDK6unpackEv, __ZN6AriSdk30ARI_CsiIceAntennaPrefRspCb_SDKC1EPKhj, 
                       __ZN6AriSdk30ARI_CsiIceAntennaPrefRspCb_SDKC1Ev, __ZN6AriSdk30ARI_CsiIceAntennaPrefRspCb_SDKC2EPKhj, 
                       __ZN6AriSdk30ARI_CsiIceAntennaPrefRspCb_SDKC2Ev, __ZN6AriSdk30ARI_CsiIceArtdSettingRspCb_SDK4packEPP6AriMsg, 
                       __ZN6AriSdk30ARI_CsiIceArtdSettingRspCb_SDK6unpackEv, __ZN6AriSdk30ARI_CsiIceArtdSettingRspCb_SDKC1EPKhj, 
                       __ZN6AriSdk30ARI_CsiIceArtdSettingRspCb_SDKC1Ev, __ZN6AriSdk30ARI_CsiIceArtdSettingRspCb_SDKC2EPKhj, 
                       __ZN6AriSdk30ARI_CsiIceArtdSettingRspCb_SDKC2Ev, __ZN6AriSdk30ARI_CsiIceAudDeviceInfoReq_SDK4packEPP6AriMsg, 
                       __ZN6AriSdk30ARI_CsiIceAudDeviceInfoReq_SDK6unpackEv, __ZN6AriSdk30ARI_CsiIceAudDeviceInfoReq_SDKC1EPKhj, 
                       __ZN6AriSdk30ARI_CsiIceAudDeviceInfoReq_SDKC1Ev, __ZN6AriSdk30ARI_CsiIceAudDeviceInfoReq_SDKC2EPKhj, 
                       __ZN6AriSdk30ARI_CsiIceAudDeviceInfoReq_SDKC2Ev, __ZN6AriSdk30ARI_CsiIceBBSleepEnableReq_SDK4packEPP6AriMsg, 
                       __ZN6AriSdk30ARI_CsiIceBBSleepEnableReq_SDK6unpackEv, __ZN6AriSdk30ARI_CsiIceBBSleepEnableReq_SDKC1EPKhj, 
                       __ZN6AriSdk30ARI_CsiIceBBSleepEnableReq_SDKC1Ev, __ZN6AriSdk30ARI_CsiIceBBSleepEnableReq_SDKC2EPKhj, 
                       __ZN6AriSdk30ARI_CsiIceBBSleepEnableReq_SDKC2Ev, __ZN6AriSdk30ARI_CsiIceGetCaEnableRspCb_SDK4packEPP6AriMsg, 
                       __ZN6AriSdk30ARI_CsiIceGetCaEnableRspCb_SDK6unpackEv, __ZN6AriSdk30ARI_CsiIceGetCaEnableRspCb_SDKC1EPKhj, 
                       __ZN6AriSdk30ARI_CsiIceGetCaEnableRspCb_SDKC1Ev, __ZN6AriSdk30ARI_CsiIceGetCaEnableRspCb_SDKC2EPKhj, 
                       __ZN6AriSdk30ARI_CsiIceGetCaEnableRspCb_SDKC2Ev, __ZN6AriSdk30ARI_CsiIceRxDiversityRspCb_SDK4packEPP6AriMsg, 
                       __ZN6AriSdk30ARI_CsiIceRxDiversityRspCb_SDK6unpackEv, __ZN6AriSdk30ARI_CsiIceRxDiversityRspCb_SDKC1EPKhj, 
                       __ZN6AriSdk30ARI_CsiIceRxDiversityRspCb_SDKC1Ev, __ZN6AriSdk30ARI_CsiIceRxDiversityRspCb_SDKC2EPKhj, 
                       __ZN6AriSdk30ARI_CsiIceRxDiversityRspCb_SDKC2Ev, __ZN6AriSdk30ARI_CsiIceSarWaitTimeRspCb_SDK4packEPP6AriMsg, 
                       __ZN6AriSdk30ARI_CsiIceSarWaitTimeRspCb_SDK6unpackEv, __ZN6AriSdk30ARI_CsiIceSarWaitTimeRspCb_SDKC1EPKhj, 
                       __ZN6AriSdk30ARI_CsiIceSarWaitTimeRspCb_SDKC1Ev, __ZN6AriSdk30ARI_CsiIceSarWaitTimeRspCb_SDKC2EPKhj, 
                       __ZN6AriSdk30ARI_CsiIceSarWaitTimeRspCb_SDKC2Ev, __ZN6AriSdk30ARI_CsiIceTemperatureIndCb_SDK4packEPP6AriMsg, 
                       __ZN6AriSdk30ARI_CsiIceTemperatureIndCb_SDK6unpackEv, __ZN6AriSdk30ARI_CsiIceTemperatureIndCb_SDKC1EPKhj, 
                       __ZN6AriSdk30ARI_CsiIceTemperatureIndCb_SDKC1Ev, __ZN6AriSdk30ARI_CsiIceTemperatureIndCb_SDKC2EPKhj, 
                       __ZN6AriSdk30ARI_CsiIceTemperatureIndCb_SDKC2Ev, __ZN6AriSdk30ARI_CsiIceTemperatureRspCb_SDK4packEPP6AriMsg, 
                       __ZN6AriSdk30ARI_CsiIceTemperatureRspCb_SDK6unpackEv, __ZN6AriSdk30ARI_CsiIceTemperatureRspCb_SDKC1EPKhj, 
                       __ZN6AriSdk30ARI_CsiIceTemperatureRspCb_SDKC1Ev, __ZN6AriSdk30ARI_CsiIceTemperatureRspCb_SDKC2EPKhj, 
                       __ZN6AriSdk30ARI_CsiIceTemperatureRspCb_SDKC2Ev, __ZN6AriSdk30ARI_CsiIdcGetCellConfigReq_SDK4packEPP6AriMsg, 
                       __ZN6AriSdk30ARI_CsiIdcGetCellConfigReq_SDK6unpackEv, __ZN6AriSdk30ARI_CsiIdcGetCellConfigReq_SDKC1EPKhj, 
                       __ZN6AriSdk30ARI_CsiIdcGetCellConfigReq_SDKC1Ev, __ZN6AriSdk30ARI_CsiIdcGetCellConfigReq_SDKC2EPKhj, 
                       __ZN6AriSdk30ARI_CsiIdcGetCellConfigReq_SDKC2Ev, __ZN6AriSdk30ARI_CsiIdcRTSetScanFreqReq_SDK4packEPP6AriMsg, 
                       __ZN6AriSdk30ARI_CsiIdcRTSetScanFreqReq_SDK6unpackEv, __ZN6AriSdk30ARI_CsiIdcRTSetScanFreqReq_SDKC1EPKhj, 
                       __ZN6AriSdk30ARI_CsiIdcRTSetScanFreqReq_SDKC1Ev, __ZN6AriSdk30ARI_CsiIdcRTSetScanFreqReq_SDKC2EPKhj, 
                       __ZN6AriSdk30ARI_CsiIdcRTSetScanFreqReq_SDKC2Ev, __ZN6AriSdk30ARI_CsiIdcSetRTConfigRspCb_SDK4packEPP6AriMsg, 
                       __ZN6AriSdk30ARI_CsiIdcSetRTConfigRspCb_SDK6unpackEv, __ZN6AriSdk30ARI_CsiIdcSetRTConfigRspCb_SDKC1EPKhj, 
                       __ZN6AriSdk30ARI_CsiIdcSetRTConfigRspCb_SDKC1Ev, __ZN6AriSdk30ARI_CsiIdcSetRTConfigRspCb_SDKC2EPKhj, 
                       __ZN6AriSdk30ARI_CsiIdcSetRTConfigRspCb_SDKC2Ev, __ZN6AriSdk30ARI_CsiSahGetDebugLogRspCb_SDK4packEPP6AriMsg, 
                       __ZN6AriSdk30ARI_CsiSahGetDebugLogRspCb_SDK6unpackEv, __ZN6AriSdk30ARI_CsiSahGetDebugLogRspCb_SDKC1EPKhj, 
                       __ZN6AriSdk30ARI_CsiSahGetDebugLogRspCb_SDKC1Ev, __ZN6AriSdk30ARI_CsiSahGetDebugLogRspCb_SDKC2EPKhj, 
                       __ZN6AriSdk30ARI_CsiSahGetDebugLogRspCb_SDKC2Ev, __ZN6AriSdk30ARI_CsiTraceProfileInitReq_SDK4packEPP6AriMsg, 
                       __ZN6AriSdk30ARI_CsiTraceProfileInitReq_SDK6unpackEv, __ZN6AriSdk30ARI_CsiTraceProfileInitReq_SDKC1EPKhj, 
                       __ZN6AriSdk30ARI_CsiTraceProfileInitReq_SDKC1Ev, __ZN6AriSdk30ARI_CsiTraceProfileInitReq_SDKC2EPKhj, 
                       __ZN6AriSdk30ARI_CsiTraceProfileInitReq_SDKC2Ev, __ZN6AriSdk30ARI_IBICallCsAcceptCallReq_SDK4packEPP6AriMsg, 
                       __ZN6AriSdk30ARI_IBICallCsAcceptCallReq_SDK6unpackEv, __ZN6AriSdk30ARI_IBICallCsAcceptCallReq_SDKC1EPKhj, 
                       __ZN6AriSdk30ARI_IBICallCsAcceptCallReq_SDKC1Ev, __ZN6AriSdk30ARI_IBICallCsAcceptCallReq_SDKC2EPKhj, 
                       __ZN6AriSdk30ARI_IBICallCsAcceptCallReq_SDKC2Ev, __ZN6AriSdk30ARI_IBICallCsAutoAnswerReq_SDK4packEPP6AriMsg, 
                       __ZN6AriSdk30ARI_IBICallCsAutoAnswerReq_SDK6unpackEv, __ZN6AriSdk30ARI_IBICallCsAutoAnswerReq_SDKC1EPKhj, 
                       __ZN6AriSdk30ARI_IBICallCsAutoAnswerReq_SDKC1Ev, __ZN6AriSdk30ARI_IBICallCsAutoAnswerReq_SDKC2EPKhj, 
                       __ZN6AriSdk30ARI_IBICallCsAutoAnswerReq_SDKC2Ev, __ZN6AriSdk30ARI_IBICallCsGetEccListReq_SDK4packEPP6AriMsg, 
                       __ZN6AriSdk30ARI_IBICallCsGetEccListReq_SDK6unpackEv, __ZN6AriSdk30ARI_IBICallCsGetEccListReq_SDKC1EPKhj, 
                       __ZN6AriSdk30ARI_IBICallCsGetEccListReq_SDKC1Ev, __ZN6AriSdk30ARI_IBICallCsGetEccListReq_SDKC2EPKhj, 
                       __ZN6AriSdk30ARI_IBICallCsGetEccListReq_SDKC2Ev, __ZN6AriSdk30ARI_IBICallCsHoldCallRspCb_SDK4packEPP6AriMsg, 
                       __ZN6AriSdk30ARI_IBICallCsHoldCallRspCb_SDK6unpackEv, __ZN6AriSdk30ARI_IBICallCsHoldCallRspCb_SDKC1EPKhj, 
                       __ZN6AriSdk30ARI_IBICallCsHoldCallRspCb_SDKC1Ev, __ZN6AriSdk30ARI_IBICallCsHoldCallRspCb_SDKC2EPKhj, 
                       __ZN6AriSdk30ARI_IBICallCsHoldCallRspCb_SDKC2Ev, __ZN6AriSdk30ARI_IBICallCsStopDtmfIndCb_SDK4packEPP6AriMsg, 
                       __ZN6AriSdk30ARI_IBICallCsStopDtmfIndCb_SDK6unpackEv, __ZN6AriSdk30ARI_IBICallCsStopDtmfIndCb_SDKC1EPKhj, 
                       __ZN6AriSdk30ARI_IBICallCsStopDtmfIndCb_SDKC1Ev, __ZN6AriSdk30ARI_IBICallCsStopDtmfIndCb_SDKC2EPKhj, 
                       __ZN6AriSdk30ARI_IBICallCsStopDtmfIndCb_SDKC2Ev, __ZN6AriSdk30ARI_IBICallPsDropIPPackets_SDK4packEPP6AriMsg, 
                       __ZN6AriSdk30ARI_IBICallPsDropIPPackets_SDK6unpackEv, __ZN6AriSdk30ARI_IBICallPsDropIPPackets_SDKC1EPKhj, 
                       __ZN6AriSdk30ARI_IBICallPsDropIPPackets_SDKC1Ev, __ZN6AriSdk30ARI_IBICallPsDropIPPackets_SDKC2EPKhj, 
                       __ZN6AriSdk30ARI_IBICallPsDropIPPackets_SDKC2Ev, __ZN6AriSdk30ARI_IBICallPsLqmQueryRsbCb_SDK4packEPP6AriMsg, 
                       __ZN6AriSdk30ARI_IBICallPsLqmQueryRsbCb_SDK6unpackEv, __ZN6AriSdk30ARI_IBICallPsLqmQueryRsbCb_SDKC1EPKhj, 
                       __ZN6AriSdk30ARI_IBICallPsLqmQueryRsbCb_SDKC1Ev, __ZN6AriSdk30ARI_IBICallPsLqmQueryRsbCb_SDKC2EPKhj, 
                       __ZN6AriSdk30ARI_IBICallPsLqmQueryRsbCb_SDKC2Ev, __ZN6AriSdk30ARI_IBIImsMEStopMediaRspCb_SDK4packEPP6AriMsg, 
                       __ZN6AriSdk30ARI_IBIImsMEStopMediaRspCb_SDK6unpackEv, __ZN6AriSdk30ARI_IBIImsMEStopMediaRspCb_SDKC1EPKhj, 
                       __ZN6AriSdk30ARI_IBIImsMEStopMediaRspCb_SDKC1Ev, __ZN6AriSdk30ARI_IBIImsMEStopMediaRspCb_SDKC2EPKhj, 
                       __ZN6AriSdk30ARI_IBIImsMEStopMediaRspCb_SDKC2Ev, __ZN6AriSdk30ARI_IBIMsLpGpsAlmanacIndCb_SDK4packEPP6AriMsg, 
                       __ZN6AriSdk30ARI_IBIMsLpGpsAlmanacIndCb_SDK6unpackEv, __ZN6AriSdk30ARI_IBIMsLpGpsAlmanacIndCb_SDKC1EPKhj, 
                       __ZN6AriSdk30ARI_IBIMsLpGpsAlmanacIndCb_SDKC1Ev, __ZN6AriSdk30ARI_IBIMsLpGpsAlmanacIndCb_SDKC2EPKhj, 
                       __ZN6AriSdk30ARI_IBIMsLpGpsAlmanacIndCb_SDKC2Ev, __ZN6AriSdk30ARI_IBINetGetCellInfoIndCb_SDK4packEPP6AriMsg, 
                       __ZN6AriSdk30ARI_IBINetGetCellInfoIndCb_SDK6unpackEv, __ZN6AriSdk30ARI_IBINetGetCellInfoIndCb_SDKC1EPKhj, 
                       __ZN6AriSdk30ARI_IBINetGetCellInfoIndCb_SDKC1Ev, __ZN6AriSdk30ARI_IBINetGetCellInfoIndCb_SDKC2EPKhj, 
                       __ZN6AriSdk30ARI_IBINetGetCellInfoIndCb_SDKC2Ev, __ZN6AriSdk30ARI_IBINetIceApStatusRspCb_SDK4packEPP6AriMsg, 
                       __ZN6AriSdk30ARI_IBINetIceApStatusRspCb_SDK6unpackEv, __ZN6AriSdk30ARI_IBINetIceApStatusRspCb_SDKC1EPKhj, 
                       __ZN6AriSdk30ARI_IBINetIceApStatusRspCb_SDKC1Ev, __ZN6AriSdk30ARI_IBINetIceApStatusRspCb_SDKC2EPKhj, 
                       __ZN6AriSdk30ARI_IBINetIceApStatusRspCb_SDKC2Ev, __ZN6AriSdk30ARI_IBINetIceFdReportIndCb_SDK4packEPP6AriMsg, 
                       __ZN6AriSdk30ARI_IBINetIceFdReportIndCb_SDK6unpackEv, __ZN6AriSdk30ARI_IBINetIceFdReportIndCb_SDKC1EPKhj, 
                       __ZN6AriSdk30ARI_IBINetIceFdReportIndCb_SDKC1Ev, __ZN6AriSdk30ARI_IBINetIceFdReportIndCb_SDKC2EPKhj, 
                       __ZN6AriSdk30ARI_IBINetIceFdReportIndCb_SDKC2Ev, __ZN6AriSdk30ARI_IBINetIceFdStatusCnfCb_SDK4packEPP6AriMsg, 
                       __ZN6AriSdk30ARI_IBINetIceFdStatusCnfCb_SDK6unpackEv, __ZN6AriSdk30ARI_IBINetIceFdStatusCnfCb_SDKC1EPKhj, 
                       __ZN6AriSdk30ARI_IBINetIceFdStatusCnfCb_SDKC1Ev, __ZN6AriSdk30ARI_IBINetIceFdStatusCnfCb_SDKC2EPKhj, 
                       __ZN6AriSdk30ARI_IBINetIceFdStatusCnfCb_SDKC2Ev, __ZN6AriSdk30ARI_IBINetNitzInfoIndCb_V1_SDK4packEPP6AriMsg, 
                       __ZN6AriSdk30ARI_IBINetNitzInfoIndCb_V1_SDK6unpackEv, __ZN6AriSdk30ARI_IBINetNitzInfoIndCb_V1_SDKC1EPKhj, 
                       __ZN6AriSdk30ARI_IBINetNitzInfoIndCb_V1_SDKC1Ev, __ZN6AriSdk30ARI_IBINetNitzInfoIndCb_V1_SDKC2EPKhj, 
                       __ZN6AriSdk30ARI_IBINetNitzInfoIndCb_V1_SDKC2Ev, __ZN6AriSdk30ARI_IBINetRadioSignalIndCb_SDK4packEPP6AriMsg, 
                       __ZN6AriSdk30ARI_IBINetRadioSignalIndCb_SDK6unpackEv, __ZN6AriSdk30ARI_IBINetRadioSignalIndCb_SDKC1EPKhj, 
                       __ZN6AriSdk30ARI_IBINetRadioSignalIndCb_SDKC1Ev, __ZN6AriSdk30ARI_IBINetRadioSignalIndCb_SDKC2EPKhj, 
                       __ZN6AriSdk30ARI_IBINetRadioSignalIndCb_SDKC2Ev, __ZN6AriSdk30ARI_IBINetRatModeStatusReq_SDK4packEPP6AriMsg, 
                       __ZN6AriSdk30ARI_IBINetRatModeStatusReq_SDK6unpackEv, __ZN6AriSdk30ARI_IBINetRatModeStatusReq_SDKC1EPKhj, 
                       __ZN6AriSdk30ARI_IBINetRatModeStatusReq_SDKC1Ev, __ZN6AriSdk30ARI_IBINetRatModeStatusReq_SDKC2EPKhj, 
                       __ZN6AriSdk30ARI_IBINetRatModeStatusReq_SDKC2Ev, __ZN6AriSdk30ARI_IBIPriWriteStatusIndCb_SDK4packEPP6AriMsg, 
                       __ZN6AriSdk30ARI_IBIPriWriteStatusIndCb_SDK6unpackEv, __ZN6AriSdk30ARI_IBIPriWriteStatusIndCb_SDKC1EPKhj, 
                       __ZN6AriSdk30ARI_IBIPriWriteStatusIndCb_SDKC1Ev, __ZN6AriSdk30ARI_IBIPriWriteStatusIndCb_SDKC2EPKhj, 
                       __ZN6AriSdk30ARI_IBIPriWriteStatusIndCb_SDKC2Ev, __ZN6AriSdk30ARI_IBISimAccessApduCmdReq_SDK4packEPP6AriMsg, 
                       __ZN6AriSdk30ARI_IBISimAccessApduCmdReq_SDK6unpackEv, __ZN6AriSdk30ARI_IBISimAccessApduCmdReq_SDKC1EPKhj, 
                       __ZN6AriSdk30ARI_IBISimAccessApduCmdReq_SDKC1Ev, __ZN6AriSdk30ARI_IBISimAccessApduCmdReq_SDKC2EPKhj, 
                       __ZN6AriSdk30ARI_IBISimAccessApduCmdReq_SDKC2Ev, __ZN6AriSdk30ARI_IBISimApplicationRspCb_SDK4packEPP6AriMsg, 
                       __ZN6AriSdk30ARI_IBISimApplicationRspCb_SDK6unpackEv, __ZN6AriSdk30ARI_IBISimApplicationRspCb_SDKC1EPKhj, 
                       __ZN6AriSdk30ARI_IBISimApplicationRspCb_SDKC1Ev, __ZN6AriSdk30ARI_IBISimApplicationRspCb_SDKC2EPKhj, 
                       __ZN6AriSdk30ARI_IBISimApplicationRspCb_SDKC2Ev, __ZN6AriSdk30ARI_IBISimFdnStateIndCbNew_SDK4packEPP6AriMsg, 
                       __ZN6AriSdk30ARI_IBISimFdnStateIndCbNew_SDK6unpackEv, __ZN6AriSdk30ARI_IBISimFdnStateIndCbNew_SDKC1EPKhj, 
                       __ZN6AriSdk30ARI_IBISimFdnStateIndCbNew_SDKC1Ev, __ZN6AriSdk30ARI_IBISimFdnStateIndCbNew_SDKC2EPKhj, 
                       __ZN6AriSdk30ARI_IBISimFdnStateIndCbNew_SDKC2Ev, __ZN6AriSdk30ARI_IBISimOpenChannelRspCb_SDK4packEPP6AriMsg, 
                       __ZN6AriSdk30ARI_IBISimOpenChannelRspCb_SDK6unpackEv, __ZN6AriSdk30ARI_IBISimOpenChannelRspCb_SDKC1EPKhj, 
                       __ZN6AriSdk30ARI_IBISimOpenChannelRspCb_SDKC1Ev, __ZN6AriSdk30ARI_IBISimOpenChannelRspCb_SDKC2EPKhj, 
                       __ZN6AriSdk30ARI_IBISimOpenChannelRspCb_SDKC2Ev, __ZN6AriSdk30ARI_IBISimPbCacheLoadIndCb_SDK4packEPP6AriMsg, 
                       __ZN6AriSdk30ARI_IBISimPbCacheLoadIndCb_SDK6unpackEv, __ZN6AriSdk30ARI_IBISimPbCacheLoadIndCb_SDKC1EPKhj, 
                       __ZN6AriSdk30ARI_IBISimPbCacheLoadIndCb_SDKC1Ev, __ZN6AriSdk30ARI_IBISimPbCacheLoadIndCb_SDKC2EPKhj, 
                       __ZN6AriSdk30ARI_IBISimPbCacheLoadIndCb_SDKC2Ev, __ZN6AriSdk30ARI_IBISimPbLocationReq_V1_SDK4packEPP6AriMsg, 
                       __ZN6AriSdk30ARI_IBISimPbLocationReq_V1_SDK6unpackEv, __ZN6AriSdk30ARI_IBISimPbLocationReq_V1_SDKC1EPKhj, 
                       __ZN6AriSdk30ARI_IBISimPbLocationReq_V1_SDKC1Ev, __ZN6AriSdk30ARI_IBISimPbLocationReq_V1_SDKC2EPKhj, 
                       __ZN6AriSdk30ARI_IBISimPbLocationReq_V1_SDKC2Ev, __ZN6AriSdk30ARI_IBISimPbReadEntryRspCb_SDK4packEPP6AriMsg, 
                       __ZN6AriSdk30ARI_IBISimPbReadEntryRspCb_SDK6unpackEv, __ZN6AriSdk30ARI_IBISimPbReadEntryRspCb_SDKC1EPKhj, 
                       __ZN6AriSdk30ARI_IBISimPbReadEntryRspCb_SDKC1Ev, __ZN6AriSdk30ARI_IBISimPbReadEntryRspCb_SDKC2EPKhj, 
                       __ZN6AriSdk30ARI_IBISimPbReadEntryRspCb_SDKC2Ev, __ZN6AriSdk30ARI_IBISimPlmnModeBitIndCb_SDK4packEPP6AriMsg, 
                       __ZN6AriSdk30ARI_IBISimPlmnModeBitIndCb_SDK6unpackEv, __ZN6AriSdk30ARI_IBISimPlmnModeBitIndCb_SDKC1EPKhj, 
                       __ZN6AriSdk30ARI_IBISimPlmnModeBitIndCb_SDKC1Ev, __ZN6AriSdk30ARI_IBISimPlmnModeBitIndCb_SDKC2EPKhj, 
                       __ZN6AriSdk30ARI_IBISimPlmnModeBitIndCb_SDKC2Ev, __ZN6AriSdk30ARI_IBISimSmscAddressIndCb_SDK4packEPP6AriMsg, 
                       __ZN6AriSdk30ARI_IBISimSmscAddressIndCb_SDK6unpackEv, __ZN6AriSdk30ARI_IBISimSmscAddressIndCb_SDKC1EPKhj, 
                       __ZN6AriSdk30ARI_IBISimSmscAddressIndCb_SDKC1Ev, __ZN6AriSdk30ARI_IBISimSmscAddressIndCb_SDKC2EPKhj, 
                       __ZN6AriSdk30ARI_IBISimSmscAddressIndCb_SDKC2Ev, __ZN6AriSdk30ARI_IBISmsGetMsgWaitIndReq_SDK4packEPP6AriMsg, 
                       __ZN6AriSdk30ARI_IBISmsGetMsgWaitIndReq_SDK6unpackEv, __ZN6AriSdk30ARI_IBISmsGetMsgWaitIndReq_SDKC1EPKhj, 
                       __ZN6AriSdk30ARI_IBISmsGetMsgWaitIndReq_SDKC1Ev, __ZN6AriSdk30ARI_IBISmsGetMsgWaitIndReq_SDKC2EPKhj, 
                       __ZN6AriSdk30ARI_IBISmsGetMsgWaitIndReq_SDKC2Ev, __ZN6AriSdk30ARI_IBISmsSetMsgWaitIndReq_SDK4packEPP6AriMsg, 
                       __ZN6AriSdk30ARI_IBISmsSetMsgWaitIndReq_SDK6unpackEv, __ZN6AriSdk30ARI_IBISmsSetMsgWaitIndReq_SDKC1EPKhj, 
                       __ZN6AriSdk30ARI_IBISmsSetMsgWaitIndReq_SDKC1Ev, __ZN6AriSdk30ARI_IBISmsSetMsgWaitIndReq_SDKC2EPKhj, 
                       __ZN6AriSdk30ARI_IBISmsSetMsgWaitIndReq_SDKC2Ev, __ZN6AriSdk30ARI_IBISsCallBarringReq_V1_SDK4packEPP6AriMsg, 
                       __ZN6AriSdk30ARI_IBISsCallBarringReq_V1_SDK6unpackEv, __ZN6AriSdk30ARI_IBISsCallBarringReq_V1_SDKC1EPKhj, 
                       __ZN6AriSdk30ARI_IBISsCallBarringReq_V1_SDKC1Ev, __ZN6AriSdk30ARI_IBISsCallBarringReq_V1_SDKC2EPKhj, 
                       __ZN6AriSdk30ARI_IBISsCallBarringReq_V1_SDKC2Ev, __ZN6AriSdk30ARI_IBISsExtendedUssdRspCb_SDK4packEPP6AriMsg, 
                       __ZN6AriSdk30ARI_IBISsExtendedUssdRspCb_SDK6unpackEv, __ZN6AriSdk30ARI_IBISsExtendedUssdRspCb_SDKC1EPKhj, 
                       __ZN6AriSdk30ARI_IBISsExtendedUssdRspCb_SDKC1Ev, __ZN6AriSdk30ARI_IBISsExtendedUssdRspCb_SDKC2EPKhj, 
                       __ZN6AriSdk30ARI_IBISsExtendedUssdRspCb_SDKC2Ev, __ZN6AriSdk30ARI_IBISsIdentificationReq_SDK4packEPP6AriMsg, 
                       __ZN6AriSdk30ARI_IBISsIdentificationReq_SDK6unpackEv, __ZN6AriSdk30ARI_IBISsIdentificationReq_SDKC1EPKhj, 
                       __ZN6AriSdk30ARI_IBISsIdentificationReq_SDKC1Ev, __ZN6AriSdk30ARI_IBISsIdentificationReq_SDKC2EPKhj, 
                       __ZN6AriSdk30ARI_IBISsIdentificationReq_SDKC2Ev, __ZN6AriSdk31ARI_CsiCddGetParamDumpRspCb_SDK4packEPP6AriMsg, 
                       __ZN6AriSdk31ARI_CsiCddGetParamDumpRspCb_SDK6unpackEv, __ZN6AriSdk31ARI_CsiCddGetParamDumpRspCb_SDKC1EPKhj, 
                       __ZN6AriSdk31ARI_CsiCddGetParamDumpRspCb_SDKC1Ev, __ZN6AriSdk31ARI_CsiCddGetParamDumpRspCb_SDKC2EPKhj, 
                       __ZN6AriSdk31ARI_CsiCddGetParamDumpRspCb_SDKC2Ev, __ZN6AriSdk31ARI_CsiIceAccessoryStateReq_SDK4packEPP6AriMsg, 
                       __ZN6AriSdk31ARI_CsiIceAccessoryStateReq_SDK6unpackEv, __ZN6AriSdk31ARI_CsiIceAccessoryStateReq_SDKC1EPKhj, 
                       __ZN6AriSdk31ARI_CsiIceAccessoryStateReq_SDKC1Ev, __ZN6AriSdk31ARI_CsiIceAccessoryStateReq_SDKC2EPKhj, 
                       __ZN6AriSdk31ARI_CsiIceAccessoryStateReq_SDKC2Ev, __ZN6AriSdk31ARI_CsiIceAudEnableAudioReq_SDK4packEPP6AriMsg, 
                       __ZN6AriSdk31ARI_CsiIceAudEnableAudioReq_SDK6unpackEv, __ZN6AriSdk31ARI_CsiIceAudEnableAudioReq_SDKC1EPKhj, 
                       __ZN6AriSdk31ARI_CsiIceAudEnableAudioReq_SDKC1Ev, __ZN6AriSdk31ARI_CsiIceAudEnableAudioReq_SDKC2EPKhj, 
                       __ZN6AriSdk31ARI_CsiIceAudEnableAudioReq_SDKC2Ev, __ZN6AriSdk31ARI_CsiIceAudLoopbackRespCb_SDK4packEPP6AriMsg, 
                       __ZN6AriSdk31ARI_CsiIceAudLoopbackRespCb_SDK6unpackEv, __ZN6AriSdk31ARI_CsiIceAudLoopbackRespCb_SDKC1EPKhj, 
                       __ZN6AriSdk31ARI_CsiIceAudLoopbackRespCb_SDKC1Ev, __ZN6AriSdk31ARI_CsiIceAudLoopbackRespCb_SDKC2EPKhj, 
                       __ZN6AriSdk31ARI_CsiIceAudLoopbackRespCb_SDKC2Ev, __ZN6AriSdk31ARI_CsiIceAudToneStopRespCb_SDK4packEPP6AriMsg, 
                       __ZN6AriSdk31ARI_CsiIceAudToneStopRespCb_SDK6unpackEv, __ZN6AriSdk31ARI_CsiIceAudToneStopRespCb_SDKC1EPKhj, 
                       __ZN6AriSdk31ARI_CsiIceAudToneStopRespCb_SDKC1Ev, __ZN6AriSdk31ARI_CsiIceAudToneStopRespCb_SDKC2EPKhj, 
                       __ZN6AriSdk31ARI_CsiIceAudToneStopRespCb_SDKC2Ev, __ZN6AriSdk31ARI_CsiIceAudVocoderInfoReq_SDK4packEPP6AriMsg, 
                       __ZN6AriSdk31ARI_CsiIceAudVocoderInfoReq_SDK6unpackEv, __ZN6AriSdk31ARI_CsiIceAudVocoderInfoReq_SDKC1EPKhj, 
                       __ZN6AriSdk31ARI_CsiIceAudVocoderInfoReq_SDKC1Ev, __ZN6AriSdk31ARI_CsiIceAudVocoderInfoReq_SDKC2EPKhj, 
                       __ZN6AriSdk31ARI_CsiIceAudVocoderInfoReq_SDKC2Ev, __ZN6AriSdk31ARI_CsiIceGetArfcnLockRspCb_SDK4packEPP6AriMsg, 
                       __ZN6AriSdk31ARI_CsiIceGetArfcnLockRspCb_SDK6unpackEv, __ZN6AriSdk31ARI_CsiIceGetArfcnLockRspCb_SDKC1EPKhj, 
                       __ZN6AriSdk31ARI_CsiIceGetArfcnLockRspCb_SDKC1Ev, __ZN6AriSdk31ARI_CsiIceGetArfcnLockRspCb_SDKC2EPKhj, 
                       __ZN6AriSdk31ARI_CsiIceGetArfcnLockRspCb_SDKC2Ev, __ZN6AriSdk31ARI_CsiIceGetArtdSettingReq_SDK4packEPP6AriMsg, 
                       __ZN6AriSdk31ARI_CsiIceGetArtdSettingReq_SDK6unpackEv, __ZN6AriSdk31ARI_CsiIceGetArtdSettingReq_SDKC1EPKhj, 
                       __ZN6AriSdk31ARI_CsiIceGetArtdSettingReq_SDKC1Ev, __ZN6AriSdk31ARI_CsiIceGetArtdSettingReq_SDKC2EPKhj, 
                       __ZN6AriSdk31ARI_CsiIceGetArtdSettingReq_SDKC2Ev, __ZN6AriSdk31ARI_CsiIceGetRxDiversityReq_SDK4packEPP6AriMsg, 
                       __ZN6AriSdk31ARI_CsiIceGetRxDiversityReq_SDK6unpackEv, __ZN6AriSdk31ARI_CsiIceGetRxDiversityReq_SDKC1EPKhj, 
                       __ZN6AriSdk31ARI_CsiIceGetRxDiversityReq_SDKC1Ev, __ZN6AriSdk31ARI_CsiIceGetRxDiversityReq_SDKC2EPKhj, 
                       __ZN6AriSdk31ARI_CsiIceGetRxDiversityReq_SDKC2Ev, __ZN6AriSdk31ARI_CsiIceGetTxAntennaRspCb_SDK4packEPP6AriMsg, 
                       __ZN6AriSdk31ARI_CsiIceGetTxAntennaRspCb_SDK6unpackEv, __ZN6AriSdk31ARI_CsiIceGetTxAntennaRspCb_SDKC1EPKhj, 
                       __ZN6AriSdk31ARI_CsiIceGetTxAntennaRspCb_SDKC1Ev, __ZN6AriSdk31ARI_CsiIceGetTxAntennaRspCb_SDKC2EPKhj, 
                       __ZN6AriSdk31ARI_CsiIceGetTxAntennaRspCb_SDKC2Ev, __ZN6AriSdk31ARI_CsiIceSetTxAntennaRspCb_SDK4packEPP6AriMsg, 
                       __ZN6AriSdk31ARI_CsiIceSetTxAntennaRspCb_SDK6unpackEv, __ZN6AriSdk31ARI_CsiIceSetTxAntennaRspCb_SDKC1EPKhj, 
                       __ZN6AriSdk31ARI_CsiIceSetTxAntennaRspCb_SDKC1Ev, __ZN6AriSdk31ARI_CsiIceSetTxAntennaRspCb_SDKC2EPKhj, 
                       __ZN6AriSdk31ARI_CsiIceSetTxAntennaRspCb_SDKC2Ev, __ZN6AriSdk31ARI_CsiIceSpeakerStateRspCb_SDK4packEPP6AriMsg, 
                       __ZN6AriSdk31ARI_CsiIceSpeakerStateRspCb_SDK6unpackEv, __ZN6AriSdk31ARI_CsiIceSpeakerStateRspCb_SDKC1EPKhj, 
                       __ZN6AriSdk31ARI_CsiIceSpeakerStateRspCb_SDKC1Ev, __ZN6AriSdk31ARI_CsiIceSpeakerStateRspCb_SDKC2EPKhj, 
                       __ZN6AriSdk31ARI_CsiIceSpeakerStateRspCb_SDKC2Ev, __ZN6AriSdk31ARI_CsiIceStartProvisionReq_SDK4packEPP6AriMsg, 
                       __ZN6AriSdk31ARI_CsiIceStartProvisionReq_SDK6unpackEv, __ZN6AriSdk31ARI_CsiIceStartProvisionReq_SDKC1EPKhj, 
                       __ZN6AriSdk31ARI_CsiIceStartProvisionReq_SDKC1Ev, __ZN6AriSdk31ARI_CsiIceStartProvisionReq_SDKC2EPKhj, 
                       __ZN6AriSdk31ARI_CsiIceStartProvisionReq_SDKC2Ev, __ZN6AriSdk31ARI_CsiIceWakeupReasonRspCb_SDK4packEPP6AriMsg, 
                       __ZN6AriSdk31ARI_CsiIceWakeupReasonRspCb_SDK6unpackEv, __ZN6AriSdk31ARI_CsiIceWakeupReasonRspCb_SDKC1EPKhj, 
                       __ZN6AriSdk31ARI_CsiIceWakeupReasonRspCb_SDKC1Ev, __ZN6AriSdk31ARI_CsiIceWakeupReasonRspCb_SDKC2EPKhj, 
                       __ZN6AriSdk31ARI_CsiIceWakeupReasonRspCb_SDKC2Ev, __ZN6AriSdk31ARI_CsiIdcControlEventRspCb_SDK4packEPP6AriMsg, 
                       __ZN6AriSdk31ARI_CsiIdcControlEventRspCb_SDK6unpackEv, __ZN6AriSdk31ARI_CsiIdcControlEventRspCb_SDKC1EPKhj, 
                       __ZN6AriSdk31ARI_CsiIdcControlEventRspCb_SDKC1Ev, __ZN6AriSdk31ARI_CsiIdcControlEventRspCb_SDKC2EPKhj, 
                       __ZN6AriSdk31ARI_CsiIdcControlEventRspCb_SDKC2Ev, __ZN6AriSdk31ARI_CsiMonMemoryStatusRspCb_SDK4packEPP6AriMsg, 
                       __ZN6AriSdk31ARI_CsiMonMemoryStatusRspCb_SDK6unpackEv, __ZN6AriSdk31ARI_CsiMonMemoryStatusRspCb_SDKC1EPKhj, 
                       __ZN6AriSdk31ARI_CsiMonMemoryStatusRspCb_SDKC1Ev, __ZN6AriSdk31ARI_CsiMonMemoryStatusRspCb_SDKC2EPKhj, 
                       __ZN6AriSdk31ARI_CsiMonMemoryStatusRspCb_SDKC2Ev, __ZN6AriSdk31ARI_CsiMsSimCardPresenceReq_SDK4packEPP6AriMsg, 
                       __ZN6AriSdk31ARI_CsiMsSimCardPresenceReq_SDK6unpackEv, __ZN6AriSdk31ARI_CsiMsSimCardPresenceReq_SDKC1EPKhj, 
                       __ZN6AriSdk31ARI_CsiMsSimCardPresenceReq_SDKC1Ev, __ZN6AriSdk31ARI_CsiMsSimCardPresenceReq_SDKC2EPKhj, 
                       __ZN6AriSdk31ARI_CsiMsSimCardPresenceReq_SDKC2Ev, __ZN6AriSdk31ARI_CsiSahGetCrashReportReq_SDK4packEPP6AriMsg, 
                       __ZN6AriSdk31ARI_CsiSahGetCrashReportReq_SDK6unpackEv, __ZN6AriSdk31ARI_CsiSahGetCrashReportReq_SDKC1EPKhj, 
                       __ZN6AriSdk31ARI_CsiSahGetCrashReportReq_SDKC1Ev, __ZN6AriSdk31ARI_CsiSahGetCrashReportReq_SDKC2EPKhj, 
                       __ZN6AriSdk31ARI_CsiSahGetCrashReportReq_SDKC2Ev, __ZN6AriSdk31ARI_CsiSecGetFusingStateReq_SDK4packEPP6AriMsg, 
                       __ZN6AriSdk31ARI_CsiSecGetFusingStateReq_SDK6unpackEv, __ZN6AriSdk31ARI_CsiSecGetFusingStateReq_SDKC1EPKhj, 
                       __ZN6AriSdk31ARI_CsiSecGetFusingStateReq_SDKC1Ev, __ZN6AriSdk31ARI_CsiSecGetFusingStateReq_SDKC2EPKhj, 
                       __ZN6AriSdk31ARI_CsiSecGetFusingStateReq_SDKC2Ev, __ZN6AriSdk31ARI_CsiSecGetRandomNumRspCb_SDK4packEPP6AriMsg, 
                       __ZN6AriSdk31ARI_CsiSecGetRandomNumRspCb_SDK6unpackEv, __ZN6AriSdk31ARI_CsiSecGetRandomNumRspCb_SDKC1EPKhj, 
                       __ZN6AriSdk31ARI_CsiSecGetRandomNumRspCb_SDKC1Ev, __ZN6AriSdk31ARI_CsiSecGetRandomNumRspCb_SDKC2EPKhj, 
                       __ZN6AriSdk31ARI_CsiSecGetRandomNumRspCb_SDKC2Ev, __ZN6AriSdk31ARI_IBIApacsDataStatusRspCb_SDK4packEPP6AriMsg, 
                       __ZN6AriSdk31ARI_IBIApacsDataStatusRspCb_SDK6unpackEv, __ZN6AriSdk31ARI_IBIApacsDataStatusRspCb_SDKC1EPKhj, 
                       __ZN6AriSdk31ARI_IBIApacsDataStatusRspCb_SDKC1Ev, __ZN6AriSdk31ARI_IBIApacsDataStatusRspCb_SDKC2EPKhj, 
                       __ZN6AriSdk31ARI_IBIApacsDataStatusRspCb_SDKC2Ev, __ZN6AriSdk31ARI_IBICallCsJoinCallsRspCb_SDK4packEPP6AriMsg, 
                       __ZN6AriSdk31ARI_IBICallCsJoinCallsRspCb_SDK6unpackEv, __ZN6AriSdk31ARI_IBICallCsJoinCallsRspCb_SDKC1EPKhj, 
                       __ZN6AriSdk31ARI_IBICallCsJoinCallsRspCb_SDKC1Ev, __ZN6AriSdk31ARI_IBICallCsJoinCallsRspCb_SDKC2EPKhj, 
                       __ZN6AriSdk31ARI_IBICallCsJoinCallsRspCb_SDKC2Ev, __ZN6AriSdk31ARI_IBICallCsReleaseCallReq_SDK4packEPP6AriMsg, 
                       __ZN6AriSdk31ARI_IBICallCsReleaseCallReq_SDK6unpackEv, __ZN6AriSdk31ARI_IBICallCsReleaseCallReq_SDKC1EPKhj, 
                       __ZN6AriSdk31ARI_IBICallCsReleaseCallReq_SDKC1Ev, __ZN6AriSdk31ARI_IBICallCsReleaseCallReq_SDKC2EPKhj, 
                       __ZN6AriSdk31ARI_IBICallCsReleaseCallReq_SDKC2Ev, __ZN6AriSdk31ARI_IBICallCsSetClirModeReq_SDK4packEPP6AriMsg, 
                       __ZN6AriSdk31ARI_IBICallCsSetClirModeReq_SDK6unpackEv, __ZN6AriSdk31ARI_IBICallCsSetClirModeReq_SDKC1EPKhj, 
                       __ZN6AriSdk31ARI_IBICallCsSetClirModeReq_SDKC1Ev, __ZN6AriSdk31ARI_IBICallCsSetClirModeReq_SDKC2EPKhj, 
                       __ZN6AriSdk31ARI_IBICallCsSetClirModeReq_SDKC2Ev, __ZN6AriSdk31ARI_IBICallCsSetupCallRspCb_SDK4packEPP6AriMsg, 
                       __ZN6AriSdk31ARI_IBICallCsSetupCallRspCb_SDK6unpackEv, __ZN6AriSdk31ARI_IBICallCsSetupCallRspCb_SDKC1EPKhj, 
                       __ZN6AriSdk31ARI_IBICallCsSetupCallRspCb_SDKC1Ev, __ZN6AriSdk31ARI_IBICallCsSetupCallRspCb_SDKC2EPKhj, 
                       __ZN6AriSdk31ARI_IBICallCsSetupCallRspCb_SDKC2Ev, __ZN6AriSdk31ARI_IBICallCsSplitMptyRspCb_SDK4packEPP6AriMsg, 
                       __ZN6AriSdk31ARI_IBICallCsSplitMptyRspCb_SDK6unpackEv, __ZN6AriSdk31ARI_IBICallCsSplitMptyRspCb_SDKC1EPKhj, 
                       __ZN6AriSdk31ARI_IBICallCsSplitMptyRspCb_SDKC1Ev, __ZN6AriSdk31ARI_IBICallCsSplitMptyRspCb_SDKC2EPKhj, 
                       __ZN6AriSdk31ARI_IBICallCsSplitMptyRspCb_SDKC2Ev, __ZN6AriSdk31ARI_IBICallCsStartDtmfIndCb_SDK4packEPP6AriMsg, 
                       __ZN6AriSdk31ARI_IBICallCsStartDtmfIndCb_SDK6unpackEv, __ZN6AriSdk31ARI_IBICallCsStartDtmfIndCb_SDKC1EPKhj, 
                       __ZN6AriSdk31ARI_IBICallCsStartDtmfIndCb_SDKC1Ev, __ZN6AriSdk31ARI_IBICallCsStartDtmfIndCb_SDKC2EPKhj, 
                       __ZN6AriSdk31ARI_IBICallCsStartDtmfIndCb_SDKC2Ev, __ZN6AriSdk31ARI_IBICallCsStartDtmfRspCb_SDK4packEPP6AriMsg, 
                       __ZN6AriSdk31ARI_IBICallCsStartDtmfRspCb_SDK6unpackEv, __ZN6AriSdk31ARI_IBICallCsStartDtmfRspCb_SDKC1EPKhj, 
                       __ZN6AriSdk31ARI_IBICallCsStartDtmfRspCb_SDKC1Ev, __ZN6AriSdk31ARI_IBICallCsStartDtmfRspCb_SDKC2EPKhj, 
                       __ZN6AriSdk31ARI_IBICallCsStartDtmfRspCb_SDKC2Ev, __ZN6AriSdk31ARI_IBICallCsSwapCallsRspCb_SDK4packEPP6AriMsg, 
                       __ZN6AriSdk31ARI_IBICallCsSwapCallsRspCb_SDK6unpackEv, __ZN6AriSdk31ARI_IBICallCsSwapCallsRspCb_SDKC1EPKhj, 
                       __ZN6AriSdk31ARI_IBICallCsSwapCallsRspCb_SDKC1Ev, __ZN6AriSdk31ARI_IBICallCsSwapCallsRspCb_SDKC2EPKhj, 
                       __ZN6AriSdk31ARI_IBICallCsSwapCallsRspCb_SDKC2Ev, __ZN6AriSdk31ARI_IBICallPsFlushDataRspCb_SDK4packEPP6AriMsg, 
                       __ZN6AriSdk31ARI_IBICallPsFlushDataRspCb_SDK6unpackEv, __ZN6AriSdk31ARI_IBICallPsFlushDataRspCb_SDKC1EPKhj, 
                       __ZN6AriSdk31ARI_IBICallPsFlushDataRspCb_SDKC1Ev, __ZN6AriSdk31ARI_IBICallPsFlushDataRspCb_SDKC2EPKhj, 
                       __ZN6AriSdk31ARI_IBICallPsFlushDataRspCb_SDKC2Ev, __ZN6AriSdk31ARI_IBICallPsImsTestModeReq_SDK4packEPP6AriMsg, 
                       __ZN6AriSdk31ARI_IBICallPsImsTestModeReq_SDK6unpackEv, __ZN6AriSdk31ARI_IBICallPsImsTestModeReq_SDKC1EPKhj, 
                       __ZN6AriSdk31ARI_IBICallPsImsTestModeReq_SDKC1Ev, __ZN6AriSdk31ARI_IBICallPsImsTestModeReq_SDKC2EPKhj, 
                       __ZN6AriSdk31ARI_IBICallPsImsTestModeReq_SDKC2Ev, __ZN6AriSdk31ARI_IBICallPsLqmRegisterReq_SDK4packEPP6AriMsg, 
                       __ZN6AriSdk31ARI_IBICallPsLqmRegisterReq_SDK6unpackEv, __ZN6AriSdk31ARI_IBICallPsLqmRegisterReq_SDKC1EPKhj, 
                       __ZN6AriSdk31ARI_IBICallPsLqmRegisterReq_SDKC1Ev, __ZN6AriSdk31ARI_IBICallPsLqmRegisterReq_SDKC2EPKhj, 
                       __ZN6AriSdk31ARI_IBICallPsLqmRegisterReq_SDKC2Ev, __ZN6AriSdk31ARI_IBIImsMEStartMediaRspCb_SDK4packEPP6AriMsg, 
                       __ZN6AriSdk31ARI_IBIImsMEStartMediaRspCb_SDK6unpackEv, __ZN6AriSdk31ARI_IBIImsMEStartMediaRspCb_SDKC1EPKhj, 
                       __ZN6AriSdk31ARI_IBIImsMEStartMediaRspCb_SDKC1Ev, __ZN6AriSdk31ARI_IBIImsMEStartMediaRspCb_SDKC2EPKhj, 
                       __ZN6AriSdk31ARI_IBIImsMEStartMediaRspCb_SDKC2Ev, __ZN6AriSdk31ARI_IBIImsMEStopDTMFCodeReq_SDK4packEPP6AriMsg, 
                       __ZN6AriSdk31ARI_IBIImsMEStopDTMFCodeReq_SDK6unpackEv, __ZN6AriSdk31ARI_IBIImsMEStopDTMFCodeReq_SDKC1EPKhj, 
                       __ZN6AriSdk31ARI_IBIImsMEStopDTMFCodeReq_SDKC1Ev, __ZN6AriSdk31ARI_IBIImsMEStopDTMFCodeReq_SDKC2EPKhj, 
                       __ZN6AriSdk31ARI_IBIImsMEStopDTMFCodeReq_SDKC2Ev, __ZN6AriSdk31ARI_IBIMsLpGnssSuspendIndCb_SDK4packEPP6AriMsg, 
                       __ZN6AriSdk31ARI_IBIMsLpGnssSuspendIndCb_SDK6unpackEv, __ZN6AriSdk31ARI_IBIMsLpGnssSuspendIndCb_SDKC1EPKhj, 
                       __ZN6AriSdk31ARI_IBIMsLpGnssSuspendIndCb_SDKC1Ev, __ZN6AriSdk31ARI_IBIMsLpGnssSuspendIndCb_SDKC2EPKhj, 
                       __ZN6AriSdk31ARI_IBIMsLpGnssSuspendIndCb_SDKC2Ev, __ZN6AriSdk31ARI_IBIMsLpGpsUtcModelIndCb_SDK4packEPP6AriMsg, 
                       __ZN6AriSdk31ARI_IBIMsLpGpsUtcModelIndCb_SDK6unpackEv, __ZN6AriSdk31ARI_IBIMsLpGpsUtcModelIndCb_SDKC1EPKhj, 
                       __ZN6AriSdk31ARI_IBIMsLpGpsUtcModelIndCb_SDKC1Ev, __ZN6AriSdk31ARI_IBIMsLpGpsUtcModelIndCb_SDKC2EPKhj, 
                       __ZN6AriSdk31ARI_IBIMsLpGpsUtcModelIndCb_SDKC2Ev, __ZN6AriSdk31ARI_IBINetGetCellInfoRespCb_SDK4packEPP6AriMsg, 
                       __ZN6AriSdk31ARI_IBINetGetCellInfoRespCb_SDK6unpackEv, __ZN6AriSdk31ARI_IBINetGetCellInfoRespCb_SDKC1EPKhj, 
                       __ZN6AriSdk31ARI_IBINetGetCellInfoRespCb_SDKC1Ev, __ZN6AriSdk31ARI_IBINetGetCellInfoRespCb_SDKC2EPKhj, 
                       __ZN6AriSdk31ARI_IBINetGetCellInfoRespCb_SDKC2Ev, __ZN6AriSdk31ARI_IBINetSingleShotFdRspCb_SDK4packEPP6AriMsg, 
                       __ZN6AriSdk31ARI_IBINetSingleShotFdRspCb_SDK6unpackEv, __ZN6AriSdk31ARI_IBINetSingleShotFdRspCb_SDKC1EPKhj, 
                       __ZN6AriSdk31ARI_IBINetSingleShotFdRspCb_SDKC1Ev, __ZN6AriSdk31ARI_IBINetSingleShotFdRspCb_SDKC2EPKhj, 
                       __ZN6AriSdk31ARI_IBINetSingleShotFdRspCb_SDKC2Ev, __ZN6AriSdk31ARI_IBISetRtcEpochTimeRspCb_SDK4packEPP6AriMsg, 
                       __ZN6AriSdk31ARI_IBISetRtcEpochTimeRspCb_SDK6unpackEv, __ZN6AriSdk31ARI_IBISetRtcEpochTimeRspCb_SDKC1EPKhj, 
                       __ZN6AriSdk31ARI_IBISetRtcEpochTimeRspCb_SDKC1Ev, __ZN6AriSdk31ARI_IBISetRtcEpochTimeRspCb_SDKC2EPKhj, 
                       __ZN6AriSdk31ARI_IBISetRtcEpochTimeRspCb_SDKC2Ev, __ZN6AriSdk31ARI_IBISimCloseChannelRspCb_SDK4packEPP6AriMsg, 
                       __ZN6AriSdk31ARI_IBISimCloseChannelRspCb_SDK6unpackEv, __ZN6AriSdk31ARI_IBISimCloseChannelRspCb_SDKC1EPKhj, 
                       __ZN6AriSdk31ARI_IBISimCloseChannelRspCb_SDKC1Ev, __ZN6AriSdk31ARI_IBISimCloseChannelRspCb_SDKC2EPKhj, 
                       __ZN6AriSdk31ARI_IBISimCloseChannelRspCb_SDKC2Ev, __ZN6AriSdk31ARI_IBISimExtendedAuthRspCb_SDK4packEPP6AriMsg, 
                       __ZN6AriSdk31ARI_IBISimExtendedAuthRspCb_SDK6unpackEv, __ZN6AriSdk31ARI_IBISimExtendedAuthRspCb_SDKC1EPKhj, 
                       __ZN6AriSdk31ARI_IBISimExtendedAuthRspCb_SDKC1Ev, __ZN6AriSdk31ARI_IBISimExtendedAuthRspCb_SDKC2EPKhj, 
                       __ZN6AriSdk31ARI_IBISimExtendedAuthRspCb_SDKC2Ev, __ZN6AriSdk31ARI_IBISimFileReadBinaryReq_SDK4packEPP6AriMsg, 
                       __ZN6AriSdk31ARI_IBISimFileReadBinaryReq_SDK6unpackEv, __ZN6AriSdk31ARI_IBISimFileReadBinaryReq_SDKC1EPKhj, 
                       __ZN6AriSdk31ARI_IBISimFileReadBinaryReq_SDKC1Ev, __ZN6AriSdk31ARI_IBISimFileReadBinaryReq_SDKC2EPKhj, 
                       __ZN6AriSdk31ARI_IBISimFileReadBinaryReq_SDKC2Ev, __ZN6AriSdk31ARI_IBISimGetPlmnModeBitReq_SDK4packEPP6AriMsg, 
                       __ZN6AriSdk31ARI_IBISimGetPlmnModeBitReq_SDK6unpackEv, __ZN6AriSdk31ARI_IBISimGetPlmnModeBitReq_SDKC1EPKhj, 
                       __ZN6AriSdk31ARI_IBISimGetPlmnModeBitReq_SDKC1Ev, __ZN6AriSdk31ARI_IBISimGetPlmnModeBitReq_SDKC2EPKhj, 
                       __ZN6AriSdk31ARI_IBISimGetPlmnModeBitReq_SDKC2Ev, __ZN6AriSdk31ARI_IBISimGetSmscAddressReq_SDK4packEPP6AriMsg, 
                       __ZN6AriSdk31ARI_IBISimGetSmscAddressReq_SDK6unpackEv, __ZN6AriSdk31ARI_IBISimGetSmscAddressReq_SDKC1EPKhj, 
                       __ZN6AriSdk31ARI_IBISimGetSmscAddressReq_SDKC1Ev, __ZN6AriSdk31ARI_IBISimGetSmscAddressReq_SDKC2EPKhj, 
                       __ZN6AriSdk31ARI_IBISimGetSmscAddressReq_SDKC2Ev, __ZN6AriSdk31ARI_IBISimPbUsimPbSelectReq_SDK4packEPP6AriMsg, 
                       __ZN6AriSdk31ARI_IBISimPbUsimPbSelectReq_SDK6unpackEv, __ZN6AriSdk31ARI_IBISimPbUsimPbSelectReq_SDKC1EPKhj, 
                       __ZN6AriSdk31ARI_IBISimPbUsimPbSelectReq_SDKC1Ev, __ZN6AriSdk31ARI_IBISimPbUsimPbSelectReq_SDKC2EPKhj, 
                       __ZN6AriSdk31ARI_IBISimPbUsimPbSelectReq_SDKC2Ev, __ZN6AriSdk31ARI_IBISimPbWriteEntryRspCb_SDK4packEPP6AriMsg, 
                       __ZN6AriSdk31ARI_IBISimPbWriteEntryRspCb_SDK6unpackEv, __ZN6AriSdk31ARI_IBISimPbWriteEntryRspCb_SDKC1EPKhj, 
                       __ZN6AriSdk31ARI_IBISimPbWriteEntryRspCb_SDKC1Ev, __ZN6AriSdk31ARI_IBISimPbWriteEntryRspCb_SDKC2EPKhj, 
                       __ZN6AriSdk31ARI_IBISimPbWriteEntryRspCb_SDKC2Ev, __ZN6AriSdk31ARI_IBISimSetSmscAddressReq_SDK4packEPP6AriMsg, 
                       __ZN6AriSdk31ARI_IBISimSetSmscAddressReq_SDK6unpackEv, __ZN6AriSdk31ARI_IBISimSetSmscAddressReq_SDKC1EPKhj, 
                       __ZN6AriSdk31ARI_IBISimSetSmscAddressReq_SDKC1Ev, __ZN6AriSdk31ARI_IBISimSetSmscAddressReq_SDKC2EPKhj, 
                       __ZN6AriSdk31ARI_IBISimSetSmscAddressReq_SDKC2Ev, __ZN6AriSdk31ARI_IBISimTkExecStkCmdIndCb_SDK4packEPP6AriMsg, 
                       __ZN6AriSdk31ARI_IBISimTkExecStkCmdIndCb_SDK6unpackEv, __ZN6AriSdk31ARI_IBISimTkExecStkCmdIndCb_SDKC1EPKhj, 
                       __ZN6AriSdk31ARI_IBISimTkExecStkCmdIndCb_SDKC1Ev, __ZN6AriSdk31ARI_IBISimTkExecStkCmdIndCb_SDKC2EPKhj, 
                       __ZN6AriSdk31ARI_IBISimTkExecStkCmdIndCb_SDKC2Ev, __ZN6AriSdk31ARI_IBISimTkRefreshFcnIndCb_SDK4packEPP6AriMsg, 
                       __ZN6AriSdk31ARI_IBISimTkRefreshFcnIndCb_SDK6unpackEv, __ZN6AriSdk31ARI_IBISimTkRefreshFcnIndCb_SDKC1EPKhj, 
                       __ZN6AriSdk31ARI_IBISimTkRefreshFcnIndCb_SDKC1Ev, __ZN6AriSdk31ARI_IBISimTkRefreshFcnIndCb_SDKC2EPKhj, 
                       __ZN6AriSdk31ARI_IBISimTkRefreshFcnIndCb_SDKC2Ev, __ZN6AriSdk31ARI_IBISimTkRefreshQueryRsp_SDK4packEPP6AriMsg, 
                       __ZN6AriSdk31ARI_IBISimTkRefreshQueryRsp_SDK6unpackEv, __ZN6AriSdk31ARI_IBISimTkRefreshQueryRsp_SDKC1EPKhj, 
                       __ZN6AriSdk31ARI_IBISimTkRefreshQueryRsp_SDKC1Ev, __ZN6AriSdk31ARI_IBISimTkRefreshQueryRsp_SDKC2EPKhj, 
                       __ZN6AriSdk31ARI_IBISimTkRefreshQueryRsp_SDKC2Ev, __ZN6AriSdk31ARI_IBISimTkResetConfirmRsp_SDK4packEPP6AriMsg, 
                       __ZN6AriSdk31ARI_IBISimTkResetConfirmRsp_SDK6unpackEv, __ZN6AriSdk31ARI_IBISimTkResetConfirmRsp_SDKC1EPKhj, 
                       __ZN6AriSdk31ARI_IBISimTkResetConfirmRsp_SDKC1Ev, __ZN6AriSdk31ARI_IBISimTkResetConfirmRsp_SDKC2EPKhj, 
                       __ZN6AriSdk31ARI_IBISimTkResetConfirmRsp_SDKC2Ev, __ZN6AriSdk31ARI_IBISimTkResetQueryIndCb_SDK4packEPP6AriMsg, 
                       __ZN6AriSdk31ARI_IBISimTkResetQueryIndCb_SDK6unpackEv, __ZN6AriSdk31ARI_IBISimTkResetQueryIndCb_SDKC1EPKhj, 
                       __ZN6AriSdk31ARI_IBISimTkResetQueryIndCb_SDKC1Ev, __ZN6AriSdk31ARI_IBISimTkResetQueryIndCb_SDKC2EPKhj, 
                       __ZN6AriSdk31ARI_IBISimTkResetQueryIndCb_SDKC2Ev, __ZN6AriSdk31ARI_IBISmsDataDownloadRspCb_SDK4packEPP6AriMsg, 
                       __ZN6AriSdk31ARI_IBISmsDataDownloadRspCb_SDK6unpackEv, __ZN6AriSdk31ARI_IBISmsDataDownloadRspCb_SDKC1EPKhj, 
                       __ZN6AriSdk31ARI_IBISmsDataDownloadRspCb_SDKC1Ev, __ZN6AriSdk31ARI_IBISmsDataDownloadRspCb_SDKC2EPKhj, 
                       __ZN6AriSdk31ARI_IBISmsDataDownloadRspCb_SDKC2Ev, __ZN6AriSdk31ARI_IBIXccClockControlIndCb_SDK4packEPP6AriMsg, 
                       __ZN6AriSdk31ARI_IBIXccClockControlIndCb_SDK6unpackEv, __ZN6AriSdk31ARI_IBIXccClockControlIndCb_SDKC1EPKhj, 
                       __ZN6AriSdk31ARI_IBIXccClockControlIndCb_SDKC1Ev, __ZN6AriSdk31ARI_IBIXccClockControlIndCb_SDKC2EPKhj, 
                       __ZN6AriSdk31ARI_IBIXccClockControlIndCb_SDKC2Ev, __ZN6AriSdk31ARI_IBIXccClockControlRspCb_SDK4packEPP6AriMsg, 
                       __ZN6AriSdk31ARI_IBIXccClockControlRspCb_SDK6unpackEv, __ZN6AriSdk31ARI_IBIXccClockControlRspCb_SDKC1EPKhj, 
                       __ZN6AriSdk31ARI_IBIXccClockControlRspCb_SDKC1Ev, __ZN6AriSdk31ARI_IBIXccClockControlRspCb_SDKC2EPKhj, 
                       __ZN6AriSdk31ARI_IBIXccClockControlRspCb_SDKC2Ev, __ZN6AriSdk32ARI_CsiAwdsDeleteConfigRspCb_SDK4packEPP6AriMsg, 
                       __ZN6AriSdk32ARI_CsiAwdsDeleteConfigRspCb_SDK6unpackEv, __ZN6AriSdk32ARI_CsiAwdsDeleteConfigRspCb_SDKC1EPKhj, 
                       __ZN6AriSdk32ARI_CsiAwdsDeleteConfigRspCb_SDKC1Ev, __ZN6AriSdk32ARI_CsiAwdsDeleteConfigRspCb_SDKC2EPKhj, 
                       __ZN6AriSdk32ARI_CsiAwdsDeleteConfigRspCb_SDKC2Ev, __ZN6AriSdk32ARI_CsiAwdsGlobalSwitchRspCb_SDK4packEPP6AriMsg, 
                       __ZN6AriSdk32ARI_CsiAwdsGlobalSwitchRspCb_SDK6unpackEv, __ZN6AriSdk32ARI_CsiAwdsGlobalSwitchRspCb_SDKC1EPKhj, 
                       __ZN6AriSdk32ARI_CsiAwdsGlobalSwitchRspCb_SDKC1Ev, __ZN6AriSdk32ARI_CsiAwdsGlobalSwitchRspCb_SDKC2EPKhj, 
                       __ZN6AriSdk32ARI_CsiAwdsGlobalSwitchRspCb_SDKC2Ev, __ZN6AriSdk32ARI_CsiAwdsPiiLocConfigRspCb_SDK4packEPP6AriMsg, 
                       __ZN6AriSdk32ARI_CsiAwdsPiiLocConfigRspCb_SDK6unpackEv, __ZN6AriSdk32ARI_CsiAwdsPiiLocConfigRspCb_SDKC1EPKhj, 
                       __ZN6AriSdk32ARI_CsiAwdsPiiLocConfigRspCb_SDKC1Ev, __ZN6AriSdk32ARI_CsiAwdsPiiLocConfigRspCb_SDKC2EPKhj, 
                       __ZN6AriSdk32ARI_CsiAwdsPiiLocConfigRspCb_SDKC2Ev, __ZN6AriSdk32ARI_CsiBspDebugJtagModeRspCb_SDK4packEPP6AriMsg, 
                       __ZN6AriSdk32ARI_CsiBspDebugJtagModeRspCb_SDK6unpackEv, __ZN6AriSdk32ARI_CsiBspDebugJtagModeRspCb_SDKC1EPKhj, 
                       __ZN6AriSdk32ARI_CsiBspDebugJtagModeRspCb_SDKC1Ev, __ZN6AriSdk32ARI_CsiBspDebugJtagModeRspCb_SDKC2EPKhj, 
                       __ZN6AriSdk32ARI_CsiBspDebugJtagModeRspCb_SDKC2Ev, __ZN6AriSdk32ARI_CsiBspNvmReadGroupRespCb_SDK4packEPP6AriMsg, 
                       __ZN6AriSdk32ARI_CsiBspNvmReadGroupRespCb_SDK6unpackEv, __ZN6AriSdk32ARI_CsiBspNvmReadGroupRespCb_SDKC1EPKhj, 
                       __ZN6AriSdk32ARI_CsiBspNvmReadGroupRespCb_SDKC1Ev, __ZN6AriSdk32ARI_CsiBspNvmReadGroupRespCb_SDKC2EPKhj, 
                       __ZN6AriSdk32ARI_CsiBspNvmReadGroupRespCb_SDKC2Ev, __ZN6AriSdk32ARI_CsiIceAudCallEventRespCb_SDK4packEPP6AriMsg, 
                       __ZN6AriSdk32ARI_CsiIceAudCallEventRespCb_SDK6unpackEv, __ZN6AriSdk32ARI_CsiIceAudCallEventRespCb_SDKC1EPKhj, 
                       __ZN6AriSdk32ARI_CsiIceAudCallEventRespCb_SDKC1Ev, __ZN6AriSdk32ARI_CsiIceAudCallEventRespCb_SDKC2EPKhj, 
                       __ZN6AriSdk32ARI_CsiIceAudCallEventRespCb_SDKC2Ev, __ZN6AriSdk32ARI_CsiIceAudDeviceInfoIndCb_SDK4packEPP6AriMsg, 
                       __ZN6AriSdk32ARI_CsiIceAudDeviceInfoIndCb_SDK6unpackEv, __ZN6AriSdk32ARI_CsiIceAudDeviceInfoIndCb_SDKC1EPKhj, 
                       __ZN6AriSdk32ARI_CsiIceAudDeviceInfoIndCb_SDKC1Ev, __ZN6AriSdk32ARI_CsiIceAudDeviceInfoIndCb_SDKC2EPKhj, 
                       __ZN6AriSdk32ARI_CsiIceAudDeviceInfoIndCb_SDKC2Ev, __ZN6AriSdk32ARI_CsiIceAudDisableAudioReq_SDK4packEPP6AriMsg, 
                       __ZN6AriSdk32ARI_CsiIceAudDisableAudioReq_SDK6unpackEv, __ZN6AriSdk32ARI_CsiIceAudDisableAudioReq_SDKC1EPKhj, 
                       __ZN6AriSdk32ARI_CsiIceAudDisableAudioReq_SDKC1Ev, __ZN6AriSdk32ARI_CsiIceAudDisableAudioReq_SDKC2EPKhj, 
                       __ZN6AriSdk32ARI_CsiIceAudDisableAudioReq_SDKC2Ev, __ZN6AriSdk32ARI_CsiIceAudSetDeviceRespCb_SDK4packEPP6AriMsg, 
                       __ZN6AriSdk32ARI_CsiIceAudSetDeviceRespCb_SDK6unpackEv, __ZN6AriSdk32ARI_CsiIceAudSetDeviceRespCb_SDKC1EPKhj, 
                       __ZN6AriSdk32ARI_CsiIceAudSetDeviceRespCb_SDKC1Ev, __ZN6AriSdk32ARI_CsiIceAudSetDeviceRespCb_SDKC2EPKhj, 
                       __ZN6AriSdk32ARI_CsiIceAudSetDeviceRespCb_SDKC2Ev, __ZN6AriSdk32ARI_CsiIceAudToneStartRespCb_SDK4packEPP6AriMsg, 
                       __ZN6AriSdk32ARI_CsiIceAudToneStartRespCb_SDK6unpackEv, __ZN6AriSdk32ARI_CsiIceAudToneStartRespCb_SDKC1EPKhj, 
                       __ZN6AriSdk32ARI_CsiIceAudToneStartRespCb_SDKC1Ev, __ZN6AriSdk32ARI_CsiIceAudToneStartRespCb_SDKC2EPKhj, 
                       __ZN6AriSdk32ARI_CsiIceAudToneStartRespCb_SDKC2Ev, __ZN6AriSdk32ARI_CsiIceBBSleepEnableRspCb_SDK4packEPP6AriMsg, 
                       __ZN6AriSdk32ARI_CsiIceBBSleepEnableRspCb_SDK6unpackEv, __ZN6AriSdk32ARI_CsiIceBBSleepEnableRspCb_SDKC1EPKhj, 
                       __ZN6AriSdk32ARI_CsiIceBBSleepEnableRspCb_SDKC1Ev, __ZN6AriSdk32ARI_CsiIceBBSleepEnableRspCb_SDKC2EPKhj, 
                       __ZN6AriSdk32ARI_CsiIceBBSleepEnableRspCb_SDKC2Ev, __ZN6AriSdk32ARI_CsiIceFinishProvisionReq_SDK4packEPP6AriMsg, 
                       __ZN6AriSdk32ARI_CsiIceFinishProvisionReq_SDK6unpackEv, __ZN6AriSdk32ARI_CsiIceFinishProvisionReq_SDKC1EPKhj, 
                       __ZN6AriSdk32ARI_CsiIceFinishProvisionReq_SDKC1Ev, __ZN6AriSdk32ARI_CsiIceFinishProvisionReq_SDKC2EPKhj, 
                       __ZN6AriSdk32ARI_CsiIceFinishProvisionReq_SDKC2Ev, __ZN6AriSdk32ARI_CsiIceGetAntennaStateReq_SDK4packEPP6AriMsg, 
                       __ZN6AriSdk32ARI_CsiIceGetAntennaStateReq_SDK6unpackEv, __ZN6AriSdk32ARI_CsiIceGetAntennaStateReq_SDKC1EPKhj, 
                       __ZN6AriSdk32ARI_CsiIceGetAntennaStateReq_SDKC1Ev, __ZN6AriSdk32ARI_CsiIceGetAntennaStateReq_SDKC2EPKhj, 
                       __ZN6AriSdk32ARI_CsiIceGetAntennaStateReq_SDKC2Ev, __ZN6AriSdk32ARI_CsiIceStartProvisionResp_SDK4packEPP6AriMsg, 
                       __ZN6AriSdk32ARI_CsiIceStartProvisionResp_SDK6unpackEv, __ZN6AriSdk32ARI_CsiIceStartProvisionResp_SDKC1EPKhj, 
                       __ZN6AriSdk32ARI_CsiIceStartProvisionResp_SDKC1Ev, __ZN6AriSdk32ARI_CsiIceStartProvisionResp_SDKC2EPKhj, 
                       __ZN6AriSdk32ARI_CsiIceStartProvisionResp_SDKC2Ev, __ZN6AriSdk32ARI_CsiIdcGetCellConfigRspCb_SDK4packEPP6AriMsg, 
                       __ZN6AriSdk32ARI_CsiIdcGetCellConfigRspCb_SDK6unpackEv, __ZN6AriSdk32ARI_CsiIdcGetCellConfigRspCb_SDKC1EPKhj, 
                       __ZN6AriSdk32ARI_CsiIdcGetCellConfigRspCb_SDKC1Ev, __ZN6AriSdk32ARI_CsiIdcGetCellConfigRspCb_SDKC2EPKhj, 
                       __ZN6AriSdk32ARI_CsiIdcGetCellConfigRspCb_SDKC2Ev, __ZN6AriSdk32ARI_CsiIdcRTSetScanFreqRspCb_SDK4packEPP6AriMsg, 
                       __ZN6AriSdk32ARI_CsiIdcRTSetScanFreqRspCb_SDK6unpackEv, __ZN6AriSdk32ARI_CsiIdcRTSetScanFreqRspCb_SDKC1EPKhj, 
                       __ZN6AriSdk32ARI_CsiIdcRTSetScanFreqRspCb_SDKC1Ev, __ZN6AriSdk32ARI_CsiIdcRTSetScanFreqRspCb_SDKC2EPKhj, 
                       __ZN6AriSdk32ARI_CsiIdcRTSetScanFreqRspCb_SDKC2Ev, __ZN6AriSdk32ARI_CsiIpcCtrlPathTestSrcReq_SDK4packEPP6AriMsg, 
                       __ZN6AriSdk32ARI_CsiIpcCtrlPathTestSrcReq_SDK6unpackEv, __ZN6AriSdk32ARI_CsiIpcCtrlPathTestSrcReq_SDKC1EPKhj, 
                       __ZN6AriSdk32ARI_CsiIpcCtrlPathTestSrcReq_SDKC1Ev, __ZN6AriSdk32ARI_CsiIpcCtrlPathTestSrcReq_SDKC2EPKhj, 
                       __ZN6AriSdk32ARI_CsiIpcCtrlPathTestSrcReq_SDKC2Ev, __ZN6AriSdk32ARI_CsiTraceProfileInitRspCb_SDK4packEPP6AriMsg, 
                       __ZN6AriSdk32ARI_CsiTraceProfileInitRspCb_SDK6unpackEv, __ZN6AriSdk32ARI_CsiTraceProfileInitRspCb_SDKC1EPKhj, 
                       __ZN6AriSdk32ARI_CsiTraceProfileInitRspCb_SDKC1Ev, __ZN6AriSdk32ARI_CsiTraceProfileInitRspCb_SDKC2EPKhj, 
                       __ZN6AriSdk32ARI_CsiTraceProfileInitRspCb_SDKC2Ev, __ZN6AriSdk32ARI_CsiTraceProfileSelectReq_SDK4packEPP6AriMsg, 
                       __ZN6AriSdk32ARI_CsiTraceProfileSelectReq_SDK6unpackEv, __ZN6AriSdk32ARI_CsiTraceProfileSelectReq_SDKC1EPKhj, 
                       __ZN6AriSdk32ARI_CsiTraceProfileSelectReq_SDKC1Ev, __ZN6AriSdk32ARI_CsiTraceProfileSelectReq_SDKC2EPKhj, 
                       __ZN6AriSdk32ARI_CsiTraceProfileSelectReq_SDKC2Ev, __ZN6AriSdk32ARI_IBICallCsAcceptCallRspCb_SDK4packEPP6AriMsg, 
                       __ZN6AriSdk32ARI_IBICallCsAcceptCallRspCb_SDK6unpackEv, __ZN6AriSdk32ARI_IBICallCsAcceptCallRspCb_SDKC1EPKhj, 
                       __ZN6AriSdk32ARI_IBICallCsAcceptCallRspCb_SDKC1Ev, __ZN6AriSdk32ARI_IBICallCsAcceptCallRspCb_SDKC2EPKhj, 
                       __ZN6AriSdk32ARI_IBICallCsAcceptCallRspCb_SDKC2Ev, __ZN6AriSdk32ARI_IBICallCsAutoAnswerRspCb_SDK4packEPP6AriMsg, 
                       __ZN6AriSdk32ARI_IBICallCsAutoAnswerRspCb_SDK6unpackEv, __ZN6AriSdk32ARI_IBICallCsAutoAnswerRspCb_SDKC1EPKhj, 
                       __ZN6AriSdk32ARI_IBICallCsAutoAnswerRspCb_SDKC1Ev, __ZN6AriSdk32ARI_IBICallCsAutoAnswerRspCb_SDKC2EPKhj, 
                       __ZN6AriSdk32ARI_IBICallCsAutoAnswerRspCb_SDKC2Ev, __ZN6AriSdk32ARI_IBICallCsCallStatusIndCb_SDK4packEPP6AriMsg, 
                       __ZN6AriSdk32ARI_IBICallCsCallStatusIndCb_SDK6unpackEv, __ZN6AriSdk32ARI_IBICallCsCallStatusIndCb_SDKC1EPKhj, 
                       __ZN6AriSdk32ARI_IBICallCsCallStatusIndCb_SDKC1Ev, __ZN6AriSdk32ARI_IBICallCsCallStatusIndCb_SDKC2EPKhj, 
                       __ZN6AriSdk32ARI_IBICallCsCallStatusIndCb_SDKC2Ev, __ZN6AriSdk32ARI_IBICallCsGetEccListRspCb_SDK4packEPP6AriMsg, 
                       __ZN6AriSdk32ARI_IBICallCsGetEccListRspCb_SDK6unpackEv, __ZN6AriSdk32ARI_IBICallCsGetEccListRspCb_SDKC1EPKhj, 
                       __ZN6AriSdk32ARI_IBICallCsGetEccListRspCb_SDKC1Ev, __ZN6AriSdk32ARI_IBICallCsGetEccListRspCb_SDKC2EPKhj, 
                       __ZN6AriSdk32ARI_IBICallCsGetEccListRspCb_SDKC2Ev, __ZN6AriSdk32ARI_IBICallCsRetrieveCallReq_SDK4packEPP6AriMsg, 
                       __ZN6AriSdk32ARI_IBICallCsRetrieveCallReq_SDK6unpackEv, __ZN6AriSdk32ARI_IBICallCsRetrieveCallReq_SDKC1EPKhj, 
                       __ZN6AriSdk32ARI_IBICallCsRetrieveCallReq_SDKC1Ev, __ZN6AriSdk32ARI_IBICallCsRetrieveCallReq_SDKC2EPKhj, 
                       __ZN6AriSdk32ARI_IBICallCsRetrieveCallReq_SDKC2Ev, __ZN6AriSdk32ARI_IBICallPsStopDataCallReq_SDK4packEPP6AriMsg, 
                       __ZN6AriSdk32ARI_IBICallPsStopDataCallReq_SDK6unpackEv, __ZN6AriSdk32ARI_IBICallPsStopDataCallReq_SDKC1EPKhj, 
                       __ZN6AriSdk32ARI_IBICallPsStopDataCallReq_SDKC1Ev, __ZN6AriSdk32ARI_IBICallPsStopDataCallReq_SDKC2EPKhj, 
                       __ZN6AriSdk32ARI_IBICallPsStopDataCallReq_SDKC2Ev, __ZN6AriSdk32ARI_IBIImsMEStartDTMFCodeReq_SDK4packEPP6AriMsg, 
                       __ZN6AriSdk32ARI_IBIImsMEStartDTMFCodeReq_SDK6unpackEv, __ZN6AriSdk32ARI_IBIImsMEStartDTMFCodeReq_SDKC1EPKhj, 
                       __ZN6AriSdk32ARI_IBIImsMEStartDTMFCodeReq_SDKC1Ev, __ZN6AriSdk32ARI_IBIImsMEStartDTMFCodeReq_SDKC2EPKhj, 
                       __ZN6AriSdk32ARI_IBIImsMEStartDTMFCodeReq_SDKC2Ev, __ZN6AriSdk32ARI_IBIMsCpPosMeasurementReq_SDK4packEPP6AriMsg, 
                       __ZN6AriSdk32ARI_IBIMsCpPosMeasurementReq_SDK6unpackEv, __ZN6AriSdk32ARI_IBIMsCpPosMeasurementReq_SDKC1EPKhj, 
                       __ZN6AriSdk32ARI_IBIMsCpPosMeasurementReq_SDKC1Ev, __ZN6AriSdk32ARI_IBIMsCpPosMeasurementReq_SDKC2EPKhj, 
                       __ZN6AriSdk32ARI_IBIMsCpPosMeasurementReq_SDKC2Ev, __ZN6AriSdk32ARI_IBIMsLpGnssAbortCnfAckCb_SDK4packEPP6AriMsg, 
                       __ZN6AriSdk32ARI_IBIMsLpGnssAbortCnfAckCb_SDK6unpackEv, __ZN6AriSdk32ARI_IBIMsLpGnssAbortCnfAckCb_SDKC1EPKhj, 
                       __ZN6AriSdk32ARI_IBIMsLpGnssAbortCnfAckCb_SDKC1Ev, __ZN6AriSdk32ARI_IBIMsLpGnssAbortCnfAckCb_SDKC2EPKhj, 
                       __ZN6AriSdk32ARI_IBIMsLpGnssAbortCnfAckCb_SDKC2Ev, __ZN6AriSdk32ARI_IBINetGetCurrCellInfoReq_SDK4packEPP6AriMsg, 
                       __ZN6AriSdk32ARI_IBINetGetCurrCellInfoReq_SDK6unpackEv, __ZN6AriSdk32ARI_IBINetGetCurrCellInfoReq_SDKC1EPKhj, 
                       __ZN6AriSdk32ARI_IBINetGetCurrCellInfoReq_SDKC1Ev, __ZN6AriSdk32ARI_IBINetGetCurrCellInfoReq_SDKC2EPKhj, 
                       __ZN6AriSdk32ARI_IBINetGetCurrCellInfoReq_SDKC2Ev, __ZN6AriSdk32ARI_IBINetIceSingleShotFdReq_SDK4packEPP6AriMsg, 
                       __ZN6AriSdk32ARI_IBINetIceSingleShotFdReq_SDK6unpackEv, __ZN6AriSdk32ARI_IBINetIceSingleShotFdReq_SDKC1EPKhj, 
                       __ZN6AriSdk32ARI_IBINetIceSingleShotFdReq_SDKC1Ev, __ZN6AriSdk32ARI_IBINetIceSingleShotFdReq_SDKC2EPKhj, 
                       __ZN6AriSdk32ARI_IBINetIceSingleShotFdReq_SDKC2Ev, __ZN6AriSdk32ARI_IBINetRatModeStatusIndCb_SDK4packEPP6AriMsg, 
                       __ZN6AriSdk32ARI_IBINetRatModeStatusIndCb_SDK6unpackEv, __ZN6AriSdk32ARI_IBINetRatModeStatusIndCb_SDKC1EPKhj, 
                       __ZN6AriSdk32ARI_IBINetRatModeStatusIndCb_SDKC1Ev, __ZN6AriSdk32ARI_IBINetRatModeStatusIndCb_SDKC2EPKhj, 
                       __ZN6AriSdk32ARI_IBINetRatModeStatusIndCb_SDKC2Ev, __ZN6AriSdk32ARI_IBINetRatModeStatusRspCb_SDK4packEPP6AriMsg, 
                       __ZN6AriSdk32ARI_IBINetRatModeStatusRspCb_SDK6unpackEv, __ZN6AriSdk32ARI_IBINetRatModeStatusRspCb_SDKC1EPKhj, 
                       __ZN6AriSdk32ARI_IBINetRatModeStatusRspCb_SDKC1Ev, __ZN6AriSdk32ARI_IBINetRatModeStatusRspCb_SDKC2EPKhj, 
                       __ZN6AriSdk32ARI_IBINetRatModeStatusRspCb_SDKC2Ev, __ZN6AriSdk32ARI_IBINetSwapRatSettingsReq_SDK4packEPP6AriMsg, 
                       __ZN6AriSdk32ARI_IBINetSwapRatSettingsReq_SDK6unpackEv, __ZN6AriSdk32ARI_IBINetSwapRatSettingsReq_SDKC1EPKhj, 
                       __ZN6AriSdk32ARI_IBINetSwapRatSettingsReq_SDKC1Ev, __ZN6AriSdk32ARI_IBINetSwapRatSettingsReq_SDKC2EPKhj, 
                       __ZN6AriSdk32ARI_IBINetSwapRatSettingsReq_SDKC2Ev, __ZN6AriSdk32ARI_IBIP2PProximityStatusReq_SDK4packEPP6AriMsg, 
                       __ZN6AriSdk32ARI_IBIP2PProximityStatusReq_SDK6unpackEv, __ZN6AriSdk32ARI_IBIP2PProximityStatusReq_SDKC1EPKhj, 
                       __ZN6AriSdk32ARI_IBIP2PProximityStatusReq_SDKC1Ev, __ZN6AriSdk32ARI_IBIP2PProximityStatusReq_SDKC2EPKhj, 
                       __ZN6AriSdk32ARI_IBIP2PProximityStatusReq_SDKC2Ev, __ZN6AriSdk32ARI_IBISimAccessApduCmdRspCb_SDK4packEPP6AriMsg, 
                       __ZN6AriSdk32ARI_IBISimAccessApduCmdRspCb_SDK6unpackEv, __ZN6AriSdk32ARI_IBISimAccessApduCmdRspCb_SDKC1EPKhj, 
                       __ZN6AriSdk32ARI_IBISimAccessApduCmdRspCb_SDKC1Ev, __ZN6AriSdk32ARI_IBISimAccessApduCmdRspCb_SDKC2EPKhj, 
                       __ZN6AriSdk32ARI_IBISimAccessApduCmdRspCb_SDKC2Ev, __ZN6AriSdk32ARI_IBISimGetEfMwisParamsReq_SDK4packEPP6AriMsg, 
                       __ZN6AriSdk32ARI_IBISimGetEfMwisParamsReq_SDK6unpackEv, __ZN6AriSdk32ARI_IBISimGetEfMwisParamsReq_SDKC1EPKhj, 
                       __ZN6AriSdk32ARI_IBISimGetEfMwisParamsReq_SDKC1Ev, __ZN6AriSdk32ARI_IBISimGetEfMwisParamsReq_SDKC2EPKhj, 
                       __ZN6AriSdk32ARI_IBISimGetEfMwisParamsReq_SDKC2Ev, __ZN6AriSdk32ARI_IBISimPbGetLocationRspCb_SDK4packEPP6AriMsg, 
                       __ZN6AriSdk32ARI_IBISimPbGetLocationRspCb_SDK6unpackEv, __ZN6AriSdk32ARI_IBISimPbGetLocationRspCb_SDKC1EPKhj, 
                       __ZN6AriSdk32ARI_IBISimPbGetLocationRspCb_SDKC1Ev, __ZN6AriSdk32ARI_IBISimPbGetLocationRspCb_SDKC2EPKhj, 
                       __ZN6AriSdk32ARI_IBISimPbGetLocationRspCb_SDKC2Ev, __ZN6AriSdk32ARI_IBISimPbLocationIndCb_V1_SDK4packEPP6AriMsg, 
                       __ZN6AriSdk32ARI_IBISimPbLocationIndCb_V1_SDK6unpackEv, __ZN6AriSdk32ARI_IBISimPbLocationIndCb_V1_SDKC1EPKhj, 
                       __ZN6AriSdk32ARI_IBISimPbLocationIndCb_V1_SDKC1Ev, __ZN6AriSdk32ARI_IBISimPbLocationIndCb_V1_SDKC2EPKhj, 
                       __ZN6AriSdk32ARI_IBISimPbLocationIndCb_V1_SDKC2Ev, __ZN6AriSdk32ARI_IBISimPbUsimPbReadyIndCb_SDK4packEPP6AriMsg, 
                       __ZN6AriSdk32ARI_IBISimPbUsimPbReadyIndCb_SDK6unpackEv, __ZN6AriSdk32ARI_IBISimPbUsimPbReadyIndCb_SDKC1EPKhj, 
                       __ZN6AriSdk32ARI_IBISimPbUsimPbReadyIndCb_SDKC1Ev, __ZN6AriSdk32ARI_IBISimPbUsimPbReadyIndCb_SDKC2EPKhj, 
                       __ZN6AriSdk32ARI_IBISimPbUsimPbReadyIndCb_SDKC2Ev, __ZN6AriSdk32ARI_IBISimSetEfMwisParamsReq_SDK4packEPP6AriMsg, 
                       __ZN6AriSdk32ARI_IBISimSetEfMwisParamsReq_SDK6unpackEv, __ZN6AriSdk32ARI_IBISimSetEfMwisParamsReq_SDKC1EPKhj, 
                       __ZN6AriSdk32ARI_IBISimSetEfMwisParamsReq_SDKC1Ev, __ZN6AriSdk32ARI_IBISimSetEfMwisParamsReq_SDKC2EPKhj, 
                       __ZN6AriSdk32ARI_IBISimSetEfMwisParamsReq_SDKC2Ev, __ZN6AriSdk32ARI_IBISimTkTerminalResponse_SDK4packEPP6AriMsg, 
                       __ZN6AriSdk32ARI_IBISimTkTerminalResponse_SDK6unpackEv, __ZN6AriSdk32ARI_IBISimTkTerminalResponse_SDKC1EPKhj, 
                       __ZN6AriSdk32ARI_IBISimTkTerminalResponse_SDKC1Ev, __ZN6AriSdk32ARI_IBISimTkTerminalResponse_SDKC2EPKhj, 
                       __ZN6AriSdk32ARI_IBISimTkTerminalResponse_SDKC2Ev, __ZN6AriSdk32ARI_IBISmsGetMsgWaitIndRspCb_SDK4packEPP6AriMsg, 
                       __ZN6AriSdk32ARI_IBISmsGetMsgWaitIndRspCb_SDK6unpackEv, __ZN6AriSdk32ARI_IBISmsGetMsgWaitIndRspCb_SDKC1EPKhj, 
                       __ZN6AriSdk32ARI_IBISmsGetMsgWaitIndRspCb_SDKC1Ev, __ZN6AriSdk32ARI_IBISmsGetMsgWaitIndRspCb_SDKC2EPKhj, 
                       __ZN6AriSdk32ARI_IBISmsGetMsgWaitIndRspCb_SDKC2Ev, __ZN6AriSdk32ARI_IBISmsSetMsgWaitIndRspCb_SDK4packEPP6AriMsg, 
                       __ZN6AriSdk32ARI_IBISmsSetMsgWaitIndRspCb_SDK6unpackEv, __ZN6AriSdk32ARI_IBISmsSetMsgWaitIndRspCb_SDKC1EPKhj, 
                       __ZN6AriSdk32ARI_IBISmsSetMsgWaitIndRspCb_SDKC1Ev, __ZN6AriSdk32ARI_IBISmsSetMsgWaitIndRspCb_SDKC2EPKhj, 
                       __ZN6AriSdk32ARI_IBISmsSetMsgWaitIndRspCb_SDKC2Ev, __ZN6AriSdk32ARI_IBISsCallBarringRspCb_V1_SDK4packEPP6AriMsg, 
                       __ZN6AriSdk32ARI_IBISsCallBarringRspCb_V1_SDK6unpackEv, __ZN6AriSdk32ARI_IBISsCallBarringRspCb_V1_SDKC1EPKhj, 
                       __ZN6AriSdk32ARI_IBISsCallBarringRspCb_V1_SDKC1Ev, __ZN6AriSdk32ARI_IBISsCallBarringRspCb_V1_SDKC2EPKhj, 
                       __ZN6AriSdk32ARI_IBISsCallBarringRspCb_V1_SDKC2Ev, __ZN6AriSdk32ARI_IBISsIdentificationRspCb_SDK4packEPP6AriMsg, 
                       __ZN6AriSdk32ARI_IBISsIdentificationRspCb_SDK6unpackEv, __ZN6AriSdk32ARI_IBISsIdentificationRspCb_SDKC1EPKhj, 
                       __ZN6AriSdk32ARI_IBISsIdentificationRspCb_SDKC1Ev, __ZN6AriSdk32ARI_IBISsIdentificationRspCb_SDKC2EPKhj, 
                       __ZN6AriSdk32ARI_IBISsIdentificationRspCb_SDKC2Ev, __ZN6AriSdk32ARI_IBISsUssdSessionEndIndCb_SDK4packEPP6AriMsg, 
                       __ZN6AriSdk32ARI_IBISsUssdSessionEndIndCb_SDK6unpackEv, __ZN6AriSdk32ARI_IBISsUssdSessionEndIndCb_SDKC1EPKhj, 
                       __ZN6AriSdk32ARI_IBISsUssdSessionEndIndCb_SDKC1Ev, __ZN6AriSdk32ARI_IBISsUssdSessionEndIndCb_SDKC2EPKhj, 
                       __ZN6AriSdk32ARI_IBISsUssdSessionEndIndCb_SDKC2Ev, __ZN6AriSdk33ARI_CsiAwdsMetricSubSwitchReq_SDK4packEPP6AriMsg, 
                       __ZN6AriSdk33ARI_CsiAwdsMetricSubSwitchReq_SDK6unpackEv, __ZN6AriSdk33ARI_CsiAwdsMetricSubSwitchReq_SDKC1EPKhj, 
                       __ZN6AriSdk33ARI_CsiAwdsMetricSubSwitchReq_SDKC1Ev, __ZN6AriSdk33ARI_CsiAwdsMetricSubSwitchReq_SDKC2EPKhj, 
                       __ZN6AriSdk33ARI_CsiAwdsMetricSubSwitchReq_SDKC2Ev, __ZN6AriSdk33ARI_CsiBspNvmGroupEnumListReq_SDK4packEPP6AriMsg, 
                       __ZN6AriSdk33ARI_CsiBspNvmGroupEnumListReq_SDK6unpackEv, __ZN6AriSdk33ARI_CsiBspNvmGroupEnumListReq_SDKC1EPKhj, 
                       __ZN6AriSdk33ARI_CsiBspNvmGroupEnumListReq_SDKC1Ev, __ZN6AriSdk33ARI_CsiBspNvmGroupEnumListReq_SDKC2EPKhj, 
                       __ZN6AriSdk33ARI_CsiBspNvmGroupEnumListReq_SDKC2Ev, __ZN6AriSdk33ARI_CsiGetCurrentBootStateReq_SDK4packEPP6AriMsg, 
                       __ZN6AriSdk33ARI_CsiGetCurrentBootStateReq_SDK6unpackEv, __ZN6AriSdk33ARI_CsiGetCurrentBootStateReq_SDKC1EPKhj, 
                       __ZN6AriSdk33ARI_CsiGetCurrentBootStateReq_SDKC1Ev, __ZN6AriSdk33ARI_CsiGetCurrentBootStateReq_SDKC2EPKhj, 
                       __ZN6AriSdk33ARI_CsiGetCurrentBootStateReq_SDKC2Ev, __ZN6AriSdk33ARI_CsiIceAccessoryStateRspCb_SDK4packEPP6AriMsg, 
                       __ZN6AriSdk33ARI_CsiIceAccessoryStateRspCb_SDK6unpackEv, __ZN6AriSdk33ARI_CsiIceAccessoryStateRspCb_SDKC1EPKhj, 
                       __ZN6AriSdk33ARI_CsiIceAccessoryStateRspCb_SDKC1Ev, __ZN6AriSdk33ARI_CsiIceAccessoryStateRspCb_SDKC2EPKhj, 
                       __ZN6AriSdk33ARI_CsiIceAccessoryStateRspCb_SDKC2Ev, __ZN6AriSdk33ARI_CsiIceAudDeviceInfoRespCb_SDK4packEPP6AriMsg, 
                       __ZN6AriSdk33ARI_CsiIceAudDeviceInfoRespCb_SDK6unpackEv, __ZN6AriSdk33ARI_CsiIceAudDeviceInfoRespCb_SDKC1EPKhj, 
                       __ZN6AriSdk33ARI_CsiIceAudDeviceInfoRespCb_SDKC1Ev, __ZN6AriSdk33ARI_CsiIceAudDeviceInfoRespCb_SDKC2EPKhj, 
                       __ZN6AriSdk33ARI_CsiIceAudDeviceInfoRespCb_SDKC2Ev, __ZN6AriSdk33ARI_CsiIceAudVocoderInfoIndCb_SDK4packEPP6AriMsg, 
                       __ZN6AriSdk33ARI_CsiIceAudVocoderInfoIndCb_SDK6unpackEv, __ZN6AriSdk33ARI_CsiIceAudVocoderInfoIndCb_SDKC1EPKhj, 
                       __ZN6AriSdk33ARI_CsiIceAudVocoderInfoIndCb_SDKC1Ev, __ZN6AriSdk33ARI_CsiIceAudVocoderInfoIndCb_SDKC2EPKhj, 
                       __ZN6AriSdk33ARI_CsiIceAudVocoderInfoIndCb_SDKC2Ev, __ZN6AriSdk33ARI_CsiIceFinishProvisionResp_SDK4packEPP6AriMsg, 
                       __ZN6AriSdk33ARI_CsiIceFinishProvisionResp_SDK6unpackEv, __ZN6AriSdk33ARI_CsiIceFinishProvisionResp_SDKC1EPKhj, 
                       __ZN6AriSdk33ARI_CsiIceFinishProvisionResp_SDKC1Ev, __ZN6AriSdk33ARI_CsiIceFinishProvisionResp_SDKC2EPKhj, 
                       __ZN6AriSdk33ARI_CsiIceFinishProvisionResp_SDKC2Ev, __ZN6AriSdk33ARI_CsiIceGetArtdSettingRspCb_SDK4packEPP6AriMsg, 
                       __ZN6AriSdk33ARI_CsiIceGetArtdSettingRspCb_SDK6unpackEv, __ZN6AriSdk33ARI_CsiIceGetArtdSettingRspCb_SDKC1EPKhj, 
                       __ZN6AriSdk33ARI_CsiIceGetArtdSettingRspCb_SDKC1Ev, __ZN6AriSdk33ARI_CsiIceGetArtdSettingRspCb_SDKC2EPKhj, 
                       __ZN6AriSdk33ARI_CsiIceGetArtdSettingRspCb_SDKC2Ev, __ZN6AriSdk33ARI_CsiIceGetRxDiversityRspCb_SDK4packEPP6AriMsg, 
                       __ZN6AriSdk33ARI_CsiIceGetRxDiversityRspCb_SDK6unpackEv, __ZN6AriSdk33ARI_CsiIceGetRxDiversityRspCb_SDKC1EPKhj, 
                       __ZN6AriSdk33ARI_CsiIceGetRxDiversityRspCb_SDKC1Ev, __ZN6AriSdk33ARI_CsiIceGetRxDiversityRspCb_SDKC2EPKhj, 
                       __ZN6AriSdk33ARI_CsiIceGetRxDiversityRspCb_SDKC2Ev, __ZN6AriSdk33ARI_CsiIceTemperatureCloseReq_SDK4packEPP6AriMsg, 
                       __ZN6AriSdk33ARI_CsiIceTemperatureCloseReq_SDK6unpackEv, __ZN6AriSdk33ARI_CsiIceTemperatureCloseReq_SDKC1EPKhj, 
                       __ZN6AriSdk33ARI_CsiIceTemperatureCloseReq_SDKC1Ev, __ZN6AriSdk33ARI_CsiIceTemperatureCloseReq_SDKC2EPKhj, 
                       __ZN6AriSdk33ARI_CsiIceTemperatureCloseReq_SDKC2Ev, __ZN6AriSdk33ARI_CsiIpcCtrlPathTestInitReq_SDK4packEPP6AriMsg, 
                       __ZN6AriSdk33ARI_CsiIpcCtrlPathTestInitReq_SDK6unpackEv, __ZN6AriSdk33ARI_CsiIpcCtrlPathTestInitReq_SDKC1EPKhj, 
                       __ZN6AriSdk33ARI_CsiIpcCtrlPathTestInitReq_SDKC1Ev, __ZN6AriSdk33ARI_CsiIpcCtrlPathTestInitReq_SDKC2EPKhj, 
                       __ZN6AriSdk33ARI_CsiIpcCtrlPathTestInitReq_SDKC2Ev, __ZN6AriSdk33ARI_CsiIpcGetLogBufferListReq_SDK4packEPP6AriMsg, 
                       __ZN6AriSdk33ARI_CsiIpcGetLogBufferListReq_SDK6unpackEv, __ZN6AriSdk33ARI_CsiIpcGetLogBufferListReq_SDKC1EPKhj, 
                       __ZN6AriSdk33ARI_CsiIpcGetLogBufferListReq_SDKC1Ev, __ZN6AriSdk33ARI_CsiIpcGetLogBufferListReq_SDKC2EPKhj, 
                       __ZN6AriSdk33ARI_CsiIpcGetLogBufferListReq_SDKC2Ev, __ZN6AriSdk33ARI_CsiIpcGetLogBufferListRsp_SDK4packEPP6AriMsg, 
                       __ZN6AriSdk33ARI_CsiIpcGetLogBufferListRsp_SDK6unpackEv, __ZN6AriSdk33ARI_CsiIpcGetLogBufferListRsp_SDKC1EPKhj, 
                       __ZN6AriSdk33ARI_CsiIpcGetLogBufferListRsp_SDKC1Ev, __ZN6AriSdk33ARI_CsiIpcGetLogBufferListRsp_SDKC2EPKhj, 
                       __ZN6AriSdk33ARI_CsiIpcGetLogBufferListRsp_SDKC2Ev, __ZN6AriSdk33ARI_CsiMsSimCardPresenceRspCb_SDK4packEPP6AriMsg, 
                       __ZN6AriSdk33ARI_CsiMsSimCardPresenceRspCb_SDK6unpackEv, __ZN6AriSdk33ARI_CsiMsSimCardPresenceRspCb_SDKC1EPKhj, 
                       __ZN6AriSdk33ARI_CsiMsSimCardPresenceRspCb_SDKC1Ev, __ZN6AriSdk33ARI_CsiMsSimCardPresenceRspCb_SDKC2EPKhj, 
                       __ZN6AriSdk33ARI_CsiMsSimCardPresenceRspCb_SDKC2Ev, __ZN6AriSdk33ARI_CsiSahGetCrashReportRspCb_SDK4packEPP6AriMsg, 
                       __ZN6AriSdk33ARI_CsiSahGetCrashReportRspCb_SDK6unpackEv, __ZN6AriSdk33ARI_CsiSahGetCrashReportRspCb_SDKC1EPKhj, 
                       __ZN6AriSdk33ARI_CsiSahGetCrashReportRspCb_SDKC1Ev, __ZN6AriSdk33ARI_CsiSahGetCrashReportRspCb_SDKC2EPKhj, 
                       __ZN6AriSdk33ARI_CsiSahGetCrashReportRspCb_SDKC2Ev, __ZN6AriSdk33ARI_CsiSecGetFusingStateRspCb_SDK4packEPP6AriMsg, 
                       __ZN6AriSdk33ARI_CsiSecGetFusingStateRspCb_SDK6unpackEv, __ZN6AriSdk33ARI_CsiSecGetFusingStateRspCb_SDKC1EPKhj, 
                       __ZN6AriSdk33ARI_CsiSecGetFusingStateRspCb_SDKC1Ev, __ZN6AriSdk33ARI_CsiSecGetFusingStateRspCb_SDKC2EPKhj, 
                       __ZN6AriSdk33ARI_CsiSecGetFusingStateRspCb_SDKC2Ev, __ZN6AriSdk33ARI_IBICallCsRedialSetupIndCb_SDK4packEPP6AriMsg, 
                       __ZN6AriSdk33ARI_IBICallCsRedialSetupIndCb_SDK6unpackEv, __ZN6AriSdk33ARI_IBICallCsRedialSetupIndCb_SDKC1EPKhj, 
                       __ZN6AriSdk33ARI_IBICallCsRedialSetupIndCb_SDKC1Ev, __ZN6AriSdk33ARI_IBICallCsRedialSetupIndCb_SDKC2EPKhj, 
                       __ZN6AriSdk33ARI_IBICallCsRedialSetupIndCb_SDKC2Ev, __ZN6AriSdk33ARI_IBICallCsReleaseCallRspCb_SDK4packEPP6AriMsg, 
                       __ZN6AriSdk33ARI_IBICallCsReleaseCallRspCb_SDK6unpackEv, __ZN6AriSdk33ARI_IBICallCsReleaseCallRspCb_SDKC1EPKhj, 
                       __ZN6AriSdk33ARI_IBICallCsReleaseCallRspCb_SDKC1Ev, __ZN6AriSdk33ARI_IBICallCsReleaseCallRspCb_SDKC2EPKhj, 
                       __ZN6AriSdk33ARI_IBICallCsReleaseCallRspCb_SDKC2Ev, __ZN6AriSdk33ARI_IBICallCsStopDtmfExtRspCb_SDK4packEPP6AriMsg, 
                       __ZN6AriSdk33ARI_IBICallCsStopDtmfExtRspCb_SDK6unpackEv, __ZN6AriSdk33ARI_IBICallCsStopDtmfExtRspCb_SDKC1EPKhj, 
                       __ZN6AriSdk33ARI_IBICallCsStopDtmfExtRspCb_SDKC1Ev, __ZN6AriSdk33ARI_IBICallCsStopDtmfExtRspCb_SDKC2EPKhj, 
                       __ZN6AriSdk33ARI_IBICallCsStopDtmfExtRspCb_SDKC2Ev, __ZN6AriSdk33ARI_IBICallCsTransferCallsReq_SDK4packEPP6AriMsg, 
                       __ZN6AriSdk33ARI_IBICallCsTransferCallsReq_SDK6unpackEv, __ZN6AriSdk33ARI_IBICallCsTransferCallsReq_SDKC1EPKhj, 
                       __ZN6AriSdk33ARI_IBICallCsTransferCallsReq_SDKC1Ev, __ZN6AriSdk33ARI_IBICallCsTransferCallsReq_SDKC2EPKhj, 
                       __ZN6AriSdk33ARI_IBICallCsTransferCallsReq_SDKC2Ev, __ZN6AriSdk33ARI_IBICallPsDataPathSetupReq_SDK4packEPP6AriMsg, 
                       __ZN6AriSdk33ARI_IBICallPsDataPathSetupReq_SDK6unpackEv, __ZN6AriSdk33ARI_IBICallPsDataPathSetupReq_SDKC1EPKhj, 
                       __ZN6AriSdk33ARI_IBICallPsDataPathSetupReq_SDKC1Ev, __ZN6AriSdk33ARI_IBICallPsDataPathSetupReq_SDKC2EPKhj, 
                       __ZN6AriSdk33ARI_IBICallPsDataPathSetupReq_SDKC2Ev, __ZN6AriSdk33ARI_IBICallPsFDBackOffTimeInd_SDK4packEPP6AriMsg, 
                       __ZN6AriSdk33ARI_IBICallPsFDBackOffTimeInd_SDK6unpackEv, __ZN6AriSdk33ARI_IBICallPsFDBackOffTimeInd_SDKC1EPKhj, 
                       __ZN6AriSdk33ARI_IBICallPsFDBackOffTimeInd_SDKC1Ev, __ZN6AriSdk33ARI_IBICallPsFDBackOffTimeInd_SDKC2EPKhj, 
                       __ZN6AriSdk33ARI_IBICallPsFDBackOffTimeInd_SDKC2Ev, __ZN6AriSdk33ARI_IBICallPsImsTestModeIndCb_SDK4packEPP6AriMsg, 
                       __ZN6AriSdk33ARI_IBICallPsImsTestModeIndCb_SDK6unpackEv, __ZN6AriSdk33ARI_IBICallPsImsTestModeIndCb_SDKC1EPKhj, 
                       __ZN6AriSdk33ARI_IBICallPsImsTestModeIndCb_SDKC1Ev, __ZN6AriSdk33ARI_IBICallPsImsTestModeIndCb_SDKC2EPKhj, 
                       __ZN6AriSdk33ARI_IBICallPsImsTestModeIndCb_SDKC2Ev, __ZN6AriSdk33ARI_IBICallPsImsTestModeRspCb_SDK4packEPP6AriMsg, 
                       __ZN6AriSdk33ARI_IBICallPsImsTestModeRspCb_SDK6unpackEv, __ZN6AriSdk33ARI_IBICallPsImsTestModeRspCb_SDKC1EPKhj, 
                       __ZN6AriSdk33ARI_IBICallPsImsTestModeRspCb_SDKC1Ev, __ZN6AriSdk33ARI_IBICallPsImsTestModeRspCb_SDKC2EPKhj, 
                       __ZN6AriSdk33ARI_IBICallPsImsTestModeRspCb_SDKC2Ev, __ZN6AriSdk33ARI_IBICallPsLqmRegisterRspCb_SDK4packEPP6AriMsg, 
                       __ZN6AriSdk33ARI_IBICallPsLqmRegisterRspCb_SDK6unpackEv, __ZN6AriSdk33ARI_IBICallPsLqmRegisterRspCb_SDKC1EPKhj, 
                       __ZN6AriSdk33ARI_IBICallPsLqmRegisterRspCb_SDKC1Ev, __ZN6AriSdk33ARI_IBICallPsLqmRegisterRspCb_SDKC2EPKhj, 
                       __ZN6AriSdk33ARI_IBICallPsLqmRegisterRspCb_SDKC2Ev, __ZN6AriSdk33ARI_IBICallPsStartDataCallReq_SDK4packEPP6AriMsg, 
                       __ZN6AriSdk33ARI_IBICallPsStartDataCallReq_SDK6unpackEv, __ZN6AriSdk33ARI_IBICallPsStartDataCallReq_SDKC1EPKhj, 
                       __ZN6AriSdk33ARI_IBICallPsStartDataCallReq_SDKC1Ev, __ZN6AriSdk33ARI_IBICallPsStartDataCallReq_SDKC2EPKhj, 
                       __ZN6AriSdk33ARI_IBICallPsStartDataCallReq_SDKC2Ev, __ZN6AriSdk33ARI_IBICallPsTrafficClassInfo_SDK4packEPP6AriMsg, 
                       __ZN6AriSdk33ARI_IBICallPsTrafficClassInfo_SDK6unpackEv, __ZN6AriSdk33ARI_IBICallPsTrafficClassInfo_SDKC1EPKhj, 
                       __ZN6AriSdk33ARI_IBICallPsTrafficClassInfo_SDKC1Ev, __ZN6AriSdk33ARI_IBICallPsTrafficClassInfo_SDKC2EPKhj, 
                       __ZN6AriSdk33ARI_IBICallPsTrafficClassInfo_SDKC2Ev, __ZN6AriSdk33ARI_IBICallPsVoiceLQMStateInd_SDK4packEPP6AriMsg, 
                       __ZN6AriSdk33ARI_IBICallPsVoiceLQMStateInd_SDK6unpackEv, __ZN6AriSdk33ARI_IBICallPsVoiceLQMStateInd_SDKC1EPKhj, 
                       __ZN6AriSdk33ARI_IBICallPsVoiceLQMStateInd_SDKC1Ev, __ZN6AriSdk33ARI_IBICallPsVoiceLQMStateInd_SDKC2EPKhj, 
                       __ZN6AriSdk33ARI_IBICallPsVoiceLQMStateInd_SDKC2Ev, __ZN6AriSdk33ARI_IBIImsMEStopDTMFCodeRspCb_SDK4packEPP6AriMsg, 
                       __ZN6AriSdk33ARI_IBIImsMEStopDTMFCodeRspCb_SDK6unpackEv, __ZN6AriSdk33ARI_IBIImsMEStopDTMFCodeRspCb_SDKC1EPKhj, 
                       __ZN6AriSdk33ARI_IBIImsMEStopDTMFCodeRspCb_SDKC1Ev, __ZN6AriSdk33ARI_IBIImsMEStopDTMFCodeRspCb_SDKC2EPKhj, 
                       __ZN6AriSdk33ARI_IBIImsMEStopDTMFCodeRspCb_SDKC2Ev, __ZN6AriSdk33ARI_IBIMsSsLcsMtlrRejectIndCb_SDK4packEPP6AriMsg, 
                       __ZN6AriSdk33ARI_IBIMsSsLcsMtlrRejectIndCb_SDK6unpackEv, __ZN6AriSdk33ARI_IBIMsSsLcsMtlrRejectIndCb_SDKC1EPKhj, 
                       __ZN6AriSdk33ARI_IBIMsSsLcsMtlrRejectIndCb_SDKC1Ev, __ZN6AriSdk33ARI_IBIMsSsLcsMtlrRejectIndCb_SDKC2EPKhj, 
                       __ZN6AriSdk33ARI_IBIMsSsLcsMtlrRejectIndCb_SDKC2Ev, __ZN6AriSdk33ARI_IBINetConnectionInfoIndCb_SDK4packEPP6AriMsg, 
                       __ZN6AriSdk33ARI_IBINetConnectionInfoIndCb_SDK6unpackEv, __ZN6AriSdk33ARI_IBINetConnectionInfoIndCb_SDKC1EPKhj, 
                       __ZN6AriSdk33ARI_IBINetConnectionInfoIndCb_SDKC1Ev, __ZN6AriSdk33ARI_IBINetConnectionInfoIndCb_SDKC2EPKhj, 
                       __ZN6AriSdk33ARI_IBINetConnectionInfoIndCb_SDKC2Ev, __ZN6AriSdk33ARI_IBINetEmergencyCellEndReq_SDK4packEPP6AriMsg, 
                       __ZN6AriSdk33ARI_IBINetEmergencyCellEndReq_SDK6unpackEv, __ZN6AriSdk33ARI_IBINetEmergencyCellEndReq_SDKC1EPKhj, 
                       __ZN6AriSdk33ARI_IBINetEmergencyCellEndReq_SDKC1Ev, __ZN6AriSdk33ARI_IBINetEmergencyCellEndReq_SDKC2EPKhj, 
                       __ZN6AriSdk33ARI_IBINetEmergencyCellEndReq_SDKC2Ev, __ZN6AriSdk33ARI_IBINetGetAcBarringInfoReq_SDK4packEPP6AriMsg, 
                       __ZN6AriSdk33ARI_IBINetGetAcBarringInfoReq_SDK6unpackEv, __ZN6AriSdk33ARI_IBINetGetAcBarringInfoReq_SDKC1EPKhj, 
                       __ZN6AriSdk33ARI_IBINetGetAcBarringInfoReq_SDKC1Ev, __ZN6AriSdk33ARI_IBINetGetAcBarringInfoReq_SDKC2EPKhj, 
                       __ZN6AriSdk33ARI_IBINetGetAcBarringInfoReq_SDKC2Ev, __ZN6AriSdk33ARI_IBINetGetEmergencyCellReq_SDK4packEPP6AriMsg, 
                       __ZN6AriSdk33ARI_IBINetGetEmergencyCellReq_SDK6unpackEv, __ZN6AriSdk33ARI_IBINetGetEmergencyCellReq_SDKC1EPKhj, 
                       __ZN6AriSdk33ARI_IBINetGetEmergencyCellReq_SDKC1Ev, __ZN6AriSdk33ARI_IBINetGetEmergencyCellReq_SDKC2EPKhj, 
                       __ZN6AriSdk33ARI_IBINetGetEmergencyCellReq_SDKC2Ev, __ZN6AriSdk33ARI_IBISimAccessGetSimDataReq_SDK4packEPP6AriMsg, 
                       __ZN6AriSdk33ARI_IBISimAccessGetSimDataReq_SDK6unpackEv, __ZN6AriSdk33ARI_IBISimAccessGetSimDataReq_SDKC1EPKhj, 
                       __ZN6AriSdk33ARI_IBISimAccessGetSimDataReq_SDKC1Ev, __ZN6AriSdk33ARI_IBISimAccessGetSimDataReq_SDKC2EPKhj, 
                       __ZN6AriSdk33ARI_IBISimAccessGetSimDataReq_SDKC2Ev, __ZN6AriSdk33ARI_IBISimAccessReadBinaryReq_SDK4packEPP6AriMsg, 
                       __ZN6AriSdk33ARI_IBISimAccessReadBinaryReq_SDK6unpackEv, __ZN6AriSdk33ARI_IBISimAccessReadBinaryReq_SDKC1EPKhj, 
                       __ZN6AriSdk33ARI_IBISimAccessReadBinaryReq_SDKC1Ev, __ZN6AriSdk33ARI_IBISimAccessReadBinaryReq_SDKC2EPKhj, 
                       __ZN6AriSdk33ARI_IBISimAccessReadBinaryReq_SDKC2Ev, __ZN6AriSdk33ARI_IBISimAccessReadRecordReq_SDK4packEPP6AriMsg, 
                       __ZN6AriSdk33ARI_IBISimAccessReadRecordReq_SDK6unpackEv, __ZN6AriSdk33ARI_IBISimAccessReadRecordReq_SDKC1EPKhj, 
                       __ZN6AriSdk33ARI_IBISimAccessReadRecordReq_SDKC1Ev, __ZN6AriSdk33ARI_IBISimAccessReadRecordReq_SDKC2EPKhj, 
                       __ZN6AriSdk33ARI_IBISimAccessReadRecordReq_SDKC2Ev, __ZN6AriSdk33ARI_IBISimFileReadBinaryRspCb_SDK4packEPP6AriMsg, 
                       __ZN6AriSdk33ARI_IBISimFileReadBinaryRspCb_SDK6unpackEv, __ZN6AriSdk33ARI_IBISimFileReadBinaryRspCb_SDKC1EPKhj, 
                       __ZN6AriSdk33ARI_IBISimFileReadBinaryRspCb_SDKC1Ev, __ZN6AriSdk33ARI_IBISimFileReadBinaryRspCb_SDKC2EPKhj, 
                       __ZN6AriSdk33ARI_IBISimFileReadBinaryRspCb_SDKC2Ev, __ZN6AriSdk33ARI_IBISimFileUpdateBinaryReq_SDK4packEPP6AriMsg, 
                       __ZN6AriSdk33ARI_IBISimFileUpdateBinaryReq_SDK6unpackEv, __ZN6AriSdk33ARI_IBISimFileUpdateBinaryReq_SDKC1EPKhj, 
                       __ZN6AriSdk33ARI_IBISimFileUpdateBinaryReq_SDKC1Ev, __ZN6AriSdk33ARI_IBISimFileUpdateBinaryReq_SDKC2EPKhj, 
                       __ZN6AriSdk33ARI_IBISimFileUpdateBinaryReq_SDKC2Ev, __ZN6AriSdk33ARI_IBISimGetPlmnModeBitRspCb_SDK4packEPP6AriMsg, 
                       __ZN6AriSdk33ARI_IBISimGetPlmnModeBitRspCb_SDK6unpackEv, __ZN6AriSdk33ARI_IBISimGetPlmnModeBitRspCb_SDKC1EPKhj, 
                       __ZN6AriSdk33ARI_IBISimGetPlmnModeBitRspCb_SDKC1Ev, __ZN6AriSdk33ARI_IBISimGetPlmnModeBitRspCb_SDKC2EPKhj, 
                       __ZN6AriSdk33ARI_IBISimGetPlmnModeBitRspCb_SDKC2Ev, __ZN6AriSdk33ARI_IBISimGetSmscAddressRspCb_SDK4packEPP6AriMsg, 
                       __ZN6AriSdk33ARI_IBISimGetSmscAddressRspCb_SDK6unpackEv, __ZN6AriSdk33ARI_IBISimGetSmscAddressRspCb_SDKC1EPKhj, 
                       __ZN6AriSdk33ARI_IBISimGetSmscAddressRspCb_SDKC1Ev, __ZN6AriSdk33ARI_IBISimGetSmscAddressRspCb_SDKC2EPKhj, 
                       __ZN6AriSdk33ARI_IBISimGetSmscAddressRspCb_SDKC2Ev, __ZN6AriSdk33ARI_IBISimPbGetFreeRecordsReq_SDK4packEPP6AriMsg, 
                       __ZN6AriSdk33ARI_IBISimPbGetFreeRecordsReq_SDK6unpackEv, __ZN6AriSdk33ARI_IBISimPbGetFreeRecordsReq_SDKC1EPKhj, 
                       __ZN6AriSdk33ARI_IBISimPbGetFreeRecordsReq_SDKC1Ev, __ZN6AriSdk33ARI_IBISimPbGetFreeRecordsReq_SDKC2EPKhj, 
                       __ZN6AriSdk33ARI_IBISimPbGetFreeRecordsReq_SDKC2Ev, __ZN6AriSdk33ARI_IBISimPbReadAnrEntryIndCb_SDK4packEPP6AriMsg, 
                       __ZN6AriSdk33ARI_IBISimPbReadAnrEntryIndCb_SDK6unpackEv, __ZN6AriSdk33ARI_IBISimPbReadAnrEntryIndCb_SDKC1EPKhj, 
                       __ZN6AriSdk33ARI_IBISimPbReadAnrEntryIndCb_SDKC1Ev, __ZN6AriSdk33ARI_IBISimPbReadAnrEntryIndCb_SDKC2EPKhj, 
                       __ZN6AriSdk33ARI_IBISimPbReadAnrEntryIndCb_SDKC2Ev, __ZN6AriSdk33ARI_IBISimPbReadSneEntryIndCb_SDK4packEPP6AriMsg, 
                       __ZN6AriSdk33ARI_IBISimPbReadSneEntryIndCb_SDK6unpackEv, __ZN6AriSdk33ARI_IBISimPbReadSneEntryIndCb_SDKC1EPKhj, 
                       __ZN6AriSdk33ARI_IBISimPbReadSneEntryIndCb_SDKC1Ev, __ZN6AriSdk33ARI_IBISimPbReadSneEntryIndCb_SDKC2EPKhj, 
                       __ZN6AriSdk33ARI_IBISimPbReadSneEntryIndCb_SDKC2Ev, __ZN6AriSdk33ARI_IBISimPbUsimPbSelectRspCb_SDK4packEPP6AriMsg, 
                       __ZN6AriSdk33ARI_IBISimPbUsimPbSelectRspCb_SDK6unpackEv, __ZN6AriSdk33ARI_IBISimPbUsimPbSelectRspCb_SDKC1EPKhj, 
                       __ZN6AriSdk33ARI_IBISimPbUsimPbSelectRspCb_SDKC1Ev, __ZN6AriSdk33ARI_IBISimPbUsimPbSelectRspCb_SDKC2EPKhj, 
                       __ZN6AriSdk33ARI_IBISimPbUsimPbSelectRspCb_SDKC2Ev, __ZN6AriSdk33ARI_IBISimSetSmscAddressRspCb_SDK4packEPP6AriMsg, 
                       __ZN6AriSdk33ARI_IBISimSetSmscAddressRspCb_SDK6unpackEv, __ZN6AriSdk33ARI_IBISimSetSmscAddressRspCb_SDKC1EPKhj, 
                       __ZN6AriSdk33ARI_IBISimSetSmscAddressRspCb_SDKC1Ev, __ZN6AriSdk33ARI_IBISimSetSmscAddressRspCb_SDKC2EPKhj, 
                       __ZN6AriSdk33ARI_IBISimSetSmscAddressRspCb_SDKC2Ev, __ZN6AriSdk33ARI_IBISimTkImsCallControlReq_SDK4packEPP6AriMsg, 
                       __ZN6AriSdk33ARI_IBISimTkImsCallControlReq_SDK6unpackEv, __ZN6AriSdk33ARI_IBISimTkImsCallControlReq_SDKC1EPKhj, 
                       __ZN6AriSdk33ARI_IBISimTkImsCallControlReq_SDKC1Ev, __ZN6AriSdk33ARI_IBISimTkImsCallControlReq_SDKC2EPKhj, 
                       __ZN6AriSdk33ARI_IBISimTkImsCallControlReq_SDKC2Ev, __ZN6AriSdk33ARI_IBISimTkProactiveCmdIndCb_SDK4packEPP6AriMsg, 
                       __ZN6AriSdk33ARI_IBISimTkProactiveCmdIndCb_SDK6unpackEv, __ZN6AriSdk33ARI_IBISimTkProactiveCmdIndCb_SDKC1EPKhj, 
                       __ZN6AriSdk33ARI_IBISimTkProactiveCmdIndCb_SDKC1Ev, __ZN6AriSdk33ARI_IBISimTkProactiveCmdIndCb_SDKC2EPKhj, 
                       __ZN6AriSdk33ARI_IBISimTkProactiveCmdIndCb_SDKC2Ev, __ZN6AriSdk33ARI_IBISimTkRefreshConfirmRsp_SDK4packEPP6AriMsg, 
                       __ZN6AriSdk33ARI_IBISimTkRefreshConfirmRsp_SDK6unpackEv, __ZN6AriSdk33ARI_IBISimTkRefreshConfirmRsp_SDKC1EPKhj, 
                       __ZN6AriSdk33ARI_IBISimTkRefreshConfirmRsp_SDKC1Ev, __ZN6AriSdk33ARI_IBISimTkRefreshConfirmRsp_SDKC2EPKhj, 
                       __ZN6AriSdk33ARI_IBISimTkRefreshConfirmRsp_SDKC2Ev, __ZN6AriSdk33ARI_IBISimTkRefreshQueryIndCb_SDK4packEPP6AriMsg, 
                       __ZN6AriSdk33ARI_IBISimTkRefreshQueryIndCb_SDK6unpackEv, __ZN6AriSdk33ARI_IBISimTkRefreshQueryIndCb_SDKC1EPKhj, 
                       __ZN6AriSdk33ARI_IBISimTkRefreshQueryIndCb_SDKC1Ev, __ZN6AriSdk33ARI_IBISimTkRefreshQueryIndCb_SDKC2EPKhj, 
                       __ZN6AriSdk33ARI_IBISimTkRefreshQueryIndCb_SDKC2Ev, __ZN6AriSdk33ARI_IBISimTkResetConfirmIndCb_SDK4packEPP6AriMsg, 
                       __ZN6AriSdk33ARI_IBISimTkResetConfirmIndCb_SDK6unpackEv, __ZN6AriSdk33ARI_IBISimTkResetConfirmIndCb_SDKC1EPKhj, 
                       __ZN6AriSdk33ARI_IBISimTkResetConfirmIndCb_SDKC1Ev, __ZN6AriSdk33ARI_IBISimTkResetConfirmIndCb_SDKC2EPKhj, 
                       __ZN6AriSdk33ARI_IBISimTkResetConfirmIndCb_SDKC2Ev, __ZN6AriSdk33ARI_IBISmsGetServiceStatusReq_SDK4packEPP6AriMsg, 
                       __ZN6AriSdk33ARI_IBISmsGetServiceStatusReq_SDK6unpackEv, __ZN6AriSdk33ARI_IBISmsGetServiceStatusReq_SDKC1EPKhj, 
                       __ZN6AriSdk33ARI_IBISmsGetServiceStatusReq_SDKC1Ev, __ZN6AriSdk33ARI_IBISmsGetServiceStatusReq_SDKC2EPKhj, 
                       __ZN6AriSdk33ARI_IBISmsGetServiceStatusReq_SDKC2Ev, __ZN6AriSdk33ARI_UtaMsCallCsReleaseCallReq_SDK4packEPP6AriMsg, 
                       __ZN6AriSdk33ARI_UtaMsCallCsReleaseCallReq_SDK6unpackEv, __ZN6AriSdk33ARI_UtaMsCallCsReleaseCallReq_SDKC1EPKhj, 
                       __ZN6AriSdk33ARI_UtaMsCallCsReleaseCallReq_SDKC1Ev, __ZN6AriSdk33ARI_UtaMsCallCsReleaseCallReq_SDKC2EPKhj, 
                       __ZN6AriSdk33ARI_UtaMsCallCsReleaseCallReq_SDKC2Ev, __ZN6AriSdk34ARI_CsiAwdsMetricSubTriggerInd_SDK4packEPP6AriMsg, 
                       __ZN6AriSdk34ARI_CsiAwdsMetricSubTriggerInd_SDK6unpackEv, 
                       __ZN6AriSdk34ARI_CsiAwdsMetricSubTriggerInd_SDKC1EPKhj, __ZN6AriSdk34ARI_CsiAwdsMetricSubTriggerInd_SDKC1Ev, 
                       __ZN6AriSdk34ARI_CsiAwdsMetricSubTriggerInd_SDKC2EPKhj, __ZN6AriSdk34ARI_CsiAwdsMetricSubTriggerInd_SDKC2Ev, 
                       __ZN6AriSdk34ARI_CsiBspNvmReadGroupBlockReq_SDK4packEPP6AriMsg, 
                       __ZN6AriSdk34ARI_CsiBspNvmReadGroupBlockReq_SDK6unpackEv, 
                       __ZN6AriSdk34ARI_CsiBspNvmReadGroupBlockReq_SDKC1EPKhj, __ZN6AriSdk34ARI_CsiBspNvmReadGroupBlockReq_SDKC1Ev, 
                       __ZN6AriSdk34ARI_CsiBspNvmReadGroupBlockReq_SDKC2EPKhj, __ZN6AriSdk34ARI_CsiBspNvmReadGroupBlockReq_SDKC2Ev, 
                       __ZN6AriSdk34ARI_CsiBspSetNvItemsToStateReq_SDK4packEPP6AriMsg, 
                       __ZN6AriSdk34ARI_CsiBspSetNvItemsToStateReq_SDK6unpackEv, 
                       __ZN6AriSdk34ARI_CsiBspSetNvItemsToStateReq_SDKC1EPKhj, __ZN6AriSdk34ARI_CsiBspSetNvItemsToStateReq_SDKC1Ev, 
                       __ZN6AriSdk34ARI_CsiBspSetNvItemsToStateReq_SDKC2EPKhj, __ZN6AriSdk34ARI_CsiBspSetNvItemsToStateReq_SDKC2Ev, 
                       __ZN6AriSdk34ARI_CsiIceAudEnableAudioRespCb_SDK4packEPP6AriMsg, 
                       __ZN6AriSdk34ARI_CsiIceAudEnableAudioRespCb_SDK6unpackEv, 
                       __ZN6AriSdk34ARI_CsiIceAudEnableAudioRespCb_SDKC1EPKhj, __ZN6AriSdk34ARI_CsiIceAudEnableAudioRespCb_SDKC1Ev, 
                       __ZN6AriSdk34ARI_CsiIceAudEnableAudioRespCb_SDKC2EPKhj, __ZN6AriSdk34ARI_CsiIceAudEnableAudioRespCb_SDKC2Ev, 
                       __ZN6AriSdk34ARI_CsiIceAudVocoderInfoRespCb_SDK4packEPP6AriMsg, 
                       __ZN6AriSdk34ARI_CsiIceAudVocoderInfoRespCb_SDK6unpackEv, 
                       __ZN6AriSdk34ARI_CsiIceAudVocoderInfoRespCb_SDKC1EPKhj, __ZN6AriSdk34ARI_CsiIceAudVocoderInfoRespCb_SDKC1Ev, 
                       __ZN6AriSdk34ARI_CsiIceAudVocoderInfoRespCb_SDKC2EPKhj, __ZN6AriSdk34ARI_CsiIceAudVocoderInfoRespCb_SDKC2Ev, 
                       __ZN6AriSdk34ARI_CsiIceGetAntennaStateRspCb_SDK4packEPP6AriMsg, 
                       __ZN6AriSdk34ARI_CsiIceGetAntennaStateRspCb_SDK6unpackEv, 
                       __ZN6AriSdk34ARI_CsiIceGetAntennaStateRspCb_SDKC1EPKhj, __ZN6AriSdk34ARI_CsiIceGetAntennaStateRspCb_SDKC1Ev, 
                       __ZN6AriSdk34ARI_CsiIceGetAntennaStateRspCb_SDKC2EPKhj, __ZN6AriSdk34ARI_CsiIceGetAntennaStateRspCb_SDKC2Ev, 
                       __ZN6AriSdk34ARI_CsiIceGetManifestStatusReq_SDK4packEPP6AriMsg, 
                       __ZN6AriSdk34ARI_CsiIceGetManifestStatusReq_SDK6unpackEv, 
                       __ZN6AriSdk34ARI_CsiIceGetManifestStatusReq_SDKC1EPKhj, __ZN6AriSdk34ARI_CsiIceGetManifestStatusReq_SDKC1Ev, 
                       __ZN6AriSdk34ARI_CsiIceGetManifestStatusReq_SDKC2EPKhj, __ZN6AriSdk34ARI_CsiIceGetManifestStatusReq_SDKC2Ev, 
                       __ZN6AriSdk34ARI_CsiIdcCellConfigEventIndCb_SDK4packEPP6AriMsg, 
                       __ZN6AriSdk34ARI_CsiIdcCellConfigEventIndCb_SDK6unpackEv, 
                       __ZN6AriSdk34ARI_CsiIdcCellConfigEventIndCb_SDKC1EPKhj, __ZN6AriSdk34ARI_CsiIdcCellConfigEventIndCb_SDKC1Ev, 
                       __ZN6AriSdk34ARI_CsiIdcCellConfigEventIndCb_SDKC2EPKhj, __ZN6AriSdk34ARI_CsiIdcCellConfigEventIndCb_SDKC2Ev, 
                       __ZN6AriSdk34ARI_CsiIpcCtrlPathTestSrcRspCb_SDK4packEPP6AriMsg, 
                       __ZN6AriSdk34ARI_CsiIpcCtrlPathTestSrcRspCb_SDK6unpackEv, 
                       __ZN6AriSdk34ARI_CsiIpcCtrlPathTestSrcRspCb_SDKC1EPKhj, __ZN6AriSdk34ARI_CsiIpcCtrlPathTestSrcRspCb_SDKC1Ev, 
                       __ZN6AriSdk34ARI_CsiIpcCtrlPathTestSrcRspCb_SDKC2EPKhj, __ZN6AriSdk34ARI_CsiIpcCtrlPathTestSrcRspCb_SDKC2Ev, 
                       __ZN6AriSdk34ARI_CsiTraceProfileSelectRspCb_SDK4packEPP6AriMsg, 
                       __ZN6AriSdk34ARI_CsiTraceProfileSelectRspCb_SDK6unpackEv, 
                       __ZN6AriSdk34ARI_CsiTraceProfileSelectRspCb_SDKC1EPKhj, __ZN6AriSdk34ARI_CsiTraceProfileSelectRspCb_SDKC1Ev, 
                       __ZN6AriSdk34ARI_CsiTraceProfileSelectRspCb_SDKC2EPKhj, __ZN6AriSdk34ARI_CsiTraceProfileSelectRspCb_SDKC2Ev, 
                       __ZN6AriSdk34ARI_IBICallCsDisconnectedIndCb_SDK4packEPP6AriMsg, 
                       __ZN6AriSdk34ARI_IBICallCsDisconnectedIndCb_SDK6unpackEv, 
                       __ZN6AriSdk34ARI_IBICallCsDisconnectedIndCb_SDKC1EPKhj, __ZN6AriSdk34ARI_IBICallCsDisconnectedIndCb_SDKC1Ev, 
                       __ZN6AriSdk34ARI_IBICallCsDisconnectedIndCb_SDKC2EPKhj, __ZN6AriSdk34ARI_IBICallCsDisconnectedIndCb_SDKC2Ev, 
                       __ZN6AriSdk34ARI_IBICallCsIncomingCallIndCb_SDK4packEPP6AriMsg, 
                       __ZN6AriSdk34ARI_IBICallCsIncomingCallIndCb_SDK6unpackEv, 
                       __ZN6AriSdk34ARI_IBICallCsIncomingCallIndCb_SDKC1EPKhj, __ZN6AriSdk34ARI_IBICallCsIncomingCallIndCb_SDKC1Ev, 
                       __ZN6AriSdk34ARI_IBICallCsIncomingCallIndCb_SDKC2EPKhj, __ZN6AriSdk34ARI_IBICallCsIncomingCallIndCb_SDKC2Ev, 
                       __ZN6AriSdk34ARI_IBICallCsNotificationIndCb_SDK4packEPP6AriMsg, 
                       __ZN6AriSdk34ARI_IBICallCsNotificationIndCb_SDK6unpackEv, 
                       __ZN6AriSdk34ARI_IBICallCsNotificationIndCb_SDKC1EPKhj, __ZN6AriSdk34ARI_IBICallCsNotificationIndCb_SDKC1Ev, 
                       __ZN6AriSdk34ARI_IBICallCsNotificationIndCb_SDKC2EPKhj, __ZN6AriSdk34ARI_IBICallCsNotificationIndCb_SDKC2Ev, 
                       __ZN6AriSdk34ARI_IBICallCsRetrieveCallRspCb_SDK4packEPP6AriMsg, 
                       __ZN6AriSdk34ARI_IBICallCsRetrieveCallRspCb_SDK6unpackEv, 
                       __ZN6AriSdk34ARI_IBICallCsRetrieveCallRspCb_SDKC1EPKhj, __ZN6AriSdk34ARI_IBICallCsRetrieveCallRspCb_SDKC1Ev, 
                       __ZN6AriSdk34ARI_IBICallCsRetrieveCallRspCb_SDKC2EPKhj, __ZN6AriSdk34ARI_IBICallCsRetrieveCallRspCb_SDKC2Ev, 
                       __ZN6AriSdk34ARI_IBICallCsSetupCallRspCb_V1_SDK4packEPP6AriMsg, 
                       __ZN6AriSdk34ARI_IBICallCsSetupCallRspCb_V1_SDK6unpackEv, 
                       __ZN6AriSdk34ARI_IBICallCsSetupCallRspCb_V1_SDKC1EPKhj, __ZN6AriSdk34ARI_IBICallCsSetupCallRspCb_V1_SDKC1Ev, 
                       __ZN6AriSdk34ARI_IBICallCsSetupCallRspCb_V1_SDKC2EPKhj, __ZN6AriSdk34ARI_IBICallCsSetupCallRspCb_V1_SDKC2Ev, 
                       __ZN6AriSdk34ARI_IBICallCsSetupVoiceCallReq_SDK4packEPP6AriMsg, 
                       __ZN6AriSdk34ARI_IBICallCsSetupVoiceCallReq_SDK6unpackEv, 
                       __ZN6AriSdk34ARI_IBICallCsSetupVoiceCallReq_SDKC1EPKhj, __ZN6AriSdk34ARI_IBICallCsSetupVoiceCallReq_SDKC1Ev, 
                       __ZN6AriSdk34ARI_IBICallCsSetupVoiceCallReq_SDKC2EPKhj, __ZN6AriSdk34ARI_IBICallCsSetupVoiceCallReq_SDKC2Ev, 
                       __ZN6AriSdk34ARI_IBICallPsNotificationIndCb_SDK4packEPP6AriMsg, 
                       __ZN6AriSdk34ARI_IBICallPsNotificationIndCb_SDK6unpackEv, 
                       __ZN6AriSdk34ARI_IBICallPsNotificationIndCb_SDKC1EPKhj, __ZN6AriSdk34ARI_IBICallPsNotificationIndCb_SDKC1Ev, 
                       __ZN6AriSdk34ARI_IBICallPsNotificationIndCb_SDKC2EPKhj, __ZN6AriSdk34ARI_IBICallPsNotificationIndCb_SDKC2Ev, 
                       __ZN6AriSdk34ARI_IBICallPsStopDataCallRspCb_SDK4packEPP6AriMsg, 
                       __ZN6AriSdk34ARI_IBICallPsStopDataCallRspCb_SDK6unpackEv, 
                       __ZN6AriSdk34ARI_IBICallPsStopDataCallRspCb_SDKC1EPKhj, __ZN6AriSdk34ARI_IBICallPsStopDataCallRspCb_SDKC1Ev, 
                       __ZN6AriSdk34ARI_IBICallPsStopDataCallRspCb_SDKC2EPKhj, __ZN6AriSdk34ARI_IBICallPsStopDataCallRspCb_SDKC2Ev, 
                       __ZN6AriSdk34ARI_IBIImsMEStartDTMFCodeRspCb_SDK4packEPP6AriMsg, 
                       __ZN6AriSdk34ARI_IBIImsMEStartDTMFCodeRspCb_SDK6unpackEv, 
                       __ZN6AriSdk34ARI_IBIImsMEStartDTMFCodeRspCb_SDKC1EPKhj, __ZN6AriSdk34ARI_IBIImsMEStartDTMFCodeRspCb_SDKC1Ev, 
                       __ZN6AriSdk34ARI_IBIImsMEStartDTMFCodeRspCb_SDKC2EPKhj, __ZN6AriSdk34ARI_IBIImsMEStartDTMFCodeRspCb_SDKC2Ev, 
                       __ZN6AriSdk34ARI_IBIMsAccCurrentFreqInfoReq_SDK4packEPP6AriMsg, 
                       __ZN6AriSdk34ARI_IBIMsAccCurrentFreqInfoReq_SDK6unpackEv, 
                       __ZN6AriSdk34ARI_IBIMsAccCurrentFreqInfoReq_SDKC1EPKhj, __ZN6AriSdk34ARI_IBIMsAccCurrentFreqInfoReq_SDKC1Ev, 
                       __ZN6AriSdk34ARI_IBIMsAccCurrentFreqInfoReq_SDKC2EPKhj, __ZN6AriSdk34ARI_IBIMsAccCurrentFreqInfoReq_SDKC2Ev, 
                       __ZN6AriSdk34ARI_IBIMsCpPosMeasurementRspCb_SDK4packEPP6AriMsg, 
                       __ZN6AriSdk34ARI_IBIMsCpPosMeasurementRspCb_SDK6unpackEv, 
                       __ZN6AriSdk34ARI_IBIMsCpPosMeasurementRspCb_SDKC1EPKhj, __ZN6AriSdk34ARI_IBIMsCpPosMeasurementRspCb_SDKC1Ev, 
                       __ZN6AriSdk34ARI_IBIMsCpPosMeasurementRspCb_SDKC2EPKhj, __ZN6AriSdk34ARI_IBIMsCpPosMeasurementRspCb_SDKC2Ev, 
                       __ZN6AriSdk34ARI_IBIMsLpGanssTimeModelIndCb_SDK4packEPP6AriMsg, 
                       __ZN6AriSdk34ARI_IBIMsLpGanssTimeModelIndCb_SDK6unpackEv, 
                       __ZN6AriSdk34ARI_IBIMsLpGanssTimeModelIndCb_SDKC1EPKhj, __ZN6AriSdk34ARI_IBIMsLpGanssTimeModelIndCb_SDKC1Ev, 
                       __ZN6AriSdk34ARI_IBIMsLpGanssTimeModelIndCb_SDKC2EPKhj, __ZN6AriSdk34ARI_IBIMsLpGanssTimeModelIndCb_SDKC2Ev, 
                       __ZN6AriSdk34ARI_IBIMsLpGlonassAlmanacIndCb_SDK4packEPP6AriMsg, 
                       __ZN6AriSdk34ARI_IBIMsLpGlonassAlmanacIndCb_SDK6unpackEv, 
                       __ZN6AriSdk34ARI_IBIMsLpGlonassAlmanacIndCb_SDKC1EPKhj, __ZN6AriSdk34ARI_IBIMsLpGlonassAlmanacIndCb_SDKC1Ev, 
                       __ZN6AriSdk34ARI_IBIMsLpGlonassAlmanacIndCb_SDKC2EPKhj, __ZN6AriSdk34ARI_IBIMsLpGlonassAlmanacIndCb_SDKC2Ev, 
                       __ZN6AriSdk34ARI_IBIMsNetIceCsgAsfSearchReq_SDK4packEPP6AriMsg, 
                       __ZN6AriSdk34ARI_IBIMsNetIceCsgAsfSearchReq_SDK6unpackEv, 
                       __ZN6AriSdk34ARI_IBIMsNetIceCsgAsfSearchReq_SDKC1EPKhj, __ZN6AriSdk34ARI_IBIMsNetIceCsgAsfSearchReq_SDKC1Ev, 
                       __ZN6AriSdk34ARI_IBIMsNetIceCsgAsfSearchReq_SDKC2EPKhj, __ZN6AriSdk34ARI_IBIMsNetIceCsgAsfSearchReq_SDKC2Ev, 
                       __ZN6AriSdk34ARI_IBINetDcSsacBarringInfoReq_SDK4packEPP6AriMsg, 
                       __ZN6AriSdk34ARI_IBINetDcSsacBarringInfoReq_SDK6unpackEv, 
                       __ZN6AriSdk34ARI_IBINetDcSsacBarringInfoReq_SDKC1EPKhj, __ZN6AriSdk34ARI_IBINetDcSsacBarringInfoReq_SDKC1Ev, 
                       __ZN6AriSdk34ARI_IBINetDcSsacBarringInfoReq_SDKC2EPKhj, __ZN6AriSdk34ARI_IBINetDcSsacBarringInfoReq_SDKC2Ev, 
                       __ZN6AriSdk34ARI_IBINetGetCurrCellInfoRspCb_SDK4packEPP6AriMsg, 
                       __ZN6AriSdk34ARI_IBINetGetCurrCellInfoRspCb_SDK6unpackEv, 
                       __ZN6AriSdk34ARI_IBINetGetCurrCellInfoRspCb_SDKC1EPKhj, __ZN6AriSdk34ARI_IBINetGetCurrCellInfoRspCb_SDKC1Ev, 
                       __ZN6AriSdk34ARI_IBINetGetCurrCellInfoRspCb_SDKC2EPKhj, __ZN6AriSdk34ARI_IBINetGetCurrCellInfoRspCb_SDKC2Ev, 
                       __ZN6AriSdk34ARI_IBINetGetPlmnNameInfoIndCb_SDK4packEPP6AriMsg, 
                       __ZN6AriSdk34ARI_IBINetGetPlmnNameInfoIndCb_SDK6unpackEv, 
                       __ZN6AriSdk34ARI_IBINetGetPlmnNameInfoIndCb_SDKC1EPKhj, __ZN6AriSdk34ARI_IBINetGetPlmnNameInfoIndCb_SDKC1Ev, 
                       __ZN6AriSdk34ARI_IBINetGetPlmnNameInfoIndCb_SDKC2EPKhj, __ZN6AriSdk34ARI_IBINetGetPlmnNameInfoIndCb_SDKC2Ev, 
                       __ZN6AriSdk34ARI_IBINetSwapRatSettingsRspCb_SDK4packEPP6AriMsg, 
                       __ZN6AriSdk34ARI_IBINetSwapRatSettingsRspCb_SDK6unpackEv, 
                       __ZN6AriSdk34ARI_IBINetSwapRatSettingsRspCb_SDKC1EPKhj, __ZN6AriSdk34ARI_IBINetSwapRatSettingsRspCb_SDKC1Ev, 
                       __ZN6AriSdk34ARI_IBINetSwapRatSettingsRspCb_SDKC2EPKhj, __ZN6AriSdk34ARI_IBINetSwapRatSettingsRspCb_SDKC2Ev, 
                       __ZN6AriSdk34ARI_IBIP2PProximityStatusRspCb_SDK4packEPP6AriMsg, 
                       __ZN6AriSdk34ARI_IBIP2PProximityStatusRspCb_SDK6unpackEv, 
                       __ZN6AriSdk34ARI_IBIP2PProximityStatusRspCb_SDKC1EPKhj, __ZN6AriSdk34ARI_IBIP2PProximityStatusRspCb_SDKC1Ev, 
                       __ZN6AriSdk34ARI_IBIP2PProximityStatusRspCb_SDKC2EPKhj, __ZN6AriSdk34ARI_IBIP2PProximityStatusRspCb_SDKC2Ev, 
                       __ZN6AriSdk34ARI_IBISimGetEfMwisParamsRspCb_SDK4packEPP6AriMsg, 
                       __ZN6AriSdk34ARI_IBISimGetEfMwisParamsRspCb_SDK6unpackEv, 
                       __ZN6AriSdk34ARI_IBISimGetEfMwisParamsRspCb_SDKC1EPKhj, __ZN6AriSdk34ARI_IBISimGetEfMwisParamsRspCb_SDKC1Ev, 
                       __ZN6AriSdk34ARI_IBISimGetEfMwisParamsRspCb_SDKC2EPKhj, __ZN6AriSdk34ARI_IBISimGetEfMwisParamsRspCb_SDKC2Ev, 
                       __ZN6AriSdk34ARI_IBISimPbUsimPbSelectReq_V1_SDK4packEPP6AriMsg, 
                       __ZN6AriSdk34ARI_IBISimPbUsimPbSelectReq_V1_SDK6unpackEv, 
                       __ZN6AriSdk34ARI_IBISimPbUsimPbSelectReq_V1_SDKC1EPKhj, __ZN6AriSdk34ARI_IBISimPbUsimPbSelectReq_V1_SDKC1Ev, 
                       __ZN6AriSdk34ARI_IBISimPbUsimPbSelectReq_V1_SDKC2EPKhj, __ZN6AriSdk34ARI_IBISimPbUsimPbSelectReq_V1_SDKC2Ev, 
                       __ZN6AriSdk34ARI_IBISimSetEfMwisParamsRspCb_SDK4packEPP6AriMsg, 
                       __ZN6AriSdk34ARI_IBISimSetEfMwisParamsRspCb_SDK6unpackEv, 
                       __ZN6AriSdk34ARI_IBISimSetEfMwisParamsRspCb_SDKC1EPKhj, __ZN6AriSdk34ARI_IBISimSetEfMwisParamsRspCb_SDKC1Ev, 
                       __ZN6AriSdk34ARI_IBISimSetEfMwisParamsRspCb_SDKC2EPKhj, __ZN6AriSdk34ARI_IBISimSetEfMwisParamsRspCb_SDKC2Ev, 
                       __ZN6AriSdk34ARI_IBISimTkConfigureStkCmdReq_SDK4packEPP6AriMsg, 
                       __ZN6AriSdk34ARI_IBISimTkConfigureStkCmdReq_SDK6unpackEv, 
                       __ZN6AriSdk34ARI_IBISimTkConfigureStkCmdReq_SDKC1EPKhj, __ZN6AriSdk34ARI_IBISimTkConfigureStkCmdReq_SDKC1Ev, 
                       __ZN6AriSdk34ARI_IBISimTkConfigureStkCmdReq_SDKC2EPKhj, __ZN6AriSdk34ARI_IBISimTkConfigureStkCmdReq_SDKC2Ev, 
                       __ZN6AriSdk34ARI_IBISimTkEnvelopeCommandReq_SDK4packEPP6AriMsg, 
                       __ZN6AriSdk34ARI_IBISimTkEnvelopeCommandReq_SDK6unpackEv, 
                       __ZN6AriSdk34ARI_IBISimTkEnvelopeCommandReq_SDKC1EPKhj, __ZN6AriSdk34ARI_IBISimTkEnvelopeCommandReq_SDKC1Ev, 
                       __ZN6AriSdk34ARI_IBISimTkEnvelopeCommandReq_SDKC2EPKhj, __ZN6AriSdk34ARI_IBISimTkEnvelopeCommandReq_SDKC2Ev, 
                       __ZN6AriSdk35ARI_CsiAwdsMetricSubSwitchRspCb_SDK4packEPP6AriMsg, 
                       __ZN6AriSdk35ARI_CsiAwdsMetricSubSwitchRspCb_SDK6unpackEv, 
                       __ZN6AriSdk35ARI_CsiAwdsMetricSubSwitchRspCb_SDKC1EPKhj, __ZN6AriSdk35ARI_CsiAwdsMetricSubSwitchRspCb_SDKC1Ev, 
                       __ZN6AriSdk35ARI_CsiAwdsMetricSubSwitchRspCb_SDKC2EPKhj, __ZN6AriSdk35ARI_CsiAwdsMetricSubSwitchRspCb_SDKC2Ev, 
                       __ZN6AriSdk35ARI_CsiGetCurrentBootStateRspCb_SDK4packEPP6AriMsg, 
                       __ZN6AriSdk35ARI_CsiGetCurrentBootStateRspCb_SDK6unpackEv, 
                       __ZN6AriSdk35ARI_CsiGetCurrentBootStateRspCb_SDKC1EPKhj, __ZN6AriSdk35ARI_CsiGetCurrentBootStateRspCb_SDKC1Ev, 
                       __ZN6AriSdk35ARI_CsiGetCurrentBootStateRspCb_SDKC2EPKhj, __ZN6AriSdk35ARI_CsiGetCurrentBootStateRspCb_SDKC2Ev, 
                       __ZN6AriSdk35ARI_CsiIceAccessoryStateArtdReq_SDK4packEPP6AriMsg, 
                       __ZN6AriSdk35ARI_CsiIceAccessoryStateArtdReq_SDK6unpackEv, 
                       __ZN6AriSdk35ARI_CsiIceAccessoryStateArtdReq_SDKC1EPKhj, __ZN6AriSdk35ARI_CsiIceAccessoryStateArtdReq_SDKC1Ev, 
                       __ZN6AriSdk35ARI_CsiIceAccessoryStateArtdReq_SDKC2EPKhj, __ZN6AriSdk35ARI_CsiIceAccessoryStateArtdReq_SDKC2Ev, 
                       __ZN6AriSdk35ARI_CsiIceAudDisableAudioRespCb_SDK4packEPP6AriMsg, 
                       __ZN6AriSdk35ARI_CsiIceAudDisableAudioRespCb_SDK6unpackEv, 
                       __ZN6AriSdk35ARI_CsiIceAudDisableAudioRespCb_SDKC1EPKhj, __ZN6AriSdk35ARI_CsiIceAudDisableAudioRespCb_SDKC1Ev, 
                       __ZN6AriSdk35ARI_CsiIceAudDisableAudioRespCb_SDKC2EPKhj, __ZN6AriSdk35ARI_CsiIceAudDisableAudioRespCb_SDKC2Ev, 
                       __ZN6AriSdk35ARI_CsiIceAudSetAudioLoggingReq_SDK4packEPP6AriMsg, 
                       __ZN6AriSdk35ARI_CsiIceAudSetAudioLoggingReq_SDK6unpackEv, 
                       __ZN6AriSdk35ARI_CsiIceAudSetAudioLoggingReq_SDKC1EPKhj, __ZN6AriSdk35ARI_CsiIceAudSetAudioLoggingReq_SDKC1Ev, 
                       __ZN6AriSdk35ARI_CsiIceAudSetAudioLoggingReq_SDKC2EPKhj, __ZN6AriSdk35ARI_CsiIceAudSetAudioLoggingReq_SDKC2Ev, 
                       __ZN6AriSdk35ARI_CsiIceBBTxStateIndEnableReq_SDK4packEPP6AriMsg, 
                       __ZN6AriSdk35ARI_CsiIceBBTxStateIndEnableReq_SDK6unpackEv, 
                       __ZN6AriSdk35ARI_CsiIceBBTxStateIndEnableReq_SDKC1EPKhj, __ZN6AriSdk35ARI_CsiIceBBTxStateIndEnableReq_SDKC1Ev, 
                       __ZN6AriSdk35ARI_CsiIceBBTxStateIndEnableReq_SDKC2EPKhj, __ZN6AriSdk35ARI_CsiIceBBTxStateIndEnableReq_SDKC2Ev, 
                       __ZN6AriSdk35ARI_CsiIceGetManifestStatusResp_SDK4packEPP6AriMsg, 
                       __ZN6AriSdk35ARI_CsiIceGetManifestStatusResp_SDK6unpackEv, 
                       __ZN6AriSdk35ARI_CsiIceGetManifestStatusResp_SDKC1EPKhj, __ZN6AriSdk35ARI_CsiIceGetManifestStatusResp_SDKC1Ev, 
                       __ZN6AriSdk35ARI_CsiIceGetManifestStatusResp_SDKC2EPKhj, __ZN6AriSdk35ARI_CsiIceGetManifestStatusResp_SDKC2Ev, 
                       __ZN6AriSdk35ARI_CsiIceTemperatureCloseRspCb_SDK4packEPP6AriMsg, 
                       __ZN6AriSdk35ARI_CsiIceTemperatureCloseRspCb_SDK6unpackEv, 
                       __ZN6AriSdk35ARI_CsiIceTemperatureCloseRspCb_SDKC1EPKhj, __ZN6AriSdk35ARI_CsiIceTemperatureCloseRspCb_SDKC1Ev, 
                       __ZN6AriSdk35ARI_CsiIceTemperatureCloseRspCb_SDKC2EPKhj, __ZN6AriSdk35ARI_CsiIceTemperatureCloseRspCb_SDKC2Ev, 
                       __ZN6AriSdk35ARI_CsiIpcCtrlPathTestDataIndCb_SDK4packEPP6AriMsg, 
                       __ZN6AriSdk35ARI_CsiIpcCtrlPathTestDataIndCb_SDK6unpackEv, 
                       __ZN6AriSdk35ARI_CsiIpcCtrlPathTestDataIndCb_SDKC1EPKhj, __ZN6AriSdk35ARI_CsiIpcCtrlPathTestDataIndCb_SDKC1Ev, 
                       __ZN6AriSdk35ARI_CsiIpcCtrlPathTestDataIndCb_SDKC2EPKhj, __ZN6AriSdk35ARI_CsiIpcCtrlPathTestDataIndCb_SDKC2Ev, 
                       __ZN6AriSdk35ARI_CsiIpcCtrlPathTestDataOpReq_SDK4packEPP6AriMsg, 
                       __ZN6AriSdk35ARI_CsiIpcCtrlPathTestDataOpReq_SDK6unpackEv, 
                       __ZN6AriSdk35ARI_CsiIpcCtrlPathTestDataOpReq_SDKC1EPKhj, __ZN6AriSdk35ARI_CsiIpcCtrlPathTestDataOpReq_SDKC1Ev, 
                       __ZN6AriSdk35ARI_CsiIpcCtrlPathTestDataOpReq_SDKC2EPKhj, __ZN6AriSdk35ARI_CsiIpcCtrlPathTestDataOpReq_SDKC2Ev, 
                       __ZN6AriSdk35ARI_CsiIpcCtrlPathTestInitRspCb_SDK4packEPP6AriMsg, 
                       __ZN6AriSdk35ARI_CsiIpcCtrlPathTestInitRspCb_SDK6unpackEv, 
                       __ZN6AriSdk35ARI_CsiIpcCtrlPathTestInitRspCb_SDKC1EPKhj, __ZN6AriSdk35ARI_CsiIpcCtrlPathTestInitRspCb_SDKC1Ev, 
                       __ZN6AriSdk35ARI_CsiIpcCtrlPathTestInitRspCb_SDKC2EPKhj, __ZN6AriSdk35ARI_CsiIpcCtrlPathTestInitRspCb_SDKC2Ev, 
                       __ZN6AriSdk35ARI_CsiIpcCtrlPathTestSrcCfgReq_SDK4packEPP6AriMsg, 
                       __ZN6AriSdk35ARI_CsiIpcCtrlPathTestSrcCfgReq_SDK6unpackEv, 
                       __ZN6AriSdk35ARI_CsiIpcCtrlPathTestSrcCfgReq_SDKC1EPKhj, __ZN6AriSdk35ARI_CsiIpcCtrlPathTestSrcCfgReq_SDKC1Ev, 
                       __ZN6AriSdk35ARI_CsiIpcCtrlPathTestSrcCfgReq_SDKC2EPKhj, __ZN6AriSdk35ARI_CsiIpcCtrlPathTestSrcCfgReq_SDKC2Ev, 
                       __ZN6AriSdk35ARI_CsiIpcCtrlPathTestUnInitReq_SDK4packEPP6AriMsg, 
                       __ZN6AriSdk35ARI_CsiIpcCtrlPathTestUnInitReq_SDK6unpackEv, 
                       __ZN6AriSdk35ARI_CsiIpcCtrlPathTestUnInitReq_SDKC1EPKhj, __ZN6AriSdk35ARI_CsiIpcCtrlPathTestUnInitReq_SDKC1Ev, 
                       __ZN6AriSdk35ARI_CsiIpcCtrlPathTestUnInitReq_SDKC2EPKhj, __ZN6AriSdk35ARI_CsiIpcCtrlPathTestUnInitReq_SDKC2Ev, 
                       __ZN6AriSdk35ARI_IBICallCsRedialStartedIndCb_SDK4packEPP6AriMsg, 
                       __ZN6AriSdk35ARI_IBICallCsRedialStartedIndCb_SDK6unpackEv, 
                       __ZN6AriSdk35ARI_IBICallCsRedialStartedIndCb_SDKC1EPKhj, __ZN6AriSdk35ARI_IBICallCsRedialStartedIndCb_SDKC1Ev, 
                       __ZN6AriSdk35ARI_IBICallCsRedialStartedIndCb_SDKC2EPKhj, __ZN6AriSdk35ARI_IBICallCsRedialStartedIndCb_SDKC2Ev, 
                       __ZN6AriSdk35ARI_IBICallCsTransferCallsRspCb_SDK4packEPP6AriMsg, 
                       __ZN6AriSdk35ARI_IBICallCsTransferCallsRspCb_SDK6unpackEv, 
                       __ZN6AriSdk35ARI_IBICallCsTransferCallsRspCb_SDKC1EPKhj, __ZN6AriSdk35ARI_IBICallCsTransferCallsRspCb_SDKC1Ev, 
                       __ZN6AriSdk35ARI_IBICallCsTransferCallsRspCb_SDKC2EPKhj, __ZN6AriSdk35ARI_IBICallCsTransferCallsRspCb_SDKC2Ev, 
                       __ZN6AriSdk35ARI_IBICallPsDataPathSetupRspCb_SDK4packEPP6AriMsg, 
                       __ZN6AriSdk35ARI_IBICallPsDataPathSetupRspCb_SDK6unpackEv, 
                       __ZN6AriSdk35ARI_IBICallPsDataPathSetupRspCb_SDKC1EPKhj, __ZN6AriSdk35ARI_IBICallPsDataPathSetupRspCb_SDKC1Ev, 
                       __ZN6AriSdk35ARI_IBICallPsDataPathSetupRspCb_SDKC2EPKhj, __ZN6AriSdk35ARI_IBICallPsDataPathSetupRspCb_SDKC2Ev, 
                       __ZN6AriSdk35ARI_IBICallPsStartDataCallRspCb_SDK4packEPP6AriMsg, 
                       __ZN6AriSdk35ARI_IBICallPsStartDataCallRspCb_SDK6unpackEv, 
                       __ZN6AriSdk35ARI_IBICallPsStartDataCallRspCb_SDKC1EPKhj, __ZN6AriSdk35ARI_IBICallPsStartDataCallRspCb_SDKC1Ev, 
                       __ZN6AriSdk35ARI_IBICallPsStartDataCallRspCb_SDKC2EPKhj, __ZN6AriSdk35ARI_IBICallPsStartDataCallRspCb_SDKC2Ev, 
                       __ZN6AriSdk35ARI_IBIImsMERtcpSDESReportIndCb_SDK4packEPP6AriMsg, 
                       __ZN6AriSdk35ARI_IBIImsMERtcpSDESReportIndCb_SDK6unpackEv, 
                       __ZN6AriSdk35ARI_IBIImsMERtcpSDESReportIndCb_SDKC1EPKhj, __ZN6AriSdk35ARI_IBIImsMERtcpSDESReportIndCb_SDKC1Ev, 
                       __ZN6AriSdk35ARI_IBIImsMERtcpSDESReportIndCb_SDKC2EPKhj, __ZN6AriSdk35ARI_IBIImsMERtcpSDESReportIndCb_SDKC2Ev, 
                       __ZN6AriSdk35ARI_IBIMsLpMeasurePositionReqCb_SDK4packEPP6AriMsg, 
                       __ZN6AriSdk35ARI_IBIMsLpMeasurePositionReqCb_SDK6unpackEv, 
                       __ZN6AriSdk35ARI_IBIMsLpMeasurePositionReqCb_SDKC1EPKhj, __ZN6AriSdk35ARI_IBIMsLpMeasurePositionReqCb_SDKC1Ev, 
                       __ZN6AriSdk35ARI_IBIMsLpMeasurePositionReqCb_SDKC2EPKhj, __ZN6AriSdk35ARI_IBIMsLpMeasurePositionReqCb_SDKC2Ev, 
                       __ZN6AriSdk35ARI_IBINetEmergencyCellEndRspCb_SDK4packEPP6AriMsg, 
                       __ZN6AriSdk35ARI_IBINetEmergencyCellEndRspCb_SDK6unpackEv, 
                       __ZN6AriSdk35ARI_IBINetEmergencyCellEndRspCb_SDKC1EPKhj, __ZN6AriSdk35ARI_IBINetEmergencyCellEndRspCb_SDKC1Ev, 
                       __ZN6AriSdk35ARI_IBINetEmergencyCellEndRspCb_SDKC2EPKhj, __ZN6AriSdk35ARI_IBINetEmergencyCellEndRspCb_SDKC2Ev, 
                       __ZN6AriSdk35ARI_IBINetGetAcBarringInfoRspCb_SDK4packEPP6AriMsg, 
                       __ZN6AriSdk35ARI_IBINetGetAcBarringInfoRspCb_SDK6unpackEv, 
                       __ZN6AriSdk35ARI_IBINetGetAcBarringInfoRspCb_SDKC1EPKhj, __ZN6AriSdk35ARI_IBINetGetAcBarringInfoRspCb_SDKC1Ev, 
                       __ZN6AriSdk35ARI_IBINetGetAcBarringInfoRspCb_SDKC2EPKhj, __ZN6AriSdk35ARI_IBINetGetAcBarringInfoRspCb_SDKC2Ev, 
                       __ZN6AriSdk35ARI_IBINetGetEmergencyCellIndCb_SDK4packEPP6AriMsg, 
                       __ZN6AriSdk35ARI_IBINetGetEmergencyCellIndCb_SDK6unpackEv, 
                       __ZN6AriSdk35ARI_IBINetGetEmergencyCellIndCb_SDKC1EPKhj, __ZN6AriSdk35ARI_IBINetGetEmergencyCellIndCb_SDKC1Ev, 
                       __ZN6AriSdk35ARI_IBINetGetEmergencyCellIndCb_SDKC2EPKhj, __ZN6AriSdk35ARI_IBINetGetEmergencyCellIndCb_SDKC2Ev, 
                       __ZN6AriSdk35ARI_IBINetGetEmergencyCellRspCb_SDK4packEPP6AriMsg, 
                       __ZN6AriSdk35ARI_IBINetGetEmergencyCellRspCb_SDK6unpackEv, 
                       __ZN6AriSdk35ARI_IBINetGetEmergencyCellRspCb_SDKC1EPKhj, __ZN6AriSdk35ARI_IBINetGetEmergencyCellRspCb_SDKC1Ev, 
                       __ZN6AriSdk35ARI_IBINetGetEmergencyCellRspCb_SDKC2EPKhj, __ZN6AriSdk35ARI_IBINetGetEmergencyCellRspCb_SDKC2Ev, 
                       __ZN6AriSdk35ARI_IBINetGetPlmnNameInfoReq_V1_SDK4packEPP6AriMsg, 
                       __ZN6AriSdk35ARI_IBINetGetPlmnNameInfoReq_V1_SDK6unpackEv, 
                       __ZN6AriSdk35ARI_IBINetGetPlmnNameInfoReq_V1_SDKC1EPKhj, __ZN6AriSdk35ARI_IBINetGetPlmnNameInfoReq_V1_SDKC1Ev, 
                       __ZN6AriSdk35ARI_IBINetGetPlmnNameInfoReq_V1_SDKC2EPKhj, __ZN6AriSdk35ARI_IBINetGetPlmnNameInfoReq_V1_SDKC2Ev, 
                       __ZN6AriSdk35ARI_IBINetRatSwitchStatusReport_SDK4packEPP6AriMsg, 
                       __ZN6AriSdk35ARI_IBINetRatSwitchStatusReport_SDK6unpackEv, 
                       __ZN6AriSdk35ARI_IBINetRatSwitchStatusReport_SDKC1EPKhj, __ZN6AriSdk35ARI_IBINetRatSwitchStatusReport_SDKC1Ev, 
                       __ZN6AriSdk35ARI_IBINetRatSwitchStatusReport_SDKC2EPKhj, __ZN6AriSdk35ARI_IBINetRatSwitchStatusReport_SDKC2Ev, 
                       __ZN6AriSdk35ARI_IBINetRegistrationInfoIndCb_SDK4packEPP6AriMsg, 
                       __ZN6AriSdk35ARI_IBINetRegistrationInfoIndCb_SDK6unpackEv, 
                       __ZN6AriSdk35ARI_IBINetRegistrationInfoIndCb_SDKC1EPKhj, __ZN6AriSdk35ARI_IBINetRegistrationInfoIndCb_SDKC1Ev, 
                       __ZN6AriSdk35ARI_IBINetRegistrationInfoIndCb_SDKC2EPKhj, __ZN6AriSdk35ARI_IBINetRegistrationInfoIndCb_SDKC2Ev, 
                       __ZN6AriSdk35ARI_IBISimAccessGetSimDataIndCb_SDK4packEPP6AriMsg, 
                       __ZN6AriSdk35ARI_IBISimAccessGetSimDataIndCb_SDK6unpackEv, 
                       __ZN6AriSdk35ARI_IBISimAccessGetSimDataIndCb_SDKC1EPKhj, __ZN6AriSdk35ARI_IBISimAccessGetSimDataIndCb_SDKC1Ev, 
                       __ZN6AriSdk35ARI_IBISimAccessGetSimDataIndCb_SDKC2EPKhj, __ZN6AriSdk35ARI_IBISimAccessGetSimDataIndCb_SDKC2Ev, 
                       __ZN6AriSdk35ARI_IBISimAccessGetSimDataRspCb_SDK4packEPP6AriMsg, 
                       __ZN6AriSdk35ARI_IBISimAccessGetSimDataRspCb_SDK6unpackEv, 
                       __ZN6AriSdk35ARI_IBISimAccessGetSimDataRspCb_SDKC1EPKhj, __ZN6AriSdk35ARI_IBISimAccessGetSimDataRspCb_SDKC1Ev, 
                       __ZN6AriSdk35ARI_IBISimAccessGetSimDataRspCb_SDKC2EPKhj, __ZN6AriSdk35ARI_IBISimAccessGetSimDataRspCb_SDKC2Ev, 
                       __ZN6AriSdk35ARI_IBISimAccessReadBinaryRspCb_SDK4packEPP6AriMsg, 
                       __ZN6AriSdk35ARI_IBISimAccessReadBinaryRspCb_SDK6unpackEv, 
                       __ZN6AriSdk35ARI_IBISimAccessReadBinaryRspCb_SDKC1EPKhj, __ZN6AriSdk35ARI_IBISimAccessReadBinaryRspCb_SDKC1Ev, 
                       __ZN6AriSdk35ARI_IBISimAccessReadBinaryRspCb_SDKC2EPKhj, __ZN6AriSdk35ARI_IBISimAccessReadBinaryRspCb_SDKC2Ev, 
                       __ZN6AriSdk35ARI_IBISimAccessReadRecordRspCb_SDK4packEPP6AriMsg, 
                       __ZN6AriSdk35ARI_IBISimAccessReadRecordRspCb_SDK6unpackEv, 
                       __ZN6AriSdk35ARI_IBISimAccessReadRecordRspCb_SDKC1EPKhj, __ZN6AriSdk35ARI_IBISimAccessReadRecordRspCb_SDKC1Ev, 
                       __ZN6AriSdk35ARI_IBISimAccessReadRecordRspCb_SDKC2EPKhj, __ZN6AriSdk35ARI_IBISimAccessReadRecordRspCb_SDKC2Ev, 
                       __ZN6AriSdk35ARI_IBISimAccessUpdateBinaryReq_SDK4packEPP6AriMsg, 
                       __ZN6AriSdk35ARI_IBISimAccessUpdateBinaryReq_SDK6unpackEv, 
                       __ZN6AriSdk35ARI_IBISimAccessUpdateBinaryReq_SDKC1EPKhj, __ZN6AriSdk35ARI_IBISimAccessUpdateBinaryReq_SDKC1Ev, 
                       __ZN6AriSdk35ARI_IBISimAccessUpdateBinaryReq_SDKC2EPKhj, __ZN6AriSdk35ARI_IBISimAccessUpdateBinaryReq_SDKC2Ev, 
                       __ZN6AriSdk35ARI_IBISimAccessUpdateRecordReq_SDK4packEPP6AriMsg, 
                       __ZN6AriSdk35ARI_IBISimAccessUpdateRecordReq_SDK6unpackEv, 
                       __ZN6AriSdk35ARI_IBISimAccessUpdateRecordReq_SDKC1EPKhj, __ZN6AriSdk35ARI_IBISimAccessUpdateRecordReq_SDKC1Ev, 
                       __ZN6AriSdk35ARI_IBISimAccessUpdateRecordReq_SDKC2EPKhj, __ZN6AriSdk35ARI_IBISimAccessUpdateRecordReq_SDKC2Ev, 
                       __ZN6AriSdk35ARI_IBISimFileUpdateBinaryRspCb_SDK4packEPP6AriMsg, 
                       __ZN6AriSdk35ARI_IBISimFileUpdateBinaryRspCb_SDK6unpackEv, 
                       __ZN6AriSdk35ARI_IBISimFileUpdateBinaryRspCb_SDKC1EPKhj, __ZN6AriSdk35ARI_IBISimFileUpdateBinaryRspCb_SDKC1Ev, 
                       __ZN6AriSdk35ARI_IBISimFileUpdateBinaryRspCb_SDKC2EPKhj, __ZN6AriSdk35ARI_IBISimFileUpdateBinaryRspCb_SDKC2Ev, 
                       __ZN6AriSdk35ARI_IBISimMsgWaitIndicatorIndCb_SDK4packEPP6AriMsg, 
                       __ZN6AriSdk35ARI_IBISimMsgWaitIndicatorIndCb_SDK6unpackEv, 
                       __ZN6AriSdk35ARI_IBISimMsgWaitIndicatorIndCb_SDKC1EPKhj, __ZN6AriSdk35ARI_IBISimMsgWaitIndicatorIndCb_SDKC1Ev, 
                       __ZN6AriSdk35ARI_IBISimMsgWaitIndicatorIndCb_SDKC2EPKhj, __ZN6AriSdk35ARI_IBISimMsgWaitIndicatorIndCb_SDKC2Ev, 
                       __ZN6AriSdk35ARI_IBISimPbGetFreeRecordsRspCb_SDK4packEPP6AriMsg, 
                       __ZN6AriSdk35ARI_IBISimPbGetFreeRecordsRspCb_SDK6unpackEv, 
                       __ZN6AriSdk35ARI_IBISimPbGetFreeRecordsRspCb_SDKC1EPKhj, __ZN6AriSdk35ARI_IBISimPbGetFreeRecordsRspCb_SDKC1Ev, 
                       __ZN6AriSdk35ARI_IBISimPbGetFreeRecordsRspCb_SDKC2EPKhj, __ZN6AriSdk35ARI_IBISimPbGetFreeRecordsRspCb_SDKC2Ev, 
                       __ZN6AriSdk35ARI_IBISimPbGetLocationRspCb_V1_SDK4packEPP6AriMsg, 
                       __ZN6AriSdk35ARI_IBISimPbGetLocationRspCb_V1_SDK6unpackEv, 
                       __ZN6AriSdk35ARI_IBISimPbGetLocationRspCb_V1_SDKC1EPKhj, __ZN6AriSdk35ARI_IBISimPbGetLocationRspCb_V1_SDKC1Ev, 
                       __ZN6AriSdk35ARI_IBISimPbGetLocationRspCb_V1_SDKC2EPKhj, __ZN6AriSdk35ARI_IBISimPbGetLocationRspCb_V1_SDKC2Ev, 
                       __ZN6AriSdk35ARI_IBISimPbReadEmailEntryIndCb_SDK4packEPP6AriMsg, 
                       __ZN6AriSdk35ARI_IBISimPbReadEmailEntryIndCb_SDK6unpackEv, 
                       __ZN6AriSdk35ARI_IBISimPbReadEmailEntryIndCb_SDKC1EPKhj, __ZN6AriSdk35ARI_IBISimPbReadEmailEntryIndCb_SDKC1Ev, 
                       __ZN6AriSdk35ARI_IBISimPbReadEmailEntryIndCb_SDKC2EPKhj, __ZN6AriSdk35ARI_IBISimPbReadEmailEntryIndCb_SDKC2Ev, 
                       __ZN6AriSdk35ARI_IBISimTkImsCallControlRspCb_SDK4packEPP6AriMsg, 
                       __ZN6AriSdk35ARI_IBISimTkImsCallControlRspCb_SDK6unpackEv, 
                       __ZN6AriSdk35ARI_IBISimTkImsCallControlRspCb_SDKC1EPKhj, __ZN6AriSdk35ARI_IBISimTkImsCallControlRspCb_SDKC1Ev, 
                       __ZN6AriSdk35ARI_IBISimTkImsCallControlRspCb_SDKC2EPKhj, __ZN6AriSdk35ARI_IBISimTkImsCallControlRspCb_SDKC2Ev, 
                       __ZN6AriSdk35ARI_IBISimTkRefreshConfirmIndCb_SDK4packEPP6AriMsg, 
                       __ZN6AriSdk35ARI_IBISimTkRefreshConfirmIndCb_SDK6unpackEv, 
                       __ZN6AriSdk35ARI_IBISimTkRefreshConfirmIndCb_SDKC1EPKhj, __ZN6AriSdk35ARI_IBISimTkRefreshConfirmIndCb_SDKC1Ev, 
                       __ZN6AriSdk35ARI_IBISimTkRefreshConfirmIndCb_SDKC2EPKhj, __ZN6AriSdk35ARI_IBISimTkRefreshConfirmIndCb_SDKC2Ev, 
                       __ZN6AriSdk35ARI_IBISimTkResetCompletedIndCb_SDK4packEPP6AriMsg, 
                       __ZN6AriSdk35ARI_IBISimTkResetCompletedIndCb_SDK6unpackEv, 
                       __ZN6AriSdk35ARI_IBISimTkResetCompletedIndCb_SDKC1EPKhj, __ZN6AriSdk35ARI_IBISimTkResetCompletedIndCb_SDKC1Ev, 
                       __ZN6AriSdk35ARI_IBISimTkResetCompletedIndCb_SDKC2EPKhj, __ZN6AriSdk35ARI_IBISimTkResetCompletedIndCb_SDKC2Ev, 
                       __ZN6AriSdk35ARI_IBISmsGetServiceStatusRspCb_SDK4packEPP6AriMsg, 
                       __ZN6AriSdk35ARI_IBISmsGetServiceStatusRspCb_SDK6unpackEv, 
                       __ZN6AriSdk35ARI_IBISmsGetServiceStatusRspCb_SDKC1EPKhj, __ZN6AriSdk35ARI_IBISmsGetServiceStatusRspCb_SDKC1Ev, 
                       __ZN6AriSdk35ARI_IBISmsGetServiceStatusRspCb_SDKC2EPKhj, __ZN6AriSdk35ARI_IBISmsGetServiceStatusRspCb_SDKC2Ev, 
                       __ZN6AriSdk35ARI_IBISmsSetMemoryAvailableReq_SDK4packEPP6AriMsg, 
                       __ZN6AriSdk35ARI_IBISmsSetMemoryAvailableReq_SDK6unpackEv, 
                       __ZN6AriSdk35ARI_IBISmsSetMemoryAvailableReq_SDKC1EPKhj, __ZN6AriSdk35ARI_IBISmsSetMemoryAvailableReq_SDKC1Ev, 
                       __ZN6AriSdk35ARI_IBISmsSetMemoryAvailableReq_SDKC2EPKhj, __ZN6AriSdk35ARI_IBISmsSetMemoryAvailableReq_SDKC2Ev, 
                       __ZN6AriSdk36ARI_AriUtaMsCallCsSetupCallRspCb_SDK4packEPP6AriMsg, 
                       __ZN6AriSdk36ARI_AriUtaMsCallCsSetupCallRspCb_SDK6unpackEv, 
                       __ZN6AriSdk36ARI_AriUtaMsCallCsSetupCallRspCb_SDKC1EPKhj, 
                       __ZN6AriSdk36ARI_AriUtaMsCallCsSetupCallRspCb_SDKC1Ev, __ZN6AriSdk36ARI_AriUtaMsCallCsSetupCallRspCb_SDKC2EPKhj, 
                       __ZN6AriSdk36ARI_AriUtaMsCallCsSetupCallRspCb_SDKC2Ev, __ZN6AriSdk36ARI_CsiBmmProvideBootTimeInfoReq_SDK4packEPP6AriMsg, 
                       __ZN6AriSdk36ARI_CsiBmmProvideBootTimeInfoReq_SDK6unpackEv, 
                       __ZN6AriSdk36ARI_CsiBmmProvideBootTimeInfoReq_SDKC1EPKhj, 
                       __ZN6AriSdk36ARI_CsiBmmProvideBootTimeInfoReq_SDKC1Ev, __ZN6AriSdk36ARI_CsiBmmProvideBootTimeInfoReq_SDKC2EPKhj, 
                       __ZN6AriSdk36ARI_CsiBmmProvideBootTimeInfoReq_SDKC2Ev, __ZN6AriSdk36ARI_CsiBspNvmGroupEnumListRespCb_SDK4packEPP6AriMsg, 
                       __ZN6AriSdk36ARI_CsiBspNvmGroupEnumListRespCb_SDK6unpackEv, 
                       __ZN6AriSdk36ARI_CsiBspNvmGroupEnumListRespCb_SDKC1EPKhj, 
                       __ZN6AriSdk36ARI_CsiBspNvmGroupEnumListRespCb_SDKC1Ev, __ZN6AriSdk36ARI_CsiBspNvmGroupEnumListRespCb_SDKC2EPKhj, 
                       __ZN6AriSdk36ARI_CsiBspNvmGroupEnumListRespCb_SDKC2Ev, __ZN6AriSdk36ARI_CsiBspSetNvItemsToStateRspCb_SDK4packEPP6AriMsg, 
                       __ZN6AriSdk36ARI_CsiBspSetNvItemsToStateRspCb_SDK6unpackEv, 
                       __ZN6AriSdk36ARI_CsiBspSetNvItemsToStateRspCb_SDKC1EPKhj, 
                       __ZN6AriSdk36ARI_CsiBspSetNvItemsToStateRspCb_SDKC1Ev, __ZN6AriSdk36ARI_CsiBspSetNvItemsToStateRspCb_SDKC2EPKhj, 
                       __ZN6AriSdk36ARI_CsiBspSetNvItemsToStateRspCb_SDKC2Ev, __ZN6AriSdk36ARI_CsiIceAudEnableLoopbackHWReq_SDK4packEPP6AriMsg, 
                       __ZN6AriSdk36ARI_CsiIceAudEnableLoopbackHWReq_SDK6unpackEv, 
                       __ZN6AriSdk36ARI_CsiIceAudEnableLoopbackHWReq_SDKC1EPKhj, 
                       __ZN6AriSdk36ARI_CsiIceAudEnableLoopbackHWReq_SDKC1Ev, __ZN6AriSdk36ARI_CsiIceAudEnableLoopbackHWReq_SDKC2EPKhj, 
                       __ZN6AriSdk36ARI_CsiIceAudEnableLoopbackHWReq_SDKC2Ev, __ZN6AriSdk36ARI_CsiSahClearCrashResportRspCb_SDK4packEPP6AriMsg, 
                       __ZN6AriSdk36ARI_CsiSahClearCrashResportRspCb_SDK6unpackEv, 
                       __ZN6AriSdk36ARI_CsiSahClearCrashResportRspCb_SDKC1EPKhj, 
                       __ZN6AriSdk36ARI_CsiSahClearCrashResportRspCb_SDKC1Ev, __ZN6AriSdk36ARI_CsiSahClearCrashResportRspCb_SDKC2EPKhj, 
                       __ZN6AriSdk36ARI_CsiSahClearCrashResportRspCb_SDKC2Ev, __ZN6AriSdk36ARI_CsiSahClearExceptionStoreReq_SDK4packEPP6AriMsg, 
                       __ZN6AriSdk36ARI_CsiSahClearExceptionStoreReq_SDK6unpackEv, 
                       __ZN6AriSdk36ARI_CsiSahClearExceptionStoreReq_SDKC1EPKhj, 
                       __ZN6AriSdk36ARI_CsiSahClearExceptionStoreReq_SDKC1Ev, __ZN6AriSdk36ARI_CsiSahClearExceptionStoreReq_SDKC2EPKhj, 
                       __ZN6AriSdk36ARI_CsiSahClearExceptionStoreReq_SDKC2Ev, __ZN6AriSdk36ARI_IBICallCsSetTtyDeviceModeReq_SDK4packEPP6AriMsg, 
                       __ZN6AriSdk36ARI_IBICallCsSetTtyDeviceModeReq_SDK6unpackEv, 
                       __ZN6AriSdk36ARI_IBICallCsSetTtyDeviceModeReq_SDKC1EPKhj, 
                       __ZN6AriSdk36ARI_IBICallCsSetTtyDeviceModeReq_SDKC1Ev, __ZN6AriSdk36ARI_IBICallCsSetTtyDeviceModeReq_SDKC2EPKhj, 
                       __ZN6AriSdk36ARI_IBICallCsSetTtyDeviceModeReq_SDKC2Ev, __ZN6AriSdk36ARI_IBICallPsActivateStatusIndCb_SDK4packEPP6AriMsg, 
                       __ZN6AriSdk36ARI_IBICallPsActivateStatusIndCb_SDK6unpackEv, 
                       __ZN6AriSdk36ARI_IBICallPsActivateStatusIndCb_SDKC1EPKhj, 
                       __ZN6AriSdk36ARI_IBICallPsActivateStatusIndCb_SDKC1Ev, __ZN6AriSdk36ARI_IBICallPsActivateStatusIndCb_SDKC2EPKhj, 
                       __ZN6AriSdk36ARI_IBICallPsActivateStatusIndCb_SDKC2Ev, __ZN6AriSdk36ARI_IBICallPsDataTransferTimeReq_SDK4packEPP6AriMsg, 
                       __ZN6AriSdk36ARI_IBICallPsDataTransferTimeReq_SDK6unpackEv, 
                       __ZN6AriSdk36ARI_IBICallPsDataTransferTimeReq_SDKC1EPKhj, 
                       __ZN6AriSdk36ARI_IBICallPsDataTransferTimeReq_SDKC1Ev, __ZN6AriSdk36ARI_IBICallPsDataTransferTimeReq_SDKC2EPKhj, 
                       __ZN6AriSdk36ARI_IBICallPsDataTransferTimeReq_SDKC2Ev, __ZN6AriSdk36ARI_IBIImsMEMediaSessionErrIndCb_SDK4packEPP6AriMsg, 
                       __ZN6AriSdk36ARI_IBIImsMEMediaSessionErrIndCb_SDK6unpackEv, 
                       __ZN6AriSdk36ARI_IBIImsMEMediaSessionErrIndCb_SDKC1EPKhj, 
                       __ZN6AriSdk36ARI_IBIImsMEMediaSessionErrIndCb_SDKC1Ev, __ZN6AriSdk36ARI_IBIImsMEMediaSessionErrIndCb_SDKC2EPKhj, 
                       __ZN6AriSdk36ARI_IBIImsMEMediaSessionErrIndCb_SDKC2Ev, __ZN6AriSdk36ARI_IBIMsAccCurrentFreqInfoIndCb_SDK4packEPP6AriMsg, 
                       __ZN6AriSdk36ARI_IBIMsAccCurrentFreqInfoIndCb_SDK6unpackEv, 
                       __ZN6AriSdk36ARI_IBIMsAccCurrentFreqInfoIndCb_SDKC1EPKhj, 
                       __ZN6AriSdk36ARI_IBIMsAccCurrentFreqInfoIndCb_SDKC1Ev, __ZN6AriSdk36ARI_IBIMsAccCurrentFreqInfoIndCb_SDKC2EPKhj, 
                       __ZN6AriSdk36ARI_IBIMsAccCurrentFreqInfoIndCb_SDKC2Ev, __ZN6AriSdk36ARI_IBIMsAccCurrentFreqInfoRspCb_SDK4packEPP6AriMsg, 
                       __ZN6AriSdk36ARI_IBIMsAccCurrentFreqInfoRspCb_SDK6unpackEv, 
                       __ZN6AriSdk36ARI_IBIMsAccCurrentFreqInfoRspCb_SDKC1EPKhj, 
                       __ZN6AriSdk36ARI_IBIMsAccCurrentFreqInfoRspCb_SDKC1Ev, __ZN6AriSdk36ARI_IBIMsAccCurrentFreqInfoRspCb_SDKC2EPKhj, 
                       __ZN6AriSdk36ARI_IBIMsAccCurrentFreqInfoRspCb_SDKC2Ev, __ZN6AriSdk36ARI_IBIMsLpGanssAddUtcModelIndCb_SDK4packEPP6AriMsg, 
                       __ZN6AriSdk36ARI_IBIMsLpGanssAddUtcModelIndCb_SDK6unpackEv, 
                       __ZN6AriSdk36ARI_IBIMsLpGanssAddUtcModelIndCb_SDKC1EPKhj, 
                       __ZN6AriSdk36ARI_IBIMsLpGanssAddUtcModelIndCb_SDKC1Ev, __ZN6AriSdk36ARI_IBIMsLpGanssAddUtcModelIndCb_SDKC2EPKhj, 
                       __ZN6AriSdk36ARI_IBIMsLpGanssAddUtcModelIndCb_SDKC2Ev, __ZN6AriSdk36ARI_IBIMsLpGpsReferenceTimeIndCb_SDK4packEPP6AriMsg, 
                       __ZN6AriSdk36ARI_IBIMsLpGpsReferenceTimeIndCb_SDK6unpackEv, 
                       __ZN6AriSdk36ARI_IBIMsLpGpsReferenceTimeIndCb_SDKC1EPKhj, 
                       __ZN6AriSdk36ARI_IBIMsLpGpsReferenceTimeIndCb_SDKC1Ev, __ZN6AriSdk36ARI_IBIMsLpGpsReferenceTimeIndCb_SDKC2EPKhj, 
                       __ZN6AriSdk36ARI_IBIMsLpGpsReferenceTimeIndCb_SDKC2Ev, __ZN6AriSdk36ARI_IBIMsNetIceCsgAsfSearchCnfCb_SDK4packEPP6AriMsg, 
                       __ZN6AriSdk36ARI_IBIMsNetIceCsgAsfSearchCnfCb_SDK6unpackEv, 
                       __ZN6AriSdk36ARI_IBIMsNetIceCsgAsfSearchCnfCb_SDKC1EPKhj, 
                       __ZN6AriSdk36ARI_IBIMsNetIceCsgAsfSearchCnfCb_SDKC1Ev, __ZN6AriSdk36ARI_IBIMsNetIceCsgAsfSearchCnfCb_SDKC2EPKhj, 
                       __ZN6AriSdk36ARI_IBIMsNetIceCsgAsfSearchCnfCb_SDKC2Ev, __ZN6AriSdk36ARI_IBINetDcSsacBarringInfoIndCb_SDK4packEPP6AriMsg, 
                       __ZN6AriSdk36ARI_IBINetDcSsacBarringInfoIndCb_SDK6unpackEv, 
                       __ZN6AriSdk36ARI_IBINetDcSsacBarringInfoIndCb_SDKC1EPKhj, 
                       __ZN6AriSdk36ARI_IBINetDcSsacBarringInfoIndCb_SDKC1Ev, __ZN6AriSdk36ARI_IBINetDcSsacBarringInfoIndCb_SDKC2EPKhj, 
                       __ZN6AriSdk36ARI_IBINetDcSsacBarringInfoIndCb_SDKC2Ev, __ZN6AriSdk36ARI_IBINetDcSsacBarringInfoRspCb_SDK4packEPP6AriMsg, 
                       __ZN6AriSdk36ARI_IBINetDcSsacBarringInfoRspCb_SDK6unpackEv, 
                       __ZN6AriSdk36ARI_IBINetDcSsacBarringInfoRspCb_SDKC1EPKhj, 
                       __ZN6AriSdk36ARI_IBINetDcSsacBarringInfoRspCb_SDKC1Ev, __ZN6AriSdk36ARI_IBINetDcSsacBarringInfoRspCb_SDKC2EPKhj, 
                       __ZN6AriSdk36ARI_IBINetDcSsacBarringInfoRspCb_SDKC2Ev, __ZN6AriSdk36ARI_IBINetGetRegistrationInfoReq_SDK4packEPP6AriMsg, 
                       __ZN6AriSdk36ARI_IBINetGetRegistrationInfoReq_SDK6unpackEv, 
                       __ZN6AriSdk36ARI_IBINetGetRegistrationInfoReq_SDKC1EPKhj, 
                       __ZN6AriSdk36ARI_IBINetGetRegistrationInfoReq_SDKC1Ev, __ZN6AriSdk36ARI_IBINetGetRegistrationInfoReq_SDKC2EPKhj, 
                       __ZN6AriSdk36ARI_IBINetGetRegistrationInfoReq_SDKC2Ev, __ZN6AriSdk36ARI_IBINetGetRrcConnStateInfoReq_SDK4packEPP6AriMsg, 
                       __ZN6AriSdk36ARI_IBINetGetRrcConnStateInfoReq_SDK6unpackEv, 
                       __ZN6AriSdk36ARI_IBINetGetRrcConnStateInfoReq_SDKC1EPKhj, 
                       __ZN6AriSdk36ARI_IBINetGetRrcConnStateInfoReq_SDKC1Ev, __ZN6AriSdk36ARI_IBINetGetRrcConnStateInfoReq_SDKC2EPKhj, 
                       __ZN6AriSdk36ARI_IBINetGetRrcConnStateInfoReq_SDKC2Ev, __ZN6AriSdk36ARI_IBINetIceManualPlmnModeIndCb_SDK4packEPP6AriMsg, 
                       __ZN6AriSdk36ARI_IBINetIceManualPlmnModeIndCb_SDK6unpackEv, 
                       __ZN6AriSdk36ARI_IBINetIceManualPlmnModeIndCb_SDKC1EPKhj, 
                       __ZN6AriSdk36ARI_IBINetIceManualPlmnModeIndCb_SDKC1Ev, __ZN6AriSdk36ARI_IBINetIceManualPlmnModeIndCb_SDKC2EPKhj, 
                       __ZN6AriSdk36ARI_IBINetIceManualPlmnModeIndCb_SDKC2Ev, __ZN6AriSdk36ARI_IBINetNetworkModeChangeIndCb_SDK4packEPP6AriMsg, 
                       __ZN6AriSdk36ARI_IBINetNetworkModeChangeIndCb_SDK6unpackEv, 
                       __ZN6AriSdk36ARI_IBINetNetworkModeChangeIndCb_SDKC1EPKhj, 
                       __ZN6AriSdk36ARI_IBINetNetworkModeChangeIndCb_SDKC1Ev, __ZN6AriSdk36ARI_IBINetNetworkModeChangeIndCb_SDKC2EPKhj, 
                       __ZN6AriSdk36ARI_IBINetNetworkModeChangeIndCb_SDKC2Ev, __ZN6AriSdk36ARI_IBINetSelectPreferredService_SDK4packEPP6AriMsg, 
                       __ZN6AriSdk36ARI_IBINetSelectPreferredService_SDK6unpackEv, 
                       __ZN6AriSdk36ARI_IBINetSelectPreferredService_SDKC1EPKhj, 
                       __ZN6AriSdk36ARI_IBINetSelectPreferredService_SDKC1Ev, __ZN6AriSdk36ARI_IBINetSelectPreferredService_SDKC2EPKhj, 
                       __ZN6AriSdk36ARI_IBINetSelectPreferredService_SDKC2Ev, __ZN6AriSdk36ARI_IBISimGetFullAccessStatusReq_SDK4packEPP6AriMsg, 
                       __ZN6AriSdk36ARI_IBISimGetFullAccessStatusReq_SDK6unpackEv, 
                       __ZN6AriSdk36ARI_IBISimGetFullAccessStatusReq_SDKC1EPKhj, 
                       __ZN6AriSdk36ARI_IBISimGetFullAccessStatusReq_SDKC1Ev, __ZN6AriSdk36ARI_IBISimGetFullAccessStatusReq_SDKC2EPKhj, 
                       __ZN6AriSdk36ARI_IBISimGetFullAccessStatusReq_SDKC2Ev, __ZN6AriSdk36ARI_IBISimPbUsimPbSelectIndCb_V1_SDK4packEPP6AriMsg, 
                       __ZN6AriSdk36ARI_IBISimPbUsimPbSelectIndCb_V1_SDK6unpackEv, 
                       __ZN6AriSdk36ARI_IBISimPbUsimPbSelectIndCb_V1_SDKC1EPKhj, 
                       __ZN6AriSdk36ARI_IBISimPbUsimPbSelectIndCb_V1_SDKC1Ev, __ZN6AriSdk36ARI_IBISimPbUsimPbSelectIndCb_V1_SDKC2EPKhj, 
                       __ZN6AriSdk36ARI_IBISimPbUsimPbSelectIndCb_V1_SDKC2Ev, __ZN6AriSdk36ARI_IBISimPbUsimPbSelectRspCb_V1_SDK4packEPP6AriMsg, 
                       __ZN6AriSdk36ARI_IBISimPbUsimPbSelectRspCb_V1_SDK6unpackEv, 
                       __ZN6AriSdk36ARI_IBISimPbUsimPbSelectRspCb_V1_SDKC1EPKhj, 
                       __ZN6AriSdk36ARI_IBISimPbUsimPbSelectRspCb_V1_SDKC1Ev, __ZN6AriSdk36ARI_IBISimPbUsimPbSelectRspCb_V1_SDKC2EPKhj, 
                       __ZN6AriSdk36ARI_IBISimPbUsimPbSelectRspCb_V1_SDKC2Ev, __ZN6AriSdk36ARI_IBISimTkCallControlInfoIndCb_SDK4packEPP6AriMsg, 
                       __ZN6AriSdk36ARI_IBISimTkCallControlInfoIndCb_SDK6unpackEv, 
                       __ZN6AriSdk36ARI_IBISimTkCallControlInfoIndCb_SDKC1EPKhj, 
                       __ZN6AriSdk36ARI_IBISimTkCallControlInfoIndCb_SDKC1Ev, __ZN6AriSdk36ARI_IBISimTkCallControlInfoIndCb_SDKC2EPKhj, 
                       __ZN6AriSdk36ARI_IBISimTkCallControlInfoIndCb_SDKC2Ev, __ZN6AriSdk36ARI_IBISimTkConfigureStkCmdRspCb_SDK4packEPP6AriMsg, 
                       __ZN6AriSdk36ARI_IBISimTkConfigureStkCmdRspCb_SDK6unpackEv, 
                       __ZN6AriSdk36ARI_IBISimTkConfigureStkCmdRspCb_SDKC1EPKhj, 
                       __ZN6AriSdk36ARI_IBISimTkConfigureStkCmdRspCb_SDKC1Ev, __ZN6AriSdk36ARI_IBISimTkConfigureStkCmdRspCb_SDKC2EPKhj, 
                       __ZN6AriSdk36ARI_IBISimTkConfigureStkCmdRspCb_SDKC2Ev, __ZN6AriSdk36ARI_IBISimTkEnvelopeCommandRspCb_SDK4packEPP6AriMsg, 
                       __ZN6AriSdk36ARI_IBISimTkEnvelopeCommandRspCb_SDK6unpackEv, 
                       __ZN6AriSdk36ARI_IBISimTkEnvelopeCommandRspCb_SDKC1EPKhj, 
                       __ZN6AriSdk36ARI_IBISimTkEnvelopeCommandRspCb_SDKC1Ev, __ZN6AriSdk36ARI_IBISimTkEnvelopeCommandRspCb_SDKC2EPKhj, 
                       __ZN6AriSdk36ARI_IBISimTkEnvelopeCommandRspCb_SDKC2Ev, __ZN6AriSdk36ARI_IBISipMessageInjectToCpTrace_SDK4packEPP6AriMsg, 
                       __ZN6AriSdk36ARI_IBISipMessageInjectToCpTrace_SDK6unpackEv, 
                       __ZN6AriSdk36ARI_IBISipMessageInjectToCpTrace_SDKC1EPKhj, 
                       __ZN6AriSdk36ARI_IBISipMessageInjectToCpTrace_SDKC1Ev, __ZN6AriSdk36ARI_IBISipMessageInjectToCpTrace_SDKC2EPKhj, 
                       __ZN6AriSdk36ARI_IBISipMessageInjectToCpTrace_SDKC2Ev, __ZN6AriSdk36ARI_UtaMsCallCsSetupVoiceCallReq_SDK4packEPP6AriMsg, 
                       __ZN6AriSdk36ARI_UtaMsCallCsSetupVoiceCallReq_SDK6unpackEv, 
                       __ZN6AriSdk36ARI_UtaMsCallCsSetupVoiceCallReq_SDKC1EPKhj, 
                       __ZN6AriSdk36ARI_UtaMsCallCsSetupVoiceCallReq_SDKC1Ev, __ZN6AriSdk36ARI_UtaMsCallCsSetupVoiceCallReq_SDKC2EPKhj, 
                       __ZN6AriSdk36ARI_UtaMsCallCsSetupVoiceCallReq_SDKC2Ev, __ZN6AriSdk37ARI_CsiBspGetCalibrationStatusReq_SDK4packEPP6AriMsg, 
                       __ZN6AriSdk37ARI_CsiBspGetCalibrationStatusReq_SDK6unpackEv, 
                       __ZN6AriSdk37ARI_CsiBspGetCalibrationStatusReq_SDKC1EPKhj, 
                       __ZN6AriSdk37ARI_CsiBspGetCalibrationStatusReq_SDKC1Ev, __ZN6AriSdk37ARI_CsiBspGetCalibrationStatusReq_SDKC2EPKhj, 
                       __ZN6AriSdk37ARI_CsiBspGetCalibrationStatusReq_SDKC2Ev, __ZN6AriSdk37ARI_CsiBspNvmReadGroupBlockRespCb_SDK4packEPP6AriMsg, 
                       __ZN6AriSdk37ARI_CsiBspNvmReadGroupBlockRespCb_SDK6unpackEv, 
                       __ZN6AriSdk37ARI_CsiBspNvmReadGroupBlockRespCb_SDKC1EPKhj, 
                       __ZN6AriSdk37ARI_CsiBspNvmReadGroupBlockRespCb_SDKC1Ev, __ZN6AriSdk37ARI_CsiBspNvmReadGroupBlockRespCb_SDKC2EPKhj, 
                       __ZN6AriSdk37ARI_CsiBspNvmReadGroupBlockRespCb_SDKC2Ev, __ZN6AriSdk37ARI_CsiIceAccessoryStateArtdRspCb_SDK4packEPP6AriMsg, 
                       __ZN6AriSdk37ARI_CsiIceAccessoryStateArtdRspCb_SDK6unpackEv, 
                       __ZN6AriSdk37ARI_CsiIceAccessoryStateArtdRspCb_SDKC1EPKhj, 
                       __ZN6AriSdk37ARI_CsiIceAccessoryStateArtdRspCb_SDKC1Ev, __ZN6AriSdk37ARI_CsiIceAccessoryStateArtdRspCb_SDKC2EPKhj, 
                       __ZN6AriSdk37ARI_CsiIceAccessoryStateArtdRspCb_SDKC2Ev, __ZN6AriSdk37ARI_CsiIceAudDisableLoopbackHWReq_SDK4packEPP6AriMsg, 
                       __ZN6AriSdk37ARI_CsiIceAudDisableLoopbackHWReq_SDK6unpackEv, 
                       __ZN6AriSdk37ARI_CsiIceAudDisableLoopbackHWReq_SDKC1EPKhj, 
                       __ZN6AriSdk37ARI_CsiIceAudDisableLoopbackHWReq_SDKC1Ev, __ZN6AriSdk37ARI_CsiIceAudDisableLoopbackHWReq_SDKC2EPKhj, 
                       __ZN6AriSdk37ARI_CsiIceAudDisableLoopbackHWReq_SDKC2Ev, __ZN6AriSdk37ARI_CsiIceBBTxStateIndEnableRspCb_SDK4packEPP6AriMsg, 
                       __ZN6AriSdk37ARI_CsiIceBBTxStateIndEnableRspCb_SDK6unpackEv, 
                       __ZN6AriSdk37ARI_CsiIceBBTxStateIndEnableRspCb_SDKC1EPKhj, 
                       __ZN6AriSdk37ARI_CsiIceBBTxStateIndEnableRspCb_SDKC1Ev, __ZN6AriSdk37ARI_CsiIceBBTxStateIndEnableRspCb_SDKC2EPKhj, 
                       __ZN6AriSdk37ARI_CsiIceBBTxStateIndEnableRspCb_SDKC2Ev, __ZN6AriSdk37ARI_CsiIceBspSetApWakeIntervalReq_SDK4packEPP6AriMsg, 
                       __ZN6AriSdk37ARI_CsiIceBspSetApWakeIntervalReq_SDK6unpackEv, 
                       __ZN6AriSdk37ARI_CsiIceBspSetApWakeIntervalReq_SDKC1EPKhj, 
                       __ZN6AriSdk37ARI_CsiIceBspSetApWakeIntervalReq_SDKC1Ev, __ZN6AriSdk37ARI_CsiIceBspSetApWakeIntervalReq_SDKC2EPKhj, 
                       __ZN6AriSdk37ARI_CsiIceBspSetApWakeIntervalReq_SDKC2Ev, __ZN6AriSdk37ARI_CsiIpcCtrlPathTestDataOpRspCb_SDK4packEPP6AriMsg, 
                       __ZN6AriSdk37ARI_CsiIpcCtrlPathTestDataOpRspCb_SDK6unpackEv, 
                       __ZN6AriSdk37ARI_CsiIpcCtrlPathTestDataOpRspCb_SDKC1EPKhj, 
                       __ZN6AriSdk37ARI_CsiIpcCtrlPathTestDataOpRspCb_SDKC1Ev, __ZN6AriSdk37ARI_CsiIpcCtrlPathTestDataOpRspCb_SDKC2EPKhj, 
                       __ZN6AriSdk37ARI_CsiIpcCtrlPathTestDataOpRspCb_SDKC2Ev, __ZN6AriSdk37ARI_CsiIpcCtrlPathTestSendDataReq_SDK4packEPP6AriMsg, 
                       __ZN6AriSdk37ARI_CsiIpcCtrlPathTestSendDataReq_SDK6unpackEv, 
                       __ZN6AriSdk37ARI_CsiIpcCtrlPathTestSendDataReq_SDKC1EPKhj, 
                       __ZN6AriSdk37ARI_CsiIpcCtrlPathTestSendDataReq_SDKC1Ev, __ZN6AriSdk37ARI_CsiIpcCtrlPathTestSendDataReq_SDKC2EPKhj, 
                       __ZN6AriSdk37ARI_CsiIpcCtrlPathTestSendDataReq_SDKC2Ev, __ZN6AriSdk37ARI_CsiIpcCtrlPathTestSrcCfgRspCb_SDK4packEPP6AriMsg, 
                       __ZN6AriSdk37ARI_CsiIpcCtrlPathTestSrcCfgRspCb_SDK6unpackEv, 
                       __ZN6AriSdk37ARI_CsiIpcCtrlPathTestSrcCfgRspCb_SDKC1EPKhj, 
                       __ZN6AriSdk37ARI_CsiIpcCtrlPathTestSrcCfgRspCb_SDKC1Ev, __ZN6AriSdk37ARI_CsiIpcCtrlPathTestSrcCfgRspCb_SDKC2EPKhj, 
                       __ZN6AriSdk37ARI_CsiIpcCtrlPathTestSrcCfgRspCb_SDKC2Ev, __ZN6AriSdk37ARI_CsiIpcCtrlPathTestUnInitRspCb_SDK4packEPP6AriMsg, 
                       __ZN6AriSdk37ARI_CsiIpcCtrlPathTestUnInitRspCb_SDK6unpackEv, 
                       __ZN6AriSdk37ARI_CsiIpcCtrlPathTestUnInitRspCb_SDKC1EPKhj, 
                       __ZN6AriSdk37ARI_CsiIpcCtrlPathTestUnInitRspCb_SDKC1Ev, __ZN6AriSdk37ARI_CsiIpcCtrlPathTestUnInitRspCb_SDKC2EPKhj, 
                       __ZN6AriSdk37ARI_CsiIpcCtrlPathTestUnInitRspCb_SDKC2Ev, __ZN6AriSdk37ARI_CsiPowSleepSetSleepBlockerReq_SDK4packEPP6AriMsg, 
                       __ZN6AriSdk37ARI_CsiPowSleepSetSleepBlockerReq_SDK6unpackEv, 
                       __ZN6AriSdk37ARI_CsiPowSleepSetSleepBlockerReq_SDKC1EPKhj, 
                       __ZN6AriSdk37ARI_CsiPowSleepSetSleepBlockerReq_SDKC1Ev, __ZN6AriSdk37ARI_CsiPowSleepSetSleepBlockerReq_SDKC2EPKhj, 
                       __ZN6AriSdk37ARI_CsiPowSleepSetSleepBlockerReq_SDKC2Ev, __ZN6AriSdk37ARI_IBICallCsCallingNameInfoIndCb_SDK4packEPP6AriMsg, 
                       __ZN6AriSdk37ARI_IBICallCsCallingNameInfoIndCb_SDK6unpackEv, 
                       __ZN6AriSdk37ARI_IBICallCsCallingNameInfoIndCb_SDKC1EPKhj, 
                       __ZN6AriSdk37ARI_IBICallCsCallingNameInfoIndCb_SDKC1Ev, __ZN6AriSdk37ARI_IBICallCsCallingNameInfoIndCb_SDKC2EPKhj, 
                       __ZN6AriSdk37ARI_IBICallCsCallingNameInfoIndCb_SDKC2Ev, __ZN6AriSdk37ARI_IBICallCsSetupVoiceCallReq_V1_SDK4packEPP6AriMsg, 
                       __ZN6AriSdk37ARI_IBICallCsSetupVoiceCallReq_V1_SDK6unpackEv, 
                       __ZN6AriSdk37ARI_IBICallCsSetupVoiceCallReq_V1_SDKC1EPKhj, 
                       __ZN6AriSdk37ARI_IBICallCsSetupVoiceCallReq_V1_SDKC1Ev, __ZN6AriSdk37ARI_IBICallCsSetupVoiceCallReq_V1_SDKC2EPKhj, 
                       __ZN6AriSdk37ARI_IBICallCsSetupVoiceCallReq_V1_SDKC2Ev, __ZN6AriSdk37ARI_IBICallPsAttachApnConfigRspCb_SDK4packEPP6AriMsg, 
                       __ZN6AriSdk37ARI_IBICallPsAttachApnConfigRspCb_SDK6unpackEv, 
                       __ZN6AriSdk37ARI_IBICallPsAttachApnConfigRspCb_SDKC1EPKhj, 
                       __ZN6AriSdk37ARI_IBICallPsAttachApnConfigRspCb_SDKC1Ev, __ZN6AriSdk37ARI_IBICallPsAttachApnConfigRspCb_SDKC2EPKhj, 
                       __ZN6AriSdk37ARI_IBICallPsAttachApnConfigRspCb_SDKC2Ev, __ZN6AriSdk37ARI_IBICallPsDataCallStoppedIndCb_SDK4packEPP6AriMsg, 
                       __ZN6AriSdk37ARI_IBICallPsDataCallStoppedIndCb_SDK6unpackEv, 
                       __ZN6AriSdk37ARI_IBICallPsDataCallStoppedIndCb_SDKC1EPKhj, 
                       __ZN6AriSdk37ARI_IBICallPsDataCallStoppedIndCb_SDKC1Ev, __ZN6AriSdk37ARI_IBICallPsDataCallStoppedIndCb_SDKC2EPKhj, 
                       __ZN6AriSdk37ARI_IBICallPsDataCallStoppedIndCb_SDKC2Ev, __ZN6AriSdk37ARI_IBICallPsVoiceLQMLinkStateInd_SDK4packEPP6AriMsg, 
                       __ZN6AriSdk37ARI_IBICallPsVoiceLQMLinkStateInd_SDK6unpackEv, 
                       __ZN6AriSdk37ARI_IBICallPsVoiceLQMLinkStateInd_SDKC1EPKhj, 
                       __ZN6AriSdk37ARI_IBICallPsVoiceLQMLinkStateInd_SDKC1Ev, __ZN6AriSdk37ARI_IBICallPsVoiceLQMLinkStateInd_SDKC2EPKhj, 
                       __ZN6AriSdk37ARI_IBICallPsVoiceLQMLinkStateInd_SDKC2Ev, __ZN6AriSdk37ARI_IBIImsMEGetMediaCapabilityReq_SDK4packEPP6AriMsg, 
                       __ZN6AriSdk37ARI_IBIImsMEGetMediaCapabilityReq_SDK6unpackEv, 
                       __ZN6AriSdk37ARI_IBIImsMEGetMediaCapabilityReq_SDKC1EPKhj, 
                       __ZN6AriSdk37ARI_IBIImsMEGetMediaCapabilityReq_SDKC1Ev, __ZN6AriSdk37ARI_IBIImsMEGetMediaCapabilityReq_SDKC2EPKhj, 
                       __ZN6AriSdk37ARI_IBIImsMEGetMediaCapabilityReq_SDKC2Ev, __ZN6AriSdk37ARI_IBIImsMERtcpSenderReportIndCb_SDK4packEPP6AriMsg, 
                       __ZN6AriSdk37ARI_IBIImsMERtcpSenderReportIndCb_SDK6unpackEv, 
                       __ZN6AriSdk37ARI_IBIImsMERtcpSenderReportIndCb_SDKC1EPKhj, 
                       __ZN6AriSdk37ARI_IBIImsMERtcpSenderReportIndCb_SDKC1Ev, __ZN6AriSdk37ARI_IBIImsMERtcpSenderReportIndCb_SDKC2EPKhj, 
                       __ZN6AriSdk37ARI_IBIImsMERtcpSenderReportIndCb_SDKC2Ev, __ZN6AriSdk37ARI_IBIMsCpPosMeasurementAbortReq_SDK4packEPP6AriMsg, 
                       __ZN6AriSdk37ARI_IBIMsCpPosMeasurementAbortReq_SDK6unpackEv, 
                       __ZN6AriSdk37ARI_IBIMsCpPosMeasurementAbortReq_SDKC1EPKhj, 
                       __ZN6AriSdk37ARI_IBIMsCpPosMeasurementAbortReq_SDKC1Ev, __ZN6AriSdk37ARI_IBIMsCpPosMeasurementAbortReq_SDKC2EPKhj, 
                       __ZN6AriSdk37ARI_IBIMsCpPosMeasurementAbortReq_SDKC2Ev, __ZN6AriSdk37ARI_IBIMsCpResetAssistanceDataReq_SDK4packEPP6AriMsg, 
                       __ZN6AriSdk37ARI_IBIMsCpResetAssistanceDataReq_SDK6unpackEv, 
                       __ZN6AriSdk37ARI_IBIMsCpResetAssistanceDataReq_SDKC1EPKhj, 
                       __ZN6AriSdk37ARI_IBIMsCpResetAssistanceDataReq_SDKC1Ev, __ZN6AriSdk37ARI_IBIMsCpResetAssistanceDataReq_SDKC2EPKhj, 
                       __ZN6AriSdk37ARI_IBIMsCpResetAssistanceDataReq_SDKC2Ev, __ZN6AriSdk37ARI_IBIMsSsLcsMtlrNotificationRsp_SDK4packEPP6AriMsg, 
                       __ZN6AriSdk37ARI_IBIMsSsLcsMtlrNotificationRsp_SDK6unpackEv, 
                       __ZN6AriSdk37ARI_IBIMsSsLcsMtlrNotificationRsp_SDKC1EPKhj, 
                       __ZN6AriSdk37ARI_IBIMsSsLcsMtlrNotificationRsp_SDKC1Ev, __ZN6AriSdk37ARI_IBIMsSsLcsMtlrNotificationRsp_SDKC2EPKhj, 
                       __ZN6AriSdk37ARI_IBIMsSsLcsMtlrNotificationRsp_SDKC2Ev, __ZN6AriSdk37ARI_IBINetConfigureNetworkModeReq_SDK4packEPP6AriMsg, 
                       __ZN6AriSdk37ARI_IBINetConfigureNetworkModeReq_SDK6unpackEv, 
                       __ZN6AriSdk37ARI_IBINetConfigureNetworkModeReq_SDKC1EPKhj, 
                       __ZN6AriSdk37ARI_IBINetConfigureNetworkModeReq_SDKC1Ev, __ZN6AriSdk37ARI_IBINetConfigureNetworkModeReq_SDKC2EPKhj, 
                       __ZN6AriSdk37ARI_IBINetConfigureNetworkModeReq_SDKC2Ev, __ZN6AriSdk37ARI_IBINetGetEmergencyCellInfoReq_SDK4packEPP6AriMsg, 
                       __ZN6AriSdk37ARI_IBINetGetEmergencyCellInfoReq_SDK6unpackEv, 
                       __ZN6AriSdk37ARI_IBINetGetEmergencyCellInfoReq_SDKC1EPKhj, 
                       __ZN6AriSdk37ARI_IBINetGetEmergencyCellInfoReq_SDKC1Ev, __ZN6AriSdk37ARI_IBINetGetEmergencyCellInfoReq_SDKC2EPKhj, 
                       __ZN6AriSdk37ARI_IBINetGetEmergencyCellInfoReq_SDKC2Ev, __ZN6AriSdk37ARI_IBINetGetPlmnNameInfoRspCb_V1_SDK4packEPP6AriMsg, 
                       __ZN6AriSdk37ARI_IBINetGetPlmnNameInfoRspCb_V1_SDK6unpackEv, 
                       __ZN6AriSdk37ARI_IBINetGetPlmnNameInfoRspCb_V1_SDKC1EPKhj, 
                       __ZN6AriSdk37ARI_IBINetGetPlmnNameInfoRspCb_V1_SDKC1Ev, __ZN6AriSdk37ARI_IBINetGetPlmnNameInfoRspCb_V1_SDKC2EPKhj, 
                       __ZN6AriSdk37ARI_IBINetGetPlmnNameInfoRspCb_V1_SDKC2Ev, __ZN6AriSdk37ARI_IBINetSetRadioSignalReporting_SDK4packEPP6AriMsg, 
                       __ZN6AriSdk37ARI_IBINetSetRadioSignalReporting_SDK6unpackEv, 
                       __ZN6AriSdk37ARI_IBINetSetRadioSignalReporting_SDKC1EPKhj, 
                       __ZN6AriSdk37ARI_IBINetSetRadioSignalReporting_SDKC1Ev, __ZN6AriSdk37ARI_IBINetSetRadioSignalReporting_SDKC2EPKhj, 
                       __ZN6AriSdk37ARI_IBINetSetRadioSignalReporting_SDKC2Ev, __ZN6AriSdk37ARI_IBISimAccessUpdateBinaryRspCb_SDK4packEPP6AriMsg, 
                       __ZN6AriSdk37ARI_IBISimAccessUpdateBinaryRspCb_SDK6unpackEv, 
                       __ZN6AriSdk37ARI_IBISimAccessUpdateBinaryRspCb_SDKC1EPKhj, 
                       __ZN6AriSdk37ARI_IBISimAccessUpdateBinaryRspCb_SDKC1Ev, __ZN6AriSdk37ARI_IBISimAccessUpdateBinaryRspCb_SDKC2EPKhj, 
                       __ZN6AriSdk37ARI_IBISimAccessUpdateBinaryRspCb_SDKC2Ev, __ZN6AriSdk37ARI_IBISimAccessUpdateRecordRspCb_SDK4packEPP6AriMsg, 
                       __ZN6AriSdk37ARI_IBISimAccessUpdateRecordRspCb_SDK6unpackEv, 
                       __ZN6AriSdk37ARI_IBISimAccessUpdateRecordRspCb_SDKC1EPKhj, 
                       __ZN6AriSdk37ARI_IBISimAccessUpdateRecordRspCb_SDKC1Ev, __ZN6AriSdk37ARI_IBISimAccessUpdateRecordRspCb_SDKC2EPKhj, 
                       __ZN6AriSdk37ARI_IBISimAccessUpdateRecordRspCb_SDKC2Ev, __ZN6AriSdk37ARI_IBISimPbGetMetaInformationReq_SDK4packEPP6AriMsg, 
                       __ZN6AriSdk37ARI_IBISimPbGetMetaInformationReq_SDK6unpackEv, 
                       __ZN6AriSdk37ARI_IBISimPbGetMetaInformationReq_SDKC1EPKhj, 
                       __ZN6AriSdk37ARI_IBISimPbGetMetaInformationReq_SDKC1Ev, __ZN6AriSdk37ARI_IBISimPbGetMetaInformationReq_SDKC2EPKhj, 
                       __ZN6AriSdk37ARI_IBISimPbGetMetaInformationReq_SDKC2Ev, __ZN6AriSdk37ARI_IBISimTkMoSmsControlInfoIndCb_SDK4packEPP6AriMsg, 
                       __ZN6AriSdk37ARI_IBISimTkMoSmsControlInfoIndCb_SDK6unpackEv, 
                       __ZN6AriSdk37ARI_IBISimTkMoSmsControlInfoIndCb_SDKC1EPKhj, 
                       __ZN6AriSdk37ARI_IBISimTkMoSmsControlInfoIndCb_SDKC1Ev, __ZN6AriSdk37ARI_IBISimTkMoSmsControlInfoIndCb_SDKC2EPKhj, 
                       __ZN6AriSdk37ARI_IBISimTkMoSmsControlInfoIndCb_SDKC2Ev, __ZN6AriSdk37ARI_IBISimTkSetRequiredFcnListReq_SDK4packEPP6AriMsg, 
                       __ZN6AriSdk37ARI_IBISimTkSetRequiredFcnListReq_SDK6unpackEv, 
                       __ZN6AriSdk37ARI_IBISimTkSetRequiredFcnListReq_SDKC1EPKhj, 
                       __ZN6AriSdk37ARI_IBISimTkSetRequiredFcnListReq_SDKC1Ev, __ZN6AriSdk37ARI_IBISimTkSetRequiredFcnListReq_SDKC2EPKhj, 
                       __ZN6AriSdk37ARI_IBISimTkSetRequiredFcnListReq_SDKC2Ev, __ZN6AriSdk37ARI_IBISmsDeliverySessionStatusCb_SDK4packEPP6AriMsg, 
                       __ZN6AriSdk37ARI_IBISmsDeliverySessionStatusCb_SDK6unpackEv, 
                       __ZN6AriSdk37ARI_IBISmsDeliverySessionStatusCb_SDKC1EPKhj, 
                       __ZN6AriSdk37ARI_IBISmsDeliverySessionStatusCb_SDKC1Ev, __ZN6AriSdk37ARI_IBISmsDeliverySessionStatusCb_SDKC2EPKhj, 
                       __ZN6AriSdk37ARI_IBISmsDeliverySessionStatusCb_SDKC2Ev, __ZN6AriSdk37ARI_IBISmsSetMemoryAvailableRspCb_SDK4packEPP6AriMsg, 
                       __ZN6AriSdk37ARI_IBISmsSetMemoryAvailableRspCb_SDK6unpackEv, 
                       __ZN6AriSdk37ARI_IBISmsSetMemoryAvailableRspCb_SDKC1EPKhj, 
                       __ZN6AriSdk37ARI_IBISmsSetMemoryAvailableRspCb_SDKC1Ev, __ZN6AriSdk37ARI_IBISmsSetMemoryAvailableRspCb_SDKC2EPKhj, 
                       __ZN6AriSdk37ARI_IBISmsSetMemoryAvailableRspCb_SDKC2Ev, __ZN6AriSdk38ARI_AriUtaMsCallCsReleaseCallRspCb_SDK4packEPP6AriMsg, 
                       __ZN6AriSdk38ARI_AriUtaMsCallCsReleaseCallRspCb_SDK6unpackEv, 
                       __ZN6AriSdk38ARI_AriUtaMsCallCsReleaseCallRspCb_SDKC1EPKhj, 
                       __ZN6AriSdk38ARI_AriUtaMsCallCsReleaseCallRspCb_SDKC1Ev, __ZN6AriSdk38ARI_AriUtaMsCallCsReleaseCallRspCb_SDKC2EPKhj, 
                       __ZN6AriSdk38ARI_AriUtaMsCallCsReleaseCallRspCb_SDKC2Ev, __ZN6AriSdk38ARI_CsiBmmProvideBootTimeInfoRspCb_SDK4packEPP6AriMsg, 
                       __ZN6AriSdk38ARI_CsiBmmProvideBootTimeInfoRspCb_SDK6unpackEv, 
                       __ZN6AriSdk38ARI_CsiBmmProvideBootTimeInfoRspCb_SDKC1EPKhj, 
                       __ZN6AriSdk38ARI_CsiBmmProvideBootTimeInfoRspCb_SDKC1Ev, __ZN6AriSdk38ARI_CsiBmmProvideBootTimeInfoRspCb_SDKC2EPKhj, 
                       __ZN6AriSdk38ARI_CsiBmmProvideBootTimeInfoRspCb_SDKC2Ev, __ZN6AriSdk38ARI_CsiIceAudSetAudioLoggingRespCb_SDK4packEPP6AriMsg, 
                       __ZN6AriSdk38ARI_CsiIceAudSetAudioLoggingRespCb_SDK6unpackEv, 
                       __ZN6AriSdk38ARI_CsiIceAudSetAudioLoggingRespCb_SDKC1EPKhj, 
                       __ZN6AriSdk38ARI_CsiIceAudSetAudioLoggingRespCb_SDKC1Ev, __ZN6AriSdk38ARI_CsiIceAudSetAudioLoggingRespCb_SDKC2EPKhj, 
                       __ZN6AriSdk38ARI_CsiIceAudSetAudioLoggingRespCb_SDKC2Ev, __ZN6AriSdk38ARI_CsiIceSecActivationRegisterReq_SDK4packEPP6AriMsg, 
                       __ZN6AriSdk38ARI_CsiIceSecActivationRegisterReq_SDK6unpackEv, 
                       __ZN6AriSdk38ARI_CsiIceSecActivationRegisterReq_SDKC1EPKhj, 
                       __ZN6AriSdk38ARI_CsiIceSecActivationRegisterReq_SDKC1Ev, __ZN6AriSdk38ARI_CsiIceSecActivationRegisterReq_SDKC2EPKhj, 
                       __ZN6AriSdk38ARI_CsiIceSecActivationRegisterReq_SDKC2Ev, __ZN6AriSdk38ARI_CsiMsCpsGetCurrentBootStateReq_SDK4packEPP6AriMsg, 
                       __ZN6AriSdk38ARI_CsiMsCpsGetCurrentBootStateReq_SDK6unpackEv, 
                       __ZN6AriSdk38ARI_CsiMsCpsGetCurrentBootStateReq_SDKC1EPKhj, 
                       __ZN6AriSdk38ARI_CsiMsCpsGetCurrentBootStateReq_SDKC1Ev, __ZN6AriSdk38ARI_CsiMsCpsGetCurrentBootStateReq_SDKC2EPKhj, 
                       __ZN6AriSdk38ARI_CsiMsCpsGetCurrentBootStateReq_SDKC2Ev, __ZN6AriSdk38ARI_IBICallCsSetTtyDeviceModeRspCb_SDK4packEPP6AriMsg, 
                       __ZN6AriSdk38ARI_IBICallCsSetTtyDeviceModeRspCb_SDK6unpackEv, 
                       __ZN6AriSdk38ARI_IBICallCsSetTtyDeviceModeRspCb_SDKC1EPKhj, 
                       __ZN6AriSdk38ARI_IBICallCsSetTtyDeviceModeRspCb_SDKC1Ev, __ZN6AriSdk38ARI_IBICallCsSetTtyDeviceModeRspCb_SDKC2EPKhj, 
                       __ZN6AriSdk38ARI_IBICallCsSetTtyDeviceModeRspCb_SDKC2Ev, __ZN6AriSdk38ARI_IBICallPsDataTransferTimeRspCb_SDK4packEPP6AriMsg, 
                       __ZN6AriSdk38ARI_IBICallPsDataTransferTimeRspCb_SDK6unpackEv, 
                       __ZN6AriSdk38ARI_IBICallPsDataTransferTimeRspCb_SDKC1EPKhj, 
                       __ZN6AriSdk38ARI_IBICallPsDataTransferTimeRspCb_SDKC1Ev, __ZN6AriSdk38ARI_IBICallPsDataTransferTimeRspCb_SDKC2EPKhj, 
                       __ZN6AriSdk38ARI_IBICallPsDataTransferTimeRspCb_SDKC2Ev, __ZN6AriSdk38ARI_IBICallPsLTEAttachApnConfigReq_SDK4packEPP6AriMsg, 
                       __ZN6AriSdk38ARI_IBICallPsLTEAttachApnConfigReq_SDK6unpackEv, 
                       __ZN6AriSdk38ARI_IBICallPsLTEAttachApnConfigReq_SDKC1EPKhj, 
                       __ZN6AriSdk38ARI_IBICallPsLTEAttachApnConfigReq_SDKC1Ev, __ZN6AriSdk38ARI_IBICallPsLTEAttachApnConfigReq_SDKC2EPKhj, 
                       __ZN6AriSdk38ARI_IBICallPsLTEAttachApnConfigReq_SDKC2Ev, __ZN6AriSdk38ARI_IBICallPsTrafficClassInfoRspCb_SDK4packEPP6AriMsg, 
                       __ZN6AriSdk38ARI_IBICallPsTrafficClassInfoRspCb_SDK6unpackEv, 
                       __ZN6AriSdk38ARI_IBICallPsTrafficClassInfoRspCb_SDKC1EPKhj, 
                       __ZN6AriSdk38ARI_IBICallPsTrafficClassInfoRspCb_SDKC1Ev, __ZN6AriSdk38ARI_IBICallPsTrafficClassInfoRspCb_SDKC2EPKhj, 
                       __ZN6AriSdk38ARI_IBICallPsTrafficClassInfoRspCb_SDKC2Ev, __ZN6AriSdk38ARI_IBIImsMEConfigureAudioMediaReq_SDK4packEPP6AriMsg, 
                       __ZN6AriSdk38ARI_IBIImsMEConfigureAudioMediaReq_SDK6unpackEv, 
                       __ZN6AriSdk38ARI_IBIImsMEConfigureAudioMediaReq_SDKC1EPKhj, 
                       __ZN6AriSdk38ARI_IBIImsMEConfigureAudioMediaReq_SDKC1Ev, __ZN6AriSdk38ARI_IBIImsMEConfigureAudioMediaReq_SDKC2EPKhj, 
                       __ZN6AriSdk38ARI_IBIImsMEConfigureAudioMediaReq_SDKC2Ev, __ZN6AriSdk38ARI_IBIMsCpAssistanceDataInjectReq_SDK4packEPP6AriMsg, 
                       __ZN6AriSdk38ARI_IBIMsCpAssistanceDataInjectReq_SDK6unpackEv, 
                       __ZN6AriSdk38ARI_IBIMsCpAssistanceDataInjectReq_SDKC1EPKhj, 
                       __ZN6AriSdk38ARI_IBIMsCpAssistanceDataInjectReq_SDKC1Ev, __ZN6AriSdk38ARI_IBIMsCpAssistanceDataInjectReq_SDKC2EPKhj, 
                       __ZN6AriSdk38ARI_IBIMsCpAssistanceDataInjectReq_SDKC2Ev, __ZN6AriSdk38ARI_IBIMsLpGanssAuxiliaryInfoIndCb_SDK4packEPP6AriMsg, 
                       __ZN6AriSdk38ARI_IBIMsLpGanssAuxiliaryInfoIndCb_SDK6unpackEv, 
                       __ZN6AriSdk38ARI_IBIMsLpGanssAuxiliaryInfoIndCb_SDKC1EPKhj, 
                       __ZN6AriSdk38ARI_IBIMsLpGanssAuxiliaryInfoIndCb_SDKC1Ev, __ZN6AriSdk38ARI_IBIMsLpGanssAuxiliaryInfoIndCb_SDKC2EPKhj, 
                       __ZN6AriSdk38ARI_IBIMsLpGanssAuxiliaryInfoIndCb_SDKC2Ev, __ZN6AriSdk38ARI_IBIMsLpGanssReferenceTimeIndCb_SDK4packEPP6AriMsg, 
                       __ZN6AriSdk38ARI_IBIMsLpGanssReferenceTimeIndCb_SDK6unpackEv, 
                       __ZN6AriSdk38ARI_IBIMsLpGanssReferenceTimeIndCb_SDKC1EPKhj, 
                       __ZN6AriSdk38ARI_IBIMsLpGanssReferenceTimeIndCb_SDKC1Ev, __ZN6AriSdk38ARI_IBIMsLpGanssReferenceTimeIndCb_SDKC2EPKhj, 
                       __ZN6AriSdk38ARI_IBIMsLpGanssReferenceTimeIndCb_SDKC2Ev, __ZN6AriSdk38ARI_IBIMsLpGpsDgpsCorrectionsIndCb_SDK4packEPP6AriMsg, 
                       __ZN6AriSdk38ARI_IBIMsLpGpsDgpsCorrectionsIndCb_SDK6unpackEv, 
                       __ZN6AriSdk38ARI_IBIMsLpGpsDgpsCorrectionsIndCb_SDKC1EPKhj, 
                       __ZN6AriSdk38ARI_IBIMsLpGpsDgpsCorrectionsIndCb_SDKC1Ev, __ZN6AriSdk38ARI_IBIMsLpGpsDgpsCorrectionsIndCb_SDKC2EPKhj, 
                       __ZN6AriSdk38ARI_IBIMsLpGpsDgpsCorrectionsIndCb_SDKC2Ev, __ZN6AriSdk38ARI_IBIMsLpGpsNavigationModelIndCb_SDK4packEPP6AriMsg, 
                       __ZN6AriSdk38ARI_IBIMsLpGpsNavigationModelIndCb_SDK6unpackEv, 
                       __ZN6AriSdk38ARI_IBIMsLpGpsNavigationModelIndCb_SDKC1EPKhj, 
                       __ZN6AriSdk38ARI_IBIMsLpGpsNavigationModelIndCb_SDKC1Ev, __ZN6AriSdk38ARI_IBIMsLpGpsNavigationModelIndCb_SDKC2EPKhj, 
                       __ZN6AriSdk38ARI_IBIMsLpGpsNavigationModelIndCb_SDKC2Ev, __ZN6AriSdk38ARI_IBINetGetRegistrationInfoRspCb_SDK4packEPP6AriMsg, 
                       __ZN6AriSdk38ARI_IBINetGetRegistrationInfoRspCb_SDK6unpackEv, 
                       __ZN6AriSdk38ARI_IBINetGetRegistrationInfoRspCb_SDKC1EPKhj, 
                       __ZN6AriSdk38ARI_IBINetGetRegistrationInfoRspCb_SDKC1Ev, __ZN6AriSdk38ARI_IBINetGetRegistrationInfoRspCb_SDKC2EPKhj, 
                       __ZN6AriSdk38ARI_IBINetGetRegistrationInfoRspCb_SDKC2Ev, __ZN6AriSdk38ARI_IBINetGetRrcConnStateInfoRspCb_SDK4packEPP6AriMsg, 
                       __ZN6AriSdk38ARI_IBINetGetRrcConnStateInfoRspCb_SDK6unpackEv, 
                       __ZN6AriSdk38ARI_IBINetGetRrcConnStateInfoRspCb_SDKC1EPKhj, 
                       __ZN6AriSdk38ARI_IBINetGetRrcConnStateInfoRspCb_SDKC1Ev, __ZN6AriSdk38ARI_IBINetGetRrcConnStateInfoRspCb_SDKC2EPKhj, 
                       __ZN6AriSdk38ARI_IBINetGetRrcConnStateInfoRspCb_SDKC2Ev, __ZN6AriSdk38ARI_IBISimGetFullAccessStatusRspCb_SDK4packEPP6AriMsg, 
                       __ZN6AriSdk38ARI_IBISimGetFullAccessStatusRspCb_SDK6unpackEv, 
                       __ZN6AriSdk38ARI_IBISimGetFullAccessStatusRspCb_SDKC1EPKhj, 
                       __ZN6AriSdk38ARI_IBISimGetFullAccessStatusRspCb_SDKC1Ev, __ZN6AriSdk38ARI_IBISimGetFullAccessStatusRspCb_SDKC2EPKhj, 
                       __ZN6AriSdk38ARI_IBISimGetFullAccessStatusRspCb_SDKC2Ev, __ZN6AriSdk39ARI_CsiBspGetCalibrationStatusRspCb_SDK4packEPP6AriMsg, 
                       __ZN6AriSdk39ARI_CsiBspGetCalibrationStatusRspCb_SDK6unpackEv, 
                       __ZN6AriSdk39ARI_CsiBspGetCalibrationStatusRspCb_SDKC1EPKhj, 
                       __ZN6AriSdk39ARI_CsiBspGetCalibrationStatusRspCb_SDKC1Ev, 
                       __ZN6AriSdk39ARI_CsiBspGetCalibrationStatusRspCb_SDKC2EPKhj, 
                       __ZN6AriSdk39ARI_CsiBspGetCalibrationStatusRspCb_SDKC2Ev, 
                       __ZN6AriSdk39ARI_CsiIceAudEnableLoopbackHWRespCb_SDK4packEPP6AriMsg, 
                       __ZN6AriSdk39ARI_CsiIceAudEnableLoopbackHWRespCb_SDK6unpackEv, 
                       __ZN6AriSdk39ARI_CsiIceAudEnableLoopbackHWRespCb_SDKC1EPKhj, 
                       __ZN6AriSdk39ARI_CsiIceAudEnableLoopbackHWRespCb_SDKC1Ev, 
                       __ZN6AriSdk39ARI_CsiIceAudEnableLoopbackHWRespCb_SDKC2EPKhj, 
                       __ZN6AriSdk39ARI_CsiIceAudEnableLoopbackHWRespCb_SDKC2Ev, 
                       __ZN6AriSdk39ARI_CsiIceBspSetApWakeIntervalRspCb_SDK4packEPP6AriMsg, 
                       __ZN6AriSdk39ARI_CsiIceBspSetApWakeIntervalRspCb_SDK6unpackEv, 
                       __ZN6AriSdk39ARI_CsiIceBspSetApWakeIntervalRspCb_SDKC1EPKhj, 
                       __ZN6AriSdk39ARI_CsiIceBspSetApWakeIntervalRspCb_SDKC1Ev, 
                       __ZN6AriSdk39ARI_CsiIceBspSetApWakeIntervalRspCb_SDKC2EPKhj, 
                       __ZN6AriSdk39ARI_CsiIceBspSetApWakeIntervalRspCb_SDKC2Ev, 
                       __ZN6AriSdk39ARI_CsiIceGetFactoryDebugEnabledReq_SDK4packEPP6AriMsg, 
                       __ZN6AriSdk39ARI_CsiIceGetFactoryDebugEnabledReq_SDK6unpackEv, 
                       __ZN6AriSdk39ARI_CsiIceGetFactoryDebugEnabledReq_SDKC1EPKhj, 
                       __ZN6AriSdk39ARI_CsiIceGetFactoryDebugEnabledReq_SDKC1Ev, 
                       __ZN6AriSdk39ARI_CsiIceGetFactoryDebugEnabledReq_SDKC2EPKhj, 
                       __ZN6AriSdk39ARI_CsiIceGetFactoryDebugEnabledReq_SDKC2Ev, 
                       __ZN6AriSdk39ARI_CsiIceSecActivationTicketSetReq_SDK4packEPP6AriMsg, 
                       __ZN6AriSdk39ARI_CsiIceSecActivationTicketSetReq_SDK6unpackEv, 
                       __ZN6AriSdk39ARI_CsiIceSecActivationTicketSetReq_SDKC1EPKhj, 
                       __ZN6AriSdk39ARI_CsiIceSecActivationTicketSetReq_SDKC1Ev, 
                       __ZN6AriSdk39ARI_CsiIceSecActivationTicketSetReq_SDKC2EPKhj, 
                       __ZN6AriSdk39ARI_CsiIceSecActivationTicketSetReq_SDKC2Ev, 
                       __ZN6AriSdk39ARI_CsiIdcRTGetLinkQualityReportReq_SDK4packEPP6AriMsg, 
                       __ZN6AriSdk39ARI_CsiIdcRTGetLinkQualityReportReq_SDK6unpackEv, 
                       __ZN6AriSdk39ARI_CsiIdcRTGetLinkQualityReportReq_SDKC1EPKhj, 
                       __ZN6AriSdk39ARI_CsiIdcRTGetLinkQualityReportReq_SDKC1Ev, 
                       __ZN6AriSdk39ARI_CsiIdcRTGetLinkQualityReportReq_SDKC2EPKhj, 
                       __ZN6AriSdk39ARI_CsiIdcRTGetLinkQualityReportReq_SDKC2Ev, 
                       __ZN6AriSdk39ARI_CsiIpcCtrlPathTestSendDataRspCb_SDK4packEPP6AriMsg, 
                       __ZN6AriSdk39ARI_CsiIpcCtrlPathTestSendDataRspCb_SDK6unpackEv, 
                       __ZN6AriSdk39ARI_CsiIpcCtrlPathTestSendDataRspCb_SDKC1EPKhj, 
                       __ZN6AriSdk39ARI_CsiIpcCtrlPathTestSendDataRspCb_SDKC1Ev, 
                       __ZN6AriSdk39ARI_CsiIpcCtrlPathTestSendDataRspCb_SDKC2EPKhj, 
                       __ZN6AriSdk39ARI_CsiIpcCtrlPathTestSendDataRspCb_SDKC2Ev, 
                       __ZN6AriSdk39ARI_CsiPowSleepSetSleepBlockerRspCb_SDK4packEPP6AriMsg, 
                       __ZN6AriSdk39ARI_CsiPowSleepSetSleepBlockerRspCb_SDK6unpackEv, 
                       __ZN6AriSdk39ARI_CsiPowSleepSetSleepBlockerRspCb_SDKC1EPKhj, 
                       __ZN6AriSdk39ARI_CsiPowSleepSetSleepBlockerRspCb_SDKC1Ev, 
                       __ZN6AriSdk39ARI_CsiPowSleepSetSleepBlockerRspCb_SDKC2EPKhj, 
                       __ZN6AriSdk39ARI_CsiPowSleepSetSleepBlockerRspCb_SDKC2Ev, 
                       __ZN6AriSdk39ARI_IBICallCsGetSpeechCodecOrderReq_SDK4packEPP6AriMsg, 
                       __ZN6AriSdk39ARI_IBICallCsGetSpeechCodecOrderReq_SDK6unpackEv, 
                       __ZN6AriSdk39ARI_IBICallCsGetSpeechCodecOrderReq_SDKC1EPKhj, 
                       __ZN6AriSdk39ARI_IBICallCsGetSpeechCodecOrderReq_SDKC1Ev, 
                       __ZN6AriSdk39ARI_IBICallCsGetSpeechCodecOrderReq_SDKC2EPKhj, 
                       __ZN6AriSdk39ARI_IBICallCsGetSpeechCodecOrderReq_SDKC2Ev, 
                       __ZN6AriSdk39ARI_IBICallCsGetTtyDeviceModeReq_V2_SDK4packEPP6AriMsg, 
                       __ZN6AriSdk39ARI_IBICallCsGetTtyDeviceModeReq_V2_SDK6unpackEv, 
                       __ZN6AriSdk39ARI_IBICallCsGetTtyDeviceModeReq_V2_SDKC1EPKhj, 
                       __ZN6AriSdk39ARI_IBICallCsGetTtyDeviceModeReq_V2_SDKC1Ev, 
                       __ZN6AriSdk39ARI_IBICallCsGetTtyDeviceModeReq_V2_SDKC2EPKhj, 
                       __ZN6AriSdk39ARI_IBICallCsGetTtyDeviceModeReq_V2_SDKC2Ev, 
                       __ZN6AriSdk39ARI_IBICallCsSetSpeechCodecOrderReq_SDK4packEPP6AriMsg, 
                       __ZN6AriSdk39ARI_IBICallCsSetSpeechCodecOrderReq_SDK6unpackEv, 
                       __ZN6AriSdk39ARI_IBICallCsSetSpeechCodecOrderReq_SDKC1EPKhj, 
                       __ZN6AriSdk39ARI_IBICallCsSetSpeechCodecOrderReq_SDKC1Ev, 
                       __ZN6AriSdk39ARI_IBICallCsSetSpeechCodecOrderReq_SDKC2EPKhj, 
                       __ZN6AriSdk39ARI_IBICallCsSetSpeechCodecOrderReq_SDKC2Ev, 
                       __ZN6AriSdk39ARI_IBICallPsSetKeepaliveOffloadReq_SDK4packEPP6AriMsg, 
                       __ZN6AriSdk39ARI_IBICallPsSetKeepaliveOffloadReq_SDK6unpackEv, 
                       __ZN6AriSdk39ARI_IBICallPsSetKeepaliveOffloadReq_SDKC1EPKhj, 
                       __ZN6AriSdk39ARI_IBICallPsSetKeepaliveOffloadReq_SDKC1Ev, 
                       __ZN6AriSdk39ARI_IBICallPsSetKeepaliveOffloadReq_SDKC2EPKhj, 
                       __ZN6AriSdk39ARI_IBICallPsSetKeepaliveOffloadReq_SDKC2Ev, 
                       __ZN6AriSdk39ARI_IBIImsMEGetMediaCapabilityRspCb_SDK4packEPP6AriMsg, 
                       __ZN6AriSdk39ARI_IBIImsMEGetMediaCapabilityRspCb_SDK6unpackEv, 
                       __ZN6AriSdk39ARI_IBIImsMEGetMediaCapabilityRspCb_SDKC1EPKhj, 
                       __ZN6AriSdk39ARI_IBIImsMEGetMediaCapabilityRspCb_SDKC1Ev, 
                       __ZN6AriSdk39ARI_IBIImsMEGetMediaCapabilityRspCb_SDKC2EPKhj, 
                       __ZN6AriSdk39ARI_IBIImsMEGetMediaCapabilityRspCb_SDKC2Ev, 
                       __ZN6AriSdk39ARI_IBIImsMERtcpReceiverReportIndCb_SDK4packEPP6AriMsg, 
                       __ZN6AriSdk39ARI_IBIImsMERtcpReceiverReportIndCb_SDK6unpackEv, 
                       __ZN6AriSdk39ARI_IBIImsMERtcpReceiverReportIndCb_SDKC1EPKhj, 
                       __ZN6AriSdk39ARI_IBIImsMERtcpReceiverReportIndCb_SDKC1Ev, 
                       __ZN6AriSdk39ARI_IBIImsMERtcpReceiverReportIndCb_SDKC2EPKhj, 
                       __ZN6AriSdk39ARI_IBIImsMERtcpReceiverReportIndCb_SDKC2Ev, 
                       __ZN6AriSdk39ARI_IBIMsCpPosMeasurementAbortRspCb_SDK4packEPP6AriMsg, 
                       __ZN6AriSdk39ARI_IBIMsCpPosMeasurementAbortRspCb_SDK6unpackEv, 
                       __ZN6AriSdk39ARI_IBIMsCpPosMeasurementAbortRspCb_SDKC1EPKhj, 
                       __ZN6AriSdk39ARI_IBIMsCpPosMeasurementAbortRspCb_SDKC1Ev, 
                       __ZN6AriSdk39ARI_IBIMsCpPosMeasurementAbortRspCb_SDKC2EPKhj, 
                       __ZN6AriSdk39ARI_IBIMsCpPosMeasurementAbortRspCb_SDKC2Ev, 
                       __ZN6AriSdk39ARI_IBIMsCpResetAssistanceDataRspCb_SDK4packEPP6AriMsg, 
                       __ZN6AriSdk39ARI_IBIMsCpResetAssistanceDataRspCb_SDK6unpackEv, 
                       __ZN6AriSdk39ARI_IBIMsCpResetAssistanceDataRspCb_SDKC1EPKhj, 
                       __ZN6AriSdk39ARI_IBIMsCpResetAssistanceDataRspCb_SDKC1Ev, 
                       __ZN6AriSdk39ARI_IBIMsCpResetAssistanceDataRspCb_SDKC2EPKhj, 
                       __ZN6AriSdk39ARI_IBIMsCpResetAssistanceDataRspCb_SDKC2Ev, 
                       __ZN6AriSdk39ARI_IBIMsLpAssistanceDataErrorIndCb_SDK4packEPP6AriMsg, 
                       __ZN6AriSdk39ARI_IBIMsLpAssistanceDataErrorIndCb_SDK6unpackEv, 
                       __ZN6AriSdk39ARI_IBIMsLpAssistanceDataErrorIndCb_SDKC1EPKhj, 
                       __ZN6AriSdk39ARI_IBIMsLpAssistanceDataErrorIndCb_SDKC1Ev, 
                       __ZN6AriSdk39ARI_IBIMsLpAssistanceDataErrorIndCb_SDKC2EPKhj, 
                       __ZN6AriSdk39ARI_IBIMsLpAssistanceDataErrorIndCb_SDKC2Ev, 
                       __ZN6AriSdk39ARI_IBIMsLpDiscardedPosSessionIndCb_SDK4packEPP6AriMsg, 
                       __ZN6AriSdk39ARI_IBIMsLpDiscardedPosSessionIndCb_SDK6unpackEv, 
                       __ZN6AriSdk39ARI_IBIMsLpDiscardedPosSessionIndCb_SDKC1EPKhj, 
                       __ZN6AriSdk39ARI_IBIMsLpDiscardedPosSessionIndCb_SDKC1Ev, 
                       __ZN6AriSdk39ARI_IBIMsLpDiscardedPosSessionIndCb_SDKC2EPKhj, 
                       __ZN6AriSdk39ARI_IBIMsLpDiscardedPosSessionIndCb_SDKC2Ev, 
                       __ZN6AriSdk39ARI_IBIMsLpGpsIonosphericModelIndCb_SDK4packEPP6AriMsg, 
                       __ZN6AriSdk39ARI_IBIMsLpGpsIonosphericModelIndCb_SDK6unpackEv, 
                       __ZN6AriSdk39ARI_IBIMsLpGpsIonosphericModelIndCb_SDKC1EPKhj, 
                       __ZN6AriSdk39ARI_IBIMsLpGpsIonosphericModelIndCb_SDKC1Ev, 
                       __ZN6AriSdk39ARI_IBIMsLpGpsIonosphericModelIndCb_SDKC2EPKhj, 
                       __ZN6AriSdk39ARI_IBIMsLpGpsIonosphericModelIndCb_SDKC2Ev, 
                       __ZN6AriSdk39ARI_IBIMsSsLcsMtlrNotificationIndCb_SDK4packEPP6AriMsg, 
                       __ZN6AriSdk39ARI_IBIMsSsLcsMtlrNotificationIndCb_SDK6unpackEv, 
                       __ZN6AriSdk39ARI_IBIMsSsLcsMtlrNotificationIndCb_SDKC1EPKhj, 
                       __ZN6AriSdk39ARI_IBIMsSsLcsMtlrNotificationIndCb_SDKC1Ev, 
                       __ZN6AriSdk39ARI_IBIMsSsLcsMtlrNotificationIndCb_SDKC2EPKhj, 
                       __ZN6AriSdk39ARI_IBIMsSsLcsMtlrNotificationIndCb_SDKC2Ev, 
                       __ZN6AriSdk39ARI_IBINetConfigureNetworkModeRspCb_SDK4packEPP6AriMsg, 
                       __ZN6AriSdk39ARI_IBINetConfigureNetworkModeRspCb_SDK6unpackEv, 
                       __ZN6AriSdk39ARI_IBINetConfigureNetworkModeRspCb_SDKC1EPKhj, 
                       __ZN6AriSdk39ARI_IBINetConfigureNetworkModeRspCb_SDKC1Ev, 
                       __ZN6AriSdk39ARI_IBINetConfigureNetworkModeRspCb_SDKC2EPKhj, 
                       __ZN6AriSdk39ARI_IBINetConfigureNetworkModeRspCb_SDKC2Ev, 
                       __ZN6AriSdk39ARI_IBINetGetEmergencyCellInfoRspCb_SDK4packEPP6AriMsg, 
                       __ZN6AriSdk39ARI_IBINetGetEmergencyCellInfoRspCb_SDK6unpackEv, 
                       __ZN6AriSdk39ARI_IBINetGetEmergencyCellInfoRspCb_SDKC1EPKhj, 
                       __ZN6AriSdk39ARI_IBINetGetEmergencyCellInfoRspCb_SDKC1Ev, 
                       __ZN6AriSdk39ARI_IBINetGetEmergencyCellInfoRspCb_SDKC2EPKhj, 
                       __ZN6AriSdk39ARI_IBINetGetEmergencyCellInfoRspCb_SDKC2Ev, 
                       __ZN6AriSdk39ARI_IBISimPbGetMetaInformationRspCb_SDK4packEPP6AriMsg, 
                       __ZN6AriSdk39ARI_IBISimPbGetMetaInformationRspCb_SDK6unpackEv, 
                       __ZN6AriSdk39ARI_IBISimPbGetMetaInformationRspCb_SDKC1EPKhj, 
                       __ZN6AriSdk39ARI_IBISimPbGetMetaInformationRspCb_SDKC1Ev, 
                       __ZN6AriSdk39ARI_IBISimPbGetMetaInformationRspCb_SDKC2EPKhj, 
                       __ZN6AriSdk39ARI_IBISimPbGetMetaInformationRspCb_SDKC2Ev, 
                       __ZN6AriSdk39ARI_IBISimTkSetRequiredFcnListRspCb_SDK4packEPP6AriMsg, 
                       __ZN6AriSdk39ARI_IBISimTkSetRequiredFcnListRspCb_SDK6unpackEv, 
                       __ZN6AriSdk39ARI_IBISimTkSetRequiredFcnListRspCb_SDKC1EPKhj, 
                       __ZN6AriSdk39ARI_IBISimTkSetRequiredFcnListRspCb_SDKC1Ev, 
                       __ZN6AriSdk39ARI_IBISimTkSetRequiredFcnListRspCb_SDKC2EPKhj, 
                       __ZN6AriSdk39ARI_IBISimTkSetRequiredFcnListRspCb_SDKC2Ev, 
                       __ZN6AriSdk39ARI_IBISmsConfirmSmsDataDownloadAck_SDK4packEPP6AriMsg, 
                       __ZN6AriSdk39ARI_IBISmsConfirmSmsDataDownloadAck_SDK6unpackEv, 
                       __ZN6AriSdk39ARI_IBISmsConfirmSmsDataDownloadAck_SDKC1EPKhj, 
                       __ZN6AriSdk39ARI_IBISmsConfirmSmsDataDownloadAck_SDKC1Ev, 
                       __ZN6AriSdk39ARI_IBISmsConfirmSmsDataDownloadAck_SDKC2EPKhj, 
                       __ZN6AriSdk39ARI_IBISmsConfirmSmsDataDownloadAck_SDKC2Ev, 
                       __ZN6AriSdk39ARI_IBISmsSetSendMoreMessagesStatus_SDK4packEPP6AriMsg, 
                       __ZN6AriSdk39ARI_IBISmsSetSendMoreMessagesStatus_SDK6unpackEv, 
                       __ZN6AriSdk39ARI_IBISmsSetSendMoreMessagesStatus_SDKC1EPKhj, 
                       __ZN6AriSdk39ARI_IBISmsSetSendMoreMessagesStatus_SDKC1Ev, 
                       __ZN6AriSdk39ARI_IBISmsSetSendMoreMessagesStatus_SDKC2EPKhj, 
                       __ZN6AriSdk39ARI_IBISmsSetSendMoreMessagesStatus_SDKC2Ev, 
                       __ZN6AriSdk40ARI_CsiIceAudDisableLoopbackHWRespCb_SDK4packEPP6AriMsg, 
                       __ZN6AriSdk40ARI_CsiIceAudDisableLoopbackHWRespCb_SDK6unpackEv, 
                       __ZN6AriSdk40ARI_CsiIceAudDisableLoopbackHWRespCb_SDKC1EPKhj, 
                       __ZN6AriSdk40ARI_CsiIceAudDisableLoopbackHWRespCb_SDKC1Ev, 
                       __ZN6AriSdk40ARI_CsiIceAudDisableLoopbackHWRespCb_SDKC2EPKhj, 
                       __ZN6AriSdk40ARI_CsiIceAudDisableLoopbackHWRespCb_SDKC2Ev, 
                       __ZN6AriSdk40ARI_CsiIceGetFactoryDebugEnabledResp_SDK4packEPP6AriMsg, 
                       __ZN6AriSdk40ARI_CsiIceGetFactoryDebugEnabledResp_SDK6unpackEv, 
                       __ZN6AriSdk40ARI_CsiIceGetFactoryDebugEnabledResp_SDKC1EPKhj, 
                       __ZN6AriSdk40ARI_CsiIceGetFactoryDebugEnabledResp_SDKC1Ev, 
                       __ZN6AriSdk40ARI_CsiIceGetFactoryDebugEnabledResp_SDKC2EPKhj, 
                       __ZN6AriSdk40ARI_CsiIceGetFactoryDebugEnabledResp_SDKC2Ev, 
                       __ZN6AriSdk40ARI_CsiIceSecActivationRegisterIndCb_SDK4packEPP6AriMsg, 
                       __ZN6AriSdk40ARI_CsiIceSecActivationRegisterIndCb_SDK6unpackEv, 
                       __ZN6AriSdk40ARI_CsiIceSecActivationRegisterIndCb_SDKC1EPKhj, 
                       __ZN6AriSdk40ARI_CsiIceSecActivationRegisterIndCb_SDKC1Ev, 
                       __ZN6AriSdk40ARI_CsiIceSecActivationRegisterIndCb_SDKC2EPKhj, 
                       __ZN6AriSdk40ARI_CsiIceSecActivationRegisterIndCb_SDKC2Ev, 
                       __ZN6AriSdk40ARI_CsiMsCpsGetCurrentBootStateRspCb_SDK4packEPP6AriMsg, 
                       __ZN6AriSdk40ARI_CsiMsCpsGetCurrentBootStateRspCb_SDK6unpackEv, 
                       __ZN6AriSdk40ARI_CsiMsCpsGetCurrentBootStateRspCb_SDKC1EPKhj, 
                       __ZN6AriSdk40ARI_CsiMsCpsGetCurrentBootStateRspCb_SDKC1Ev, 
                       __ZN6AriSdk40ARI_CsiMsCpsGetCurrentBootStateRspCb_SDKC2EPKhj, 
                       __ZN6AriSdk40ARI_CsiMsCpsGetCurrentBootStateRspCb_SDKC2Ev, 
                       __ZN6AriSdk40ARI_IBICallCsVoimsSessionTransferReq_SDK4packEPP6AriMsg, 
                       __ZN6AriSdk40ARI_IBICallCsVoimsSessionTransferReq_SDK6unpackEv, 
                       __ZN6AriSdk40ARI_IBICallCsVoimsSessionTransferReq_SDKC1EPKhj, 
                       __ZN6AriSdk40ARI_IBICallCsVoimsSessionTransferReq_SDKC1Ev, 
                       __ZN6AriSdk40ARI_IBICallCsVoimsSessionTransferReq_SDKC2EPKhj, 
                       __ZN6AriSdk40ARI_IBICallCsVoimsSessionTransferReq_SDKC2Ev, 
                       __ZN6AriSdk40ARI_IBICallCsVoimsSrvccHoStatusIndCb_SDK4packEPP6AriMsg, 
                       __ZN6AriSdk40ARI_IBICallCsVoimsSrvccHoStatusIndCb_SDK6unpackEv, 
                       __ZN6AriSdk40ARI_IBICallCsVoimsSrvccHoStatusIndCb_SDKC1EPKhj, 
                       __ZN6AriSdk40ARI_IBICallCsVoimsSrvccHoStatusIndCb_SDKC1Ev, 
                       __ZN6AriSdk40ARI_IBICallCsVoimsSrvccHoStatusIndCb_SDKC2EPKhj, 
                       __ZN6AriSdk40ARI_IBICallCsVoimsSrvccHoStatusIndCb_SDKC2Ev, 
                       __ZN6AriSdk40ARI_IBIImsMEConfigureAudioMediaRspCb_SDK4packEPP6AriMsg, 
                       __ZN6AriSdk40ARI_IBIImsMEConfigureAudioMediaRspCb_SDK6unpackEv, 
                       __ZN6AriSdk40ARI_IBIImsMEConfigureAudioMediaRspCb_SDKC1EPKhj, 
                       __ZN6AriSdk40ARI_IBIImsMEConfigureAudioMediaRspCb_SDKC1Ev, 
                       __ZN6AriSdk40ARI_IBIImsMEConfigureAudioMediaRspCb_SDKC2EPKhj, 
                       __ZN6AriSdk40ARI_IBIImsMEConfigureAudioMediaRspCb_SDKC2Ev, 
                       __ZN6AriSdk40ARI_IBIImsMETerminateMediaSessionReq_SDK4packEPP6AriMsg, 
                       __ZN6AriSdk40ARI_IBIImsMETerminateMediaSessionReq_SDK6unpackEv, 
                       __ZN6AriSdk40ARI_IBIImsMETerminateMediaSessionReq_SDKC1EPKhj, 
                       __ZN6AriSdk40ARI_IBIImsMETerminateMediaSessionReq_SDKC1Ev, 
                       __ZN6AriSdk40ARI_IBIImsMETerminateMediaSessionReq_SDKC2EPKhj, 
                       __ZN6AriSdk40ARI_IBIImsMETerminateMediaSessionReq_SDKC2Ev, 
                       __ZN6AriSdk40ARI_IBIMsCpAssistanceDataInjectRspCb_SDK4packEPP6AriMsg, 
                       __ZN6AriSdk40ARI_IBIMsCpAssistanceDataInjectRspCb_SDK6unpackEv, 
                       __ZN6AriSdk40ARI_IBIMsCpAssistanceDataInjectRspCb_SDKC1EPKhj, 
                       __ZN6AriSdk40ARI_IBIMsCpAssistanceDataInjectRspCb_SDKC1Ev, 
                       __ZN6AriSdk40ARI_IBIMsCpAssistanceDataInjectRspCb_SDKC2EPKhj, 
                       __ZN6AriSdk40ARI_IBIMsCpAssistanceDataInjectRspCb_SDKC2Ev, 
                       __ZN6AriSdk40ARI_IBIMsCpAssistanceDataNeededIndCb_SDK4packEPP6AriMsg, 
                       __ZN6AriSdk40ARI_IBIMsCpAssistanceDataNeededIndCb_SDK6unpackEv, 
                       __ZN6AriSdk40ARI_IBIMsCpAssistanceDataNeededIndCb_SDKC1EPKhj, 
                       __ZN6AriSdk40ARI_IBIMsCpAssistanceDataNeededIndCb_SDKC1Ev, 
                       __ZN6AriSdk40ARI_IBIMsCpAssistanceDataNeededIndCb_SDKC2EPKhj, 
                       __ZN6AriSdk40ARI_IBIMsCpAssistanceDataNeededIndCb_SDKC2Ev, 
                       __ZN6AriSdk40ARI_IBIMsCpPosReportMeasurementIndCb_SDK4packEPP6AriMsg, 
                       __ZN6AriSdk40ARI_IBIMsCpPosReportMeasurementIndCb_SDK6unpackEv, 
                       __ZN6AriSdk40ARI_IBIMsCpPosReportMeasurementIndCb_SDKC1EPKhj, 
                       __ZN6AriSdk40ARI_IBIMsCpPosReportMeasurementIndCb_SDKC1Ev, 
                       __ZN6AriSdk40ARI_IBIMsCpPosReportMeasurementIndCb_SDKC2EPKhj, 
                       __ZN6AriSdk40ARI_IBIMsCpPosReportMeasurementIndCb_SDKC2Ev, 
                       __ZN6AriSdk40ARI_IBIMsLpGpsRealTimeIntegrityIndCb_SDK4packEPP6AriMsg, 
                       __ZN6AriSdk40ARI_IBIMsLpGpsRealTimeIntegrityIndCb_SDK6unpackEv, 
                       __ZN6AriSdk40ARI_IBIMsLpGpsRealTimeIntegrityIndCb_SDKC1EPKhj, 
                       __ZN6AriSdk40ARI_IBIMsLpGpsRealTimeIntegrityIndCb_SDKC1Ev, 
                       __ZN6AriSdk40ARI_IBIMsLpGpsRealTimeIntegrityIndCb_SDKC2EPKhj, 
                       __ZN6AriSdk40ARI_IBIMsLpGpsRealTimeIntegrityIndCb_SDKC2Ev, 
                       __ZN6AriSdk40ARI_IBIMsLpGpsReferenceLocationIndCb_SDK4packEPP6AriMsg, 
                       __ZN6AriSdk40ARI_IBIMsLpGpsReferenceLocationIndCb_SDK6unpackEv, 
                       __ZN6AriSdk40ARI_IBIMsLpGpsReferenceLocationIndCb_SDKC1EPKhj, 
                       __ZN6AriSdk40ARI_IBIMsLpGpsReferenceLocationIndCb_SDKC1Ev, 
                       __ZN6AriSdk40ARI_IBIMsLpGpsReferenceLocationIndCb_SDKC2EPKhj, 
                       __ZN6AriSdk40ARI_IBIMsLpGpsReferenceLocationIndCb_SDKC2Ev, 
                       __ZN6AriSdk40ARI_IBIMsLpResetGnssAssistanceDataCb_SDK4packEPP6AriMsg, 
                       __ZN6AriSdk40ARI_IBIMsLpResetGnssAssistanceDataCb_SDK6unpackEv, 
                       __ZN6AriSdk40ARI_IBIMsLpResetGnssAssistanceDataCb_SDKC1EPKhj, 
                       __ZN6AriSdk40ARI_IBIMsLpResetGnssAssistanceDataCb_SDKC1Ev, 
                       __ZN6AriSdk40ARI_IBIMsLpResetGnssAssistanceDataCb_SDKC2EPKhj, 
                       __ZN6AriSdk40ARI_IBIMsLpResetGnssAssistanceDataCb_SDKC2Ev, 
                       __ZN6AriSdk40ARI_IBINetIceCellularSwitchStatusReq_SDK4packEPP6AriMsg, 
                       __ZN6AriSdk40ARI_IBINetIceCellularSwitchStatusReq_SDK6unpackEv, 
                       __ZN6AriSdk40ARI_IBINetIceCellularSwitchStatusReq_SDKC1EPKhj, 
                       __ZN6AriSdk40ARI_IBINetIceCellularSwitchStatusReq_SDKC1Ev, 
                       __ZN6AriSdk40ARI_IBINetIceCellularSwitchStatusReq_SDKC2EPKhj, 
                       __ZN6AriSdk40ARI_IBINetIceCellularSwitchStatusReq_SDKC2Ev, 
                       __ZN6AriSdk40ARI_IBINetRegisteredPlmnNameIndCb_V1_SDK4packEPP6AriMsg, 
                       __ZN6AriSdk40ARI_IBINetRegisteredPlmnNameIndCb_V1_SDK6unpackEv, 
                       __ZN6AriSdk40ARI_IBINetRegisteredPlmnNameIndCb_V1_SDKC1EPKhj, 
                       __ZN6AriSdk40ARI_IBINetRegisteredPlmnNameIndCb_V1_SDKC1Ev, 
                       __ZN6AriSdk40ARI_IBINetRegisteredPlmnNameIndCb_V1_SDKC2EPKhj, 
                       __ZN6AriSdk40ARI_IBINetRegisteredPlmnNameIndCb_V1_SDKC2Ev, 
                       __ZN6AriSdk40ARI_IBISimPbGetMetaInformationReq_V1_SDK4packEPP6AriMsg, 
                       __ZN6AriSdk40ARI_IBISimPbGetMetaInformationReq_V1_SDK6unpackEv, 
                       __ZN6AriSdk40ARI_IBISimPbGetMetaInformationReq_V1_SDKC1EPKhj, 
                       __ZN6AriSdk40ARI_IBISimPbGetMetaInformationReq_V1_SDKC1Ev, 
                       __ZN6AriSdk40ARI_IBISimPbGetMetaInformationReq_V1_SDKC2EPKhj, 
                       __ZN6AriSdk40ARI_IBISimPbGetMetaInformationReq_V1_SDKC2Ev, 
                       __ZN6AriSdk40ARI_IBISmsQueryMoreMessagesStatusReq_SDK4packEPP6AriMsg, 
                       __ZN6AriSdk40ARI_IBISmsQueryMoreMessagesStatusReq_SDK6unpackEv, 
                       __ZN6AriSdk40ARI_IBISmsQueryMoreMessagesStatusReq_SDKC1EPKhj, 
                       __ZN6AriSdk40ARI_IBISmsQueryMoreMessagesStatusReq_SDKC1Ev, 
                       __ZN6AriSdk40ARI_IBISmsQueryMoreMessagesStatusReq_SDKC2EPKhj, 
                       __ZN6AriSdk40ARI_IBISmsQueryMoreMessagesStatusReq_SDKC2Ev, 
                       __ZN6AriSdk41ARI_CsiIceSecActivationRegisterRespCb_SDK4packEPP6AriMsg, 
                       __ZN6AriSdk41ARI_CsiIceSecActivationRegisterRespCb_SDK6unpackEv, 
                       __ZN6AriSdk41ARI_CsiIceSecActivationRegisterRespCb_SDKC1EPKhj, 
                       __ZN6AriSdk41ARI_CsiIceSecActivationRegisterRespCb_SDKC1Ev, 
                       __ZN6AriSdk41ARI_CsiIceSecActivationRegisterRespCb_SDKC2EPKhj, 
                       __ZN6AriSdk41ARI_CsiIceSecActivationRegisterRespCb_SDKC2Ev, 
                       __ZN6AriSdk41ARI_CsiIdcRTGetLinkQualityReportRspCb_SDK4packEPP6AriMsg, 
                       __ZN6AriSdk41ARI_CsiIdcRTGetLinkQualityReportRspCb_SDK6unpackEv, 
                       __ZN6AriSdk41ARI_CsiIdcRTGetLinkQualityReportRspCb_SDKC1EPKhj, 
                       __ZN6AriSdk41ARI_CsiIdcRTGetLinkQualityReportRspCb_SDKC1Ev, 
                       __ZN6AriSdk41ARI_CsiIdcRTGetLinkQualityReportRspCb_SDKC2EPKhj, 
                       __ZN6AriSdk41ARI_CsiIdcRTGetLinkQualityReportRspCb_SDKC2Ev, 
                       __ZN6AriSdk41ARI_CsiIdcRTSetLinkQualityReportRspCb_SDK4packEPP6AriMsg, 
                       __ZN6AriSdk41ARI_CsiIdcRTSetLinkQualityReportRspCb_SDK6unpackEv, 
                       __ZN6AriSdk41ARI_CsiIdcRTSetLinkQualityReportRspCb_SDKC1EPKhj, 
                       __ZN6AriSdk41ARI_CsiIdcRTSetLinkQualityReportRspCb_SDKC1Ev, 
                       __ZN6AriSdk41ARI_CsiIdcRTSetLinkQualityReportRspCb_SDKC2EPKhj, 
                       __ZN6AriSdk41ARI_CsiIdcRTSetLinkQualityReportRspCb_SDKC2Ev, 
                       __ZN6AriSdk41ARI_IBICallCsEmergencyNumberListIndCb_SDK4packEPP6AriMsg, 
                       __ZN6AriSdk41ARI_IBICallCsEmergencyNumberListIndCb_SDK6unpackEv, 
                       __ZN6AriSdk41ARI_IBICallCsEmergencyNumberListIndCb_SDKC1EPKhj, 
                       __ZN6AriSdk41ARI_IBICallCsEmergencyNumberListIndCb_SDKC1Ev, 
                       __ZN6AriSdk41ARI_IBICallCsEmergencyNumberListIndCb_SDKC2EPKhj, 
                       __ZN6AriSdk41ARI_IBICallCsEmergencyNumberListIndCb_SDKC2Ev, 
                       __ZN6AriSdk41ARI_IBICallCsGetSpeechCodecOrderRspCb_SDK4packEPP6AriMsg, 
                       __ZN6AriSdk41ARI_IBICallCsGetSpeechCodecOrderRspCb_SDK6unpackEv, 
                       __ZN6AriSdk41ARI_IBICallCsGetSpeechCodecOrderRspCb_SDKC1EPKhj, 
                       __ZN6AriSdk41ARI_IBICallCsGetSpeechCodecOrderRspCb_SDKC1Ev, 
                       __ZN6AriSdk41ARI_IBICallCsGetSpeechCodecOrderRspCb_SDKC2EPKhj, 
                       __ZN6AriSdk41ARI_IBICallCsGetSpeechCodecOrderRspCb_SDKC2Ev, 
                       __ZN6AriSdk41ARI_IBICallCsGetTtyDeviceModeRspCb_V2_SDK4packEPP6AriMsg, 
                       __ZN6AriSdk41ARI_IBICallCsGetTtyDeviceModeRspCb_V2_SDK6unpackEv, 
                       __ZN6AriSdk41ARI_IBICallCsGetTtyDeviceModeRspCb_V2_SDKC1EPKhj, 
                       __ZN6AriSdk41ARI_IBICallCsGetTtyDeviceModeRspCb_V2_SDKC1Ev, 
                       __ZN6AriSdk41ARI_IBICallCsGetTtyDeviceModeRspCb_V2_SDKC2EPKhj, 
                       __ZN6AriSdk41ARI_IBICallCsGetTtyDeviceModeRspCb_V2_SDKC2Ev, 
                       __ZN6AriSdk41ARI_IBICallCsSetSpeechCodecOrderRspCb_SDK4packEPP6AriMsg, 
                       __ZN6AriSdk41ARI_IBICallCsSetSpeechCodecOrderRspCb_SDK6unpackEv, 
                       __ZN6AriSdk41ARI_IBICallCsSetSpeechCodecOrderRspCb_SDKC1EPKhj, 
                       __ZN6AriSdk41ARI_IBICallCsSetSpeechCodecOrderRspCb_SDKC1Ev, 
                       __ZN6AriSdk41ARI_IBICallCsSetSpeechCodecOrderRspCb_SDKC2EPKhj, 
                       __ZN6AriSdk41ARI_IBICallCsSetSpeechCodecOrderRspCb_SDKC2Ev, 
                       __ZN6AriSdk41ARI_IBICallPsSetKeepaliveOffloadRspCb_SDK4packEPP6AriMsg, 
                       __ZN6AriSdk41ARI_IBICallPsSetKeepaliveOffloadRspCb_SDK6unpackEv, 
                       __ZN6AriSdk41ARI_IBICallPsSetKeepaliveOffloadRspCb_SDKC1EPKhj, 
                       __ZN6AriSdk41ARI_IBICallPsSetKeepaliveOffloadRspCb_SDKC1Ev, 
                       __ZN6AriSdk41ARI_IBICallPsSetKeepaliveOffloadRspCb_SDKC2EPKhj, 
                       __ZN6AriSdk41ARI_IBICallPsSetKeepaliveOffloadRspCb_SDKC2Ev, 
                       __ZN6AriSdk41ARI_IBICbsEtwsNotifyPrimaryWarningInd_SDK4packEPP6AriMsg, 
                       __ZN6AriSdk41ARI_IBICbsEtwsNotifyPrimaryWarningInd_SDK6unpackEv, 
                       __ZN6AriSdk41ARI_IBICbsEtwsNotifyPrimaryWarningInd_SDKC1EPKhj, 
                       __ZN6AriSdk41ARI_IBICbsEtwsNotifyPrimaryWarningInd_SDKC1Ev, 
                       __ZN6AriSdk41ARI_IBICbsEtwsNotifyPrimaryWarningInd_SDKC2EPKhj, 
                       __ZN6AriSdk41ARI_IBICbsEtwsNotifyPrimaryWarningInd_SDKC2Ev, 
                       __ZN6AriSdk41ARI_IBINetCellLteAcBarringStatusIndCb_SDK4packEPP6AriMsg, 
                       __ZN6AriSdk41ARI_IBINetCellLteAcBarringStatusIndCb_SDK6unpackEv, 
                       __ZN6AriSdk41ARI_IBINetCellLteAcBarringStatusIndCb_SDKC1EPKhj, 
                       __ZN6AriSdk41ARI_IBINetCellLteAcBarringStatusIndCb_SDKC1Ev, 
                       __ZN6AriSdk41ARI_IBINetCellLteAcBarringStatusIndCb_SDKC2EPKhj, 
                       __ZN6AriSdk41ARI_IBINetCellLteAcBarringStatusIndCb_SDKC2Ev, 
                       __ZN6AriSdk41ARI_IBINetDcImsGetImsRegStatusInfoReq_SDK4packEPP6AriMsg, 
                       __ZN6AriSdk41ARI_IBINetDcImsGetImsRegStatusInfoReq_SDK6unpackEv, 
                       __ZN6AriSdk41ARI_IBINetDcImsGetImsRegStatusInfoReq_SDKC1EPKhj, 
                       __ZN6AriSdk41ARI_IBINetDcImsGetImsRegStatusInfoReq_SDKC1Ev, 
                       __ZN6AriSdk41ARI_IBINetDcImsGetImsRegStatusInfoReq_SDKC2EPKhj, 
                       __ZN6AriSdk41ARI_IBINetDcImsGetImsRegStatusInfoReq_SDKC2Ev, 
                       __ZN6AriSdk42ARI_CsiIceSecActivationTicketSetRespCb_SDK4packEPP6AriMsg, 
                       __ZN6AriSdk42ARI_CsiIceSecActivationTicketSetRespCb_SDK6unpackEv, 
                       __ZN6AriSdk42ARI_CsiIceSecActivationTicketSetRespCb_SDKC1EPKhj, 
                       __ZN6AriSdk42ARI_CsiIceSecActivationTicketSetRespCb_SDKC1Ev, 
                       __ZN6AriSdk42ARI_CsiIceSecActivationTicketSetRespCb_SDKC2EPKhj, 
                       __ZN6AriSdk42ARI_CsiIceSecActivationTicketSetRespCb_SDKC2Ev, 
                       __ZN6AriSdk42ARI_IBICallCsVoimsSessionTransferRspCb_SDK4packEPP6AriMsg, 
                       __ZN6AriSdk42ARI_IBICallCsVoimsSessionTransferRspCb_SDK6unpackEv, 
                       __ZN6AriSdk42ARI_IBICallCsVoimsSessionTransferRspCb_SDKC1EPKhj, 
                       __ZN6AriSdk42ARI_IBICallCsVoimsSessionTransferRspCb_SDKC1Ev, 
                       __ZN6AriSdk42ARI_IBICallCsVoimsSessionTransferRspCb_SDKC2EPKhj, 
                       __ZN6AriSdk42ARI_IBICallCsVoimsSessionTransferRspCb_SDKC2Ev, 
                       __ZN6AriSdk42ARI_IBIImsMECreateAudioMediaSessionReq_SDK4packEPP6AriMsg, 
                       __ZN6AriSdk42ARI_IBIImsMECreateAudioMediaSessionReq_SDK6unpackEv, 
                       __ZN6AriSdk42ARI_IBIImsMECreateAudioMediaSessionReq_SDKC1EPKhj, 
                       __ZN6AriSdk42ARI_IBIImsMECreateAudioMediaSessionReq_SDKC1Ev, 
                       __ZN6AriSdk42ARI_IBIImsMECreateAudioMediaSessionReq_SDKC2EPKhj, 
                       __ZN6AriSdk42ARI_IBIImsMECreateAudioMediaSessionReq_SDKC2Ev, 
                       __ZN6AriSdk42ARI_IBIImsMETerminateMediaSessionRspCb_SDK4packEPP6AriMsg, 
                       __ZN6AriSdk42ARI_IBIImsMETerminateMediaSessionRspCb_SDK6unpackEv, 
                       __ZN6AriSdk42ARI_IBIImsMETerminateMediaSessionRspCb_SDKC1EPKhj, 
                       __ZN6AriSdk42ARI_IBIImsMETerminateMediaSessionRspCb_SDKC1Ev, 
                       __ZN6AriSdk42ARI_IBIImsMETerminateMediaSessionRspCb_SDKC2EPKhj, 
                       __ZN6AriSdk42ARI_IBIImsMETerminateMediaSessionRspCb_SDKC2Ev, 
                       __ZN6AriSdk42ARI_IBIMsLpGanssRealTimeIntegrityIndCb_SDK4packEPP6AriMsg, 
                       __ZN6AriSdk42ARI_IBIMsLpGanssRealTimeIntegrityIndCb_SDK6unpackEv, 
                       __ZN6AriSdk42ARI_IBIMsLpGanssRealTimeIntegrityIndCb_SDKC1EPKhj, 
                       __ZN6AriSdk42ARI_IBIMsLpGanssRealTimeIntegrityIndCb_SDKC1Ev, 
                       __ZN6AriSdk42ARI_IBIMsLpGanssRealTimeIntegrityIndCb_SDKC2EPKhj, 
                       __ZN6AriSdk42ARI_IBIMsLpGanssRealTimeIntegrityIndCb_SDKC2Ev, 
                       __ZN6AriSdk42ARI_IBIMsLpGanssReferenceLocationIndCb_SDK4packEPP6AriMsg, 
                       __ZN6AriSdk42ARI_IBIMsLpGanssReferenceLocationIndCb_SDK6unpackEv, 
                       __ZN6AriSdk42ARI_IBIMsLpGanssReferenceLocationIndCb_SDKC1EPKhj, 
                       __ZN6AriSdk42ARI_IBIMsLpGanssReferenceLocationIndCb_SDKC1Ev, 
                       __ZN6AriSdk42ARI_IBIMsLpGanssReferenceLocationIndCb_SDKC2EPKhj, 
                       __ZN6AriSdk42ARI_IBIMsLpGanssReferenceLocationIndCb_SDKC2Ev, 
                       __ZN6AriSdk42ARI_IBIMsLpGlonassNavigationModelIndCb_SDK4packEPP6AriMsg, 
                       __ZN6AriSdk42ARI_IBIMsLpGlonassNavigationModelIndCb_SDK6unpackEv, 
                       __ZN6AriSdk42ARI_IBIMsLpGlonassNavigationModelIndCb_SDKC1EPKhj, 
                       __ZN6AriSdk42ARI_IBIMsLpGlonassNavigationModelIndCb_SDKC1Ev, 
                       __ZN6AriSdk42ARI_IBIMsLpGlonassNavigationModelIndCb_SDKC2EPKhj, 
                       __ZN6AriSdk42ARI_IBIMsLpGlonassNavigationModelIndCb_SDKC2Ev, 
                       __ZN6AriSdk42ARI_IBIMsSsLcsMtlrNotificationRspAckCb_SDK4packEPP6AriMsg, 
                       __ZN6AriSdk42ARI_IBIMsSsLcsMtlrNotificationRspAckCb_SDK6unpackEv, 
                       __ZN6AriSdk42ARI_IBIMsSsLcsMtlrNotificationRspAckCb_SDKC1EPKhj, 
                       __ZN6AriSdk42ARI_IBIMsSsLcsMtlrNotificationRspAckCb_SDKC1Ev, 
                       __ZN6AriSdk42ARI_IBIMsSsLcsMtlrNotificationRspAckCb_SDKC2EPKhj, 
                       __ZN6AriSdk42ARI_IBIMsSsLcsMtlrNotificationRspAckCb_SDKC2Ev, 
                       __ZN6AriSdk42ARI_IBIMsSsLcsPositioningCapabilityReq_SDK4packEPP6AriMsg, 
                       __ZN6AriSdk42ARI_IBIMsSsLcsPositioningCapabilityReq_SDK6unpackEv, 
                       __ZN6AriSdk42ARI_IBIMsSsLcsPositioningCapabilityReq_SDKC1EPKhj, 
                       __ZN6AriSdk42ARI_IBIMsSsLcsPositioningCapabilityReq_SDKC1Ev, 
                       __ZN6AriSdk42ARI_IBIMsSsLcsPositioningCapabilityReq_SDKC2EPKhj, 
                       __ZN6AriSdk42ARI_IBIMsSsLcsPositioningCapabilityReq_SDKC2Ev, 
                       __ZN6AriSdk42ARI_IBINetDcImsProvideImsRegStatusInfo_SDK4packEPP6AriMsg, 
                       __ZN6AriSdk42ARI_IBINetDcImsProvideImsRegStatusInfo_SDK6unpackEv, 
                       __ZN6AriSdk42ARI_IBINetDcImsProvideImsRegStatusInfo_SDKC1EPKhj, 
                       __ZN6AriSdk42ARI_IBINetDcImsProvideImsRegStatusInfo_SDKC1Ev, 
                       __ZN6AriSdk42ARI_IBINetDcImsProvideImsRegStatusInfo_SDKC2EPKhj, 
                       __ZN6AriSdk42ARI_IBINetDcImsProvideImsRegStatusInfo_SDKC2Ev, 
                       __ZN6AriSdk42ARI_IBINetIceCellularSwitchStatusRspCb_SDK4packEPP6AriMsg, 
                       __ZN6AriSdk42ARI_IBINetIceCellularSwitchStatusRspCb_SDK6unpackEv, 
                       __ZN6AriSdk42ARI_IBINetIceCellularSwitchStatusRspCb_SDKC1EPKhj, 
                       __ZN6AriSdk42ARI_IBINetIceCellularSwitchStatusRspCb_SDKC1Ev, 
                       __ZN6AriSdk42ARI_IBINetIceCellularSwitchStatusRspCb_SDKC2EPKhj, 
                       __ZN6AriSdk42ARI_IBINetIceCellularSwitchStatusRspCb_SDKC2Ev, 
                       __ZN6AriSdk42ARI_IBISimPbGetMetaInformationIndCb_V1_SDK4packEPP6AriMsg, 
                       __ZN6AriSdk42ARI_IBISimPbGetMetaInformationIndCb_V1_SDK6unpackEv, 
                       __ZN6AriSdk42ARI_IBISimPbGetMetaInformationIndCb_V1_SDKC1EPKhj, 
                       __ZN6AriSdk42ARI_IBISimPbGetMetaInformationIndCb_V1_SDKC1Ev, 
                       __ZN6AriSdk42ARI_IBISimPbGetMetaInformationIndCb_V1_SDKC2EPKhj, 
                       __ZN6AriSdk42ARI_IBISimPbGetMetaInformationIndCb_V1_SDKC2Ev, 
                       __ZN6AriSdk42ARI_IBISimPbGetMetaInformationRspCb_V1_SDK4packEPP6AriMsg, 
                       __ZN6AriSdk42ARI_IBISimPbGetMetaInformationRspCb_V1_SDK6unpackEv, 
                       __ZN6AriSdk42ARI_IBISimPbGetMetaInformationRspCb_V1_SDKC1EPKhj, 
                       __ZN6AriSdk42ARI_IBISimPbGetMetaInformationRspCb_V1_SDKC1Ev, 
                       __ZN6AriSdk42ARI_IBISimPbGetMetaInformationRspCb_V1_SDKC2EPKhj, 
                       __ZN6AriSdk42ARI_IBISimPbGetMetaInformationRspCb_V1_SDKC2Ev, 
                       __ZN6AriSdk42ARI_IBISmsQueryMoreMessagesStatusRspCb_SDK4packEPP6AriMsg, 
                       __ZN6AriSdk42ARI_IBISmsQueryMoreMessagesStatusRspCb_SDK6unpackEv, 
                       __ZN6AriSdk42ARI_IBISmsQueryMoreMessagesStatusRspCb_SDKC1EPKhj, 
                       __ZN6AriSdk42ARI_IBISmsQueryMoreMessagesStatusRspCb_SDKC1Ev, 
                       __ZN6AriSdk42ARI_IBISmsQueryMoreMessagesStatusRspCb_SDKC2EPKhj, 
                       __ZN6AriSdk42ARI_IBISmsQueryMoreMessagesStatusRspCb_SDKC2Ev, 
                       __ZN6AriSdk43ARI_CsiIdcRTLinkQualityReportEventIndCb_SDK4packEPP6AriMsg, 
                       __ZN6AriSdk43ARI_CsiIdcRTLinkQualityReportEventIndCb_SDK6unpackEv, 
                       __ZN6AriSdk43ARI_CsiIdcRTLinkQualityReportEventIndCb_SDKC1EPKhj, 
                       __ZN6AriSdk43ARI_CsiIdcRTLinkQualityReportEventIndCb_SDKC1Ev, 
                       __ZN6AriSdk43ARI_CsiIdcRTLinkQualityReportEventIndCb_SDKC2EPKhj, 
                       __ZN6AriSdk43ARI_CsiIdcRTLinkQualityReportEventIndCb_SDKC2Ev, 
                       __ZN6AriSdk43ARI_IBICbsEtwsNotifySecondaryWarningInd_SDK4packEPP6AriMsg, 
                       __ZN6AriSdk43ARI_IBICbsEtwsNotifySecondaryWarningInd_SDK6unpackEv, 
                       __ZN6AriSdk43ARI_IBICbsEtwsNotifySecondaryWarningInd_SDKC1EPKhj, 
                       __ZN6AriSdk43ARI_IBICbsEtwsNotifySecondaryWarningInd_SDKC1Ev, 
                       __ZN6AriSdk43ARI_IBICbsEtwsNotifySecondaryWarningInd_SDKC2EPKhj, 
                       __ZN6AriSdk43ARI_IBICbsEtwsNotifySecondaryWarningInd_SDKC2Ev, 
                       __ZN6AriSdk43ARI_IBINetDcImsGetImsRegStatusInfoRspCb_SDK4packEPP6AriMsg, 
                       __ZN6AriSdk43ARI_IBINetDcImsGetImsRegStatusInfoRspCb_SDK6unpackEv, 
                       __ZN6AriSdk43ARI_IBINetDcImsGetImsRegStatusInfoRspCb_SDKC1EPKhj, 
                       __ZN6AriSdk43ARI_IBINetDcImsGetImsRegStatusInfoRspCb_SDKC1Ev, 
                       __ZN6AriSdk43ARI_IBINetDcImsGetImsRegStatusInfoRspCb_SDKC2EPKhj, 
                       __ZN6AriSdk43ARI_IBINetDcImsGetImsRegStatusInfoRspCb_SDKC2Ev, 
                       __ZN6AriSdk43ARI_IBINetDcImsProvideImsRegStatusRspCb_SDK4packEPP6AriMsg, 
                       __ZN6AriSdk43ARI_IBINetDcImsProvideImsRegStatusRspCb_SDK6unpackEv, 
                       __ZN6AriSdk43ARI_IBINetDcImsProvideImsRegStatusRspCb_SDKC1EPKhj, 
                       __ZN6AriSdk43ARI_IBINetDcImsProvideImsRegStatusRspCb_SDKC1Ev, 
                       __ZN6AriSdk43ARI_IBINetDcImsProvideImsRegStatusRspCb_SDKC2EPKhj, 
                       __ZN6AriSdk43ARI_IBINetDcImsProvideImsRegStatusRspCb_SDKC2Ev, 
                       __ZN6AriSdk44ARI_AriUtaModeInitialSwitchCompleteIndCb_SDK4packEPP6AriMsg, 
                       __ZN6AriSdk44ARI_AriUtaModeInitialSwitchCompleteIndCb_SDK6unpackEv, 
                       __ZN6AriSdk44ARI_AriUtaModeInitialSwitchCompleteIndCb_SDKC1EPKhj, 
                       __ZN6AriSdk44ARI_AriUtaModeInitialSwitchCompleteIndCb_SDKC1Ev, 
                       __ZN6AriSdk44ARI_AriUtaModeInitialSwitchCompleteIndCb_SDKC2EPKhj, 
                       __ZN6AriSdk44ARI_AriUtaModeInitialSwitchCompleteIndCb_SDKC2Ev, 
                       __ZN6AriSdk44ARI_IBIImsMECreateAudioMediaSessionRspCb_SDK4packEPP6AriMsg, 
                       __ZN6AriSdk44ARI_IBIImsMECreateAudioMediaSessionRspCb_SDK6unpackEv, 
                       __ZN6AriSdk44ARI_IBIImsMECreateAudioMediaSessionRspCb_SDKC1EPKhj, 
                       __ZN6AriSdk44ARI_IBIImsMECreateAudioMediaSessionRspCb_SDKC1Ev, 
                       __ZN6AriSdk44ARI_IBIImsMECreateAudioMediaSessionRspCb_SDKC2EPKhj, 
                       __ZN6AriSdk44ARI_IBIImsMECreateAudioMediaSessionRspCb_SDKC2Ev, 
                       __ZN6AriSdk44ARI_IBIMsCpPosEnableMeasurementReportReq_SDK4packEPP6AriMsg, 
                       __ZN6AriSdk44ARI_IBIMsCpPosEnableMeasurementReportReq_SDK6unpackEv, 
                       __ZN6AriSdk44ARI_IBIMsCpPosEnableMeasurementReportReq_SDKC1EPKhj, 
                       __ZN6AriSdk44ARI_IBIMsCpPosEnableMeasurementReportReq_SDKC1Ev, 
                       __ZN6AriSdk44ARI_IBIMsCpPosEnableMeasurementReportReq_SDKC2EPKhj, 
                       __ZN6AriSdk44ARI_IBIMsCpPosEnableMeasurementReportReq_SDKC2Ev, 
                       __ZN6AriSdk44ARI_IBIMsLpGpsAcquisitionAssistanceIndCb_SDK4packEPP6AriMsg, 
                       __ZN6AriSdk44ARI_IBIMsLpGpsAcquisitionAssistanceIndCb_SDK6unpackEv, 
                       __ZN6AriSdk44ARI_IBIMsLpGpsAcquisitionAssistanceIndCb_SDKC1EPKhj, 
                       __ZN6AriSdk44ARI_IBIMsLpGpsAcquisitionAssistanceIndCb_SDKC1Ev, 
                       __ZN6AriSdk44ARI_IBIMsLpGpsAcquisitionAssistanceIndCb_SDKC2EPKhj, 
                       __ZN6AriSdk44ARI_IBIMsLpGpsAcquisitionAssistanceIndCb_SDKC2Ev, 
                       __ZN6AriSdk44ARI_IBIMsLpPosLocationRequestStatusIndCb_SDK4packEPP6AriMsg, 
                       __ZN6AriSdk44ARI_IBIMsLpPosLocationRequestStatusIndCb_SDK6unpackEv, 
                       __ZN6AriSdk44ARI_IBIMsLpPosLocationRequestStatusIndCb_SDKC1EPKhj, 
                       __ZN6AriSdk44ARI_IBIMsLpPosLocationRequestStatusIndCb_SDKC1Ev, 
                       __ZN6AriSdk44ARI_IBIMsLpPosLocationRequestStatusIndCb_SDKC2EPKhj, 
                       __ZN6AriSdk44ARI_IBIMsLpPosLocationRequestStatusIndCb_SDKC2Ev, 
                       __ZN6AriSdk44ARI_IBIMsSsLcsPositioningCapabilityRspCb_SDK4packEPP6AriMsg, 
                       __ZN6AriSdk44ARI_IBIMsSsLcsPositioningCapabilityRspCb_SDK6unpackEv, 
                       __ZN6AriSdk44ARI_IBIMsSsLcsPositioningCapabilityRspCb_SDKC1EPKhj, 
                       __ZN6AriSdk44ARI_IBIMsSsLcsPositioningCapabilityRspCb_SDKC1Ev, 
                       __ZN6AriSdk44ARI_IBIMsSsLcsPositioningCapabilityRspCb_SDKC2EPKhj, 
                       __ZN6AriSdk44ARI_IBIMsSsLcsPositioningCapabilityRspCb_SDKC2Ev, 
                       __ZN6AriSdk44ARI_IBINetNetworkFeatureSupportInfoIndCb_SDK4packEPP6AriMsg, 
                       __ZN6AriSdk44ARI_IBINetNetworkFeatureSupportInfoIndCb_SDK6unpackEv, 
                       __ZN6AriSdk44ARI_IBINetNetworkFeatureSupportInfoIndCb_SDKC1EPKhj, 
                       __ZN6AriSdk44ARI_IBINetNetworkFeatureSupportInfoIndCb_SDKC1Ev, 
                       __ZN6AriSdk44ARI_IBINetNetworkFeatureSupportInfoIndCb_SDKC2EPKhj, 
                       __ZN6AriSdk44ARI_IBINetNetworkFeatureSupportInfoIndCb_SDKC2Ev, 
                       __ZN6AriSdk45ARI_CsiIdcRTSetLinkQualityReportConfigReq_SDK4packEPP6AriMsg, 
                       __ZN6AriSdk45ARI_CsiIdcRTSetLinkQualityReportConfigReq_SDK6unpackEv, 
                       __ZN6AriSdk45ARI_CsiIdcRTSetLinkQualityReportConfigReq_SDKC1EPKhj, 
                       __ZN6AriSdk45ARI_CsiIdcRTSetLinkQualityReportConfigReq_SDKC1Ev, 
                       __ZN6AriSdk45ARI_CsiIdcRTSetLinkQualityReportConfigReq_SDKC2EPKhj, 
                       __ZN6AriSdk45ARI_CsiIdcRTSetLinkQualityReportConfigReq_SDKC2Ev, 
                       __ZN6AriSdk45ARI_IBICallPsAllowMultiplePDNToSameApnReq_SDK4packEPP6AriMsg, 
                       __ZN6AriSdk45ARI_IBICallPsAllowMultiplePDNToSameApnReq_SDK6unpackEv, 
                       __ZN6AriSdk45ARI_IBICallPsAllowMultiplePDNToSameApnReq_SDKC1EPKhj, 
                       __ZN6AriSdk45ARI_IBICallPsAllowMultiplePDNToSameApnReq_SDKC1Ev, 
                       __ZN6AriSdk45ARI_IBICallPsAllowMultiplePDNToSameApnReq_SDKC2EPKhj, 
                       __ZN6AriSdk45ARI_IBICallPsAllowMultiplePDNToSameApnReq_SDKC2Ev, 
                       __ZN6AriSdk45ARI_IBIMsCpPosDisableMeasurementReportReq_SDK4packEPP6AriMsg, 
                       __ZN6AriSdk45ARI_IBIMsCpPosDisableMeasurementReportReq_SDK6unpackEv, 
                       __ZN6AriSdk45ARI_IBIMsCpPosDisableMeasurementReportReq_SDKC1EPKhj, 
                       __ZN6AriSdk45ARI_IBIMsCpPosDisableMeasurementReportReq_SDKC1Ev, 
                       __ZN6AriSdk45ARI_IBIMsCpPosDisableMeasurementReportReq_SDKC2EPKhj, 
                       __ZN6AriSdk45ARI_IBIMsCpPosDisableMeasurementReportReq_SDKC2Ev, 
                       __ZN6AriSdk45ARI_IBIMsLpMeasurePositionLocationInfoRsp_SDK4packEPP6AriMsg, 
                       __ZN6AriSdk45ARI_IBIMsLpMeasurePositionLocationInfoRsp_SDK6unpackEv, 
                       __ZN6AriSdk45ARI_IBIMsLpMeasurePositionLocationInfoRsp_SDKC1EPKhj, 
                       __ZN6AriSdk45ARI_IBIMsLpMeasurePositionLocationInfoRsp_SDKC1Ev, 
                       __ZN6AriSdk45ARI_IBIMsLpMeasurePositionLocationInfoRsp_SDKC2EPKhj, 
                       __ZN6AriSdk45ARI_IBIMsLpMeasurePositionLocationInfoRsp_SDKC2Ev, 
                       __ZN6AriSdk45ARI_IBIMsLpMeasurePositionMeasurementsRsp_SDK4packEPP6AriMsg, 
                       __ZN6AriSdk45ARI_IBIMsLpMeasurePositionMeasurementsRsp_SDK6unpackEv, 
                       __ZN6AriSdk45ARI_IBIMsLpMeasurePositionMeasurementsRsp_SDKC1EPKhj, 
                       __ZN6AriSdk45ARI_IBIMsLpMeasurePositionMeasurementsRsp_SDKC1Ev, 
                       __ZN6AriSdk45ARI_IBIMsLpMeasurePositionMeasurementsRsp_SDKC2EPKhj, 
                       __ZN6AriSdk45ARI_IBIMsLpMeasurePositionMeasurementsRsp_SDKC2Ev, 
                       __ZN6AriSdk45ARI_IBIMsNetSrvccConfigurationStatusIndCb_SDK4packEPP6AriMsg, 
                       __ZN6AriSdk45ARI_IBIMsNetSrvccConfigurationStatusIndCb_SDK6unpackEv, 
                       __ZN6AriSdk45ARI_IBIMsNetSrvccConfigurationStatusIndCb_SDKC1EPKhj, 
                       __ZN6AriSdk45ARI_IBIMsNetSrvccConfigurationStatusIndCb_SDKC1Ev, 
                       __ZN6AriSdk45ARI_IBIMsNetSrvccConfigurationStatusIndCb_SDKC2EPKhj, 
                       __ZN6AriSdk45ARI_IBIMsNetSrvccConfigurationStatusIndCb_SDKC2Ev, 
                       __ZN6AriSdk46ARI_IBIMsCpPosEnableMeasurementReportRspCb_SDK4packEPP6AriMsg, 
                       __ZN6AriSdk46ARI_IBIMsCpPosEnableMeasurementReportRspCb_SDK6unpackEv, 
                       __ZN6AriSdk46ARI_IBIMsCpPosEnableMeasurementReportRspCb_SDKC1EPKhj, 
                       __ZN6AriSdk46ARI_IBIMsCpPosEnableMeasurementReportRspCb_SDKC1Ev, 
                       __ZN6AriSdk46ARI_IBIMsCpPosEnableMeasurementReportRspCb_SDKC2EPKhj, 
                       __ZN6AriSdk46ARI_IBIMsCpPosEnableMeasurementReportRspCb_SDKC2Ev, 
                       __ZN6AriSdk46ARI_IBIMsLpGanssAcquisitionAssistanceIndCb_SDK4packEPP6AriMsg, 
                       __ZN6AriSdk46ARI_IBIMsLpGanssAcquisitionAssistanceIndCb_SDK6unpackEv, 
                       __ZN6AriSdk46ARI_IBIMsLpGanssAcquisitionAssistanceIndCb_SDKC1EPKhj, 
                       __ZN6AriSdk46ARI_IBIMsLpGanssAcquisitionAssistanceIndCb_SDKC1Ev, 
                       __ZN6AriSdk46ARI_IBIMsLpGanssAcquisitionAssistanceIndCb_SDKC2EPKhj, 
                       __ZN6AriSdk46ARI_IBIMsLpGanssAcquisitionAssistanceIndCb_SDKC2Ev, 
                       __ZN6AriSdk46ARI_IBINetDcImsVoiceTerminationConfigIndCb_SDK4packEPP6AriMsg, 
                       __ZN6AriSdk46ARI_IBINetDcImsVoiceTerminationConfigIndCb_SDK6unpackEv, 
                       __ZN6AriSdk46ARI_IBINetDcImsVoiceTerminationConfigIndCb_SDKC1EPKhj, 
                       __ZN6AriSdk46ARI_IBINetDcImsVoiceTerminationConfigIndCb_SDKC1Ev, 
                       __ZN6AriSdk46ARI_IBINetDcImsVoiceTerminationConfigIndCb_SDKC2EPKhj, 
                       __ZN6AriSdk46ARI_IBINetDcImsVoiceTerminationConfigIndCb_SDKC2Ev, 
                       __ZN6AriSdk47ARI_IBICallPsAllowMultiplePDNToSameApnRspCb_SDK4packEPP6AriMsg, 
                       __ZN6AriSdk47ARI_IBICallPsAllowMultiplePDNToSameApnRspCb_SDK6unpackEv, 
                       __ZN6AriSdk47ARI_IBICallPsAllowMultiplePDNToSameApnRspCb_SDKC1EPKhj, 
                       __ZN6AriSdk47ARI_IBICallPsAllowMultiplePDNToSameApnRspCb_SDKC1Ev, 
                       __ZN6AriSdk47ARI_IBICallPsAllowMultiplePDNToSameApnRspCb_SDKC2EPKhj, 
                       __ZN6AriSdk47ARI_IBICallPsAllowMultiplePDNToSameApnRspCb_SDKC2Ev, 
                       __ZN6AriSdk47ARI_IBIMsCpPosDisableMeasurementReportRspCb_SDK4packEPP6AriMsg, 
                       __ZN6AriSdk47ARI_IBIMsCpPosDisableMeasurementReportRspCb_SDK6unpackEv, 
                       __ZN6AriSdk47ARI_IBIMsCpPosDisableMeasurementReportRspCb_SDKC1EPKhj, 
                       __ZN6AriSdk47ARI_IBIMsCpPosDisableMeasurementReportRspCb_SDKC1Ev, 
                       __ZN6AriSdk47ARI_IBIMsCpPosDisableMeasurementReportRspCb_SDKC2EPKhj, 
                       __ZN6AriSdk47ARI_IBIMsCpPosDisableMeasurementReportRspCb_SDKC2Ev, 
                       __ZN6AriSdk47ARI_IBINetSingleShotRadioSignalReportingReq_SDK4packEPP6AriMsg, 
                       __ZN6AriSdk47ARI_IBINetSingleShotRadioSignalReportingReq_SDK6unpackEv, 
                       __ZN6AriSdk47ARI_IBINetSingleShotRadioSignalReportingReq_SDKC1EPKhj, 
                       __ZN6AriSdk47ARI_IBINetSingleShotRadioSignalReportingReq_SDKC1Ev, 
                       __ZN6AriSdk47ARI_IBINetSingleShotRadioSignalReportingReq_SDKC2EPKhj, 
                       __ZN6AriSdk47ARI_IBINetSingleShotRadioSignalReportingReq_SDKC2Ev, 
                       __ZN6AriSdk49ARI_IBINetDcSetVoiceDomainPreferenceConfigReq_SDK4packEPP6AriMsg, 
                       __ZN6AriSdk49ARI_IBINetDcSetVoiceDomainPreferenceConfigReq_SDK6unpackEv, 
                       __ZN6AriSdk49ARI_IBINetDcSetVoiceDomainPreferenceConfigReq_SDKC1EPKhj, 
                       __ZN6AriSdk49ARI_IBINetDcSetVoiceDomainPreferenceConfigReq_SDKC1Ev, 
                       __ZN6AriSdk49ARI_IBINetDcSetVoiceDomainPreferenceConfigReq_SDKC2EPKhj, 
                       __ZN6AriSdk49ARI_IBINetDcSetVoiceDomainPreferenceConfigReq_SDKC2Ev, 
                       __ZN6AriSdk49ARI_IBINetSingleShotRadioSignalReportingRspCb_SDK4packEPP6AriMsg, 
                       __ZN6AriSdk49ARI_IBINetSingleShotRadioSignalReportingRspCb_SDK6unpackEv, 
                       __ZN6AriSdk49ARI_IBINetSingleShotRadioSignalReportingRspCb_SDKC1EPKhj, 
                       __ZN6AriSdk49ARI_IBINetSingleShotRadioSignalReportingRspCb_SDKC1Ev, 
                       __ZN6AriSdk49ARI_IBINetSingleShotRadioSignalReportingRspCb_SDKC2EPKhj, 
                       __ZN6AriSdk49ARI_IBINetSingleShotRadioSignalReportingRspCb_SDKC2Ev, 
                       __ZN6AriSdk50ARI_IBIMsLpMeasurePositionAssistanceRequestRsp_SDK4packEPP6AriMsg, 
                       __ZN6AriSdk50ARI_IBIMsLpMeasurePositionAssistanceRequestRsp_SDK6unpackEv, 
                       __ZN6AriSdk50ARI_IBIMsLpMeasurePositionAssistanceRequestRsp_SDKC1EPKhj, 
                       __ZN6AriSdk50ARI_IBIMsLpMeasurePositionAssistanceRequestRsp_SDKC1Ev, 
                       __ZN6AriSdk50ARI_IBIMsLpMeasurePositionAssistanceRequestRsp_SDKC2EPKhj, 
                       __ZN6AriSdk50ARI_IBIMsLpMeasurePositionAssistanceRequestRsp_SDKC2Ev, 
                       __ZN6AriSdk50ARI_IBIMsLpMeasurePositionLocationInfoRspAckCb_SDK4packEPP6AriMsg, 
                       __ZN6AriSdk50ARI_IBIMsLpMeasurePositionLocationInfoRspAckCb_SDK6unpackEv, 
                       __ZN6AriSdk50ARI_IBIMsLpMeasurePositionLocationInfoRspAckCb_SDKC1EPKhj, 
                       __ZN6AriSdk50ARI_IBIMsLpMeasurePositionLocationInfoRspAckCb_SDKC1Ev, 
                       __ZN6AriSdk50ARI_IBIMsLpMeasurePositionLocationInfoRspAckCb_SDKC2EPKhj, 
                       __ZN6AriSdk50ARI_IBIMsLpMeasurePositionLocationInfoRspAckCb_SDKC2Ev, 
                       __ZN6AriSdk50ARI_IBIMsLpMeasurePositionMeasurementsRspAckCb_SDK4packEPP6AriMsg, 
                       __ZN6AriSdk50ARI_IBIMsLpMeasurePositionMeasurementsRspAckCb_SDK6unpackEv, 
                       __ZN6AriSdk50ARI_IBIMsLpMeasurePositionMeasurementsRspAckCb_SDKC1EPKhj, 
                       __ZN6AriSdk50ARI_IBIMsLpMeasurePositionMeasurementsRspAckCb_SDKC1Ev, 
                       __ZN6AriSdk50ARI_IBIMsLpMeasurePositionMeasurementsRspAckCb_SDKC2EPKhj, 
                       __ZN6AriSdk50ARI_IBIMsLpMeasurePositionMeasurementsRspAckCb_SDKC2Ev, 
                       __ZN6AriSdk50ARI_IBIMsLpMeasurePositionMeasurementsShortRsp_SDK4packEPP6AriMsg, 
                       __ZN6AriSdk50ARI_IBIMsLpMeasurePositionMeasurementsShortRsp_SDK6unpackEv, 
                       __ZN6AriSdk50ARI_IBIMsLpMeasurePositionMeasurementsShortRsp_SDKC1EPKhj, 
                       __ZN6AriSdk50ARI_IBIMsLpMeasurePositionMeasurementsShortRsp_SDKC1Ev, 
                       __ZN6AriSdk50ARI_IBIMsLpMeasurePositionMeasurementsShortRsp_SDKC2EPKhj, 
                       __ZN6AriSdk50ARI_IBIMsLpMeasurePositionMeasurementsShortRsp_SDKC2Ev, 
                       __ZN6AriSdk50ARI_IBINetSetRadioSignalReportingConfiguration_SDK4packEPP6AriMsg, 
                       __ZN6AriSdk50ARI_IBINetSetRadioSignalReportingConfiguration_SDK6unpackEv, 
                       __ZN6AriSdk50ARI_IBINetSetRadioSignalReportingConfiguration_SDKC1EPKhj, 
                       __ZN6AriSdk50ARI_IBINetSetRadioSignalReportingConfiguration_SDKC1Ev, 
                       __ZN6AriSdk50ARI_IBINetSetRadioSignalReportingConfiguration_SDKC2EPKhj, 
                       __ZN6AriSdk50ARI_IBINetSetRadioSignalReportingConfiguration_SDKC2Ev, 
                       __ZN6AriSdk51ARI_IBIMsLpGanssAdditionalIonosphericModelIndCb_SDK4packEPP6AriMsg, 
                       __ZN6AriSdk51ARI_IBIMsLpGanssAdditionalIonosphericModelIndCb_SDK6unpackEv, 
                       __ZN6AriSdk51ARI_IBIMsLpGanssAdditionalIonosphericModelIndCb_SDKC1EPKhj, 
                       __ZN6AriSdk51ARI_IBIMsLpGanssAdditionalIonosphericModelIndCb_SDKC1Ev, 
                       __ZN6AriSdk51ARI_IBIMsLpGanssAdditionalIonosphericModelIndCb_SDKC2EPKhj, 
                       __ZN6AriSdk51ARI_IBIMsLpGanssAdditionalIonosphericModelIndCb_SDKC2Ev, 
                       __ZN6AriSdk51ARI_IBINetDcSetVoiceDomainPreferenceConfigRspCb_SDK4packEPP6AriMsg, 
                       __ZN6AriSdk51ARI_IBINetDcSetVoiceDomainPreferenceConfigRspCb_SDK6unpackEv, 
                       __ZN6AriSdk51ARI_IBINetDcSetVoiceDomainPreferenceConfigRspCb_SDKC1EPKhj, 
                       __ZN6AriSdk51ARI_IBINetDcSetVoiceDomainPreferenceConfigRspCb_SDKC1Ev, 
                       __ZN6AriSdk51ARI_IBINetDcSetVoiceDomainPreferenceConfigRspCb_SDKC2EPKhj, 
                       __ZN6AriSdk51ARI_IBINetDcSetVoiceDomainPreferenceConfigRspCb_SDKC2Ev, 
                       __ZN6AriSdk52ARI_IBIMsCallCsVoimsProvideMMTelSessionStatusReq_SDK4packEPP6AriMsg, 
                       __ZN6AriSdk52ARI_IBIMsCallCsVoimsProvideMMTelSessionStatusReq_SDK6unpackEv, 
                       __ZN6AriSdk52ARI_IBIMsCallCsVoimsProvideMMTelSessionStatusReq_SDKC1EPKhj, 
                       __ZN6AriSdk52ARI_IBIMsCallCsVoimsProvideMMTelSessionStatusReq_SDKC1Ev, 
                       __ZN6AriSdk52ARI_IBIMsCallCsVoimsProvideMMTelSessionStatusReq_SDKC2EPKhj, 
                       __ZN6AriSdk52ARI_IBIMsCallCsVoimsProvideMMTelSessionStatusReq_SDKC2Ev, 
                       __ZN6AriSdk53ARI_IBICallCsEmergencyCallIntermediateStatusIndCb_SDK4packEPP6AriMsg, 
                       __ZN6AriSdk53ARI_IBICallCsEmergencyCallIntermediateStatusIndCb_SDK6unpackEv, 
                       __ZN6AriSdk53ARI_IBICallCsEmergencyCallIntermediateStatusIndCb_SDKC1EPKhj, 
                       __ZN6AriSdk53ARI_IBICallCsEmergencyCallIntermediateStatusIndCb_SDKC1Ev, 
                       __ZN6AriSdk53ARI_IBICallCsEmergencyCallIntermediateStatusIndCb_SDKC2EPKhj, 
                       __ZN6AriSdk53ARI_IBICallCsEmergencyCallIntermediateStatusIndCb_SDKC2Ev, 
                       __ZN6AriSdk54ARI_IBIMsCallCsVoimsProvideMMTelSessionStatusRspCb_SDK4packEPP6AriMsg, 
                       __ZN6AriSdk54ARI_IBIMsCallCsVoimsProvideMMTelSessionStatusRspCb_SDK6unpackEv, 
                       __ZN6AriSdk54ARI_IBIMsCallCsVoimsProvideMMTelSessionStatusRspCb_SDKC1EPKhj, 
                       __ZN6AriSdk54ARI_IBIMsCallCsVoimsProvideMMTelSessionStatusRspCb_SDKC1Ev, 
                       __ZN6AriSdk54ARI_IBIMsCallCsVoimsProvideMMTelSessionStatusRspCb_SDKC2EPKhj, 
                       __ZN6AriSdk54ARI_IBIMsCallCsVoimsProvideMMTelSessionStatusRspCb_SDKC2Ev, 
                       __ZN6AriSdk55ARI_IBIMsLpMeasurePositionAssistanceRequestRspAckCb_SDK4packEPP6AriMsg, 
                       __ZN6AriSdk55ARI_IBIMsLpMeasurePositionAssistanceRequestRspAckCb_SDK6unpackEv, 
                       __ZN6AriSdk55ARI_IBIMsLpMeasurePositionAssistanceRequestRspAckCb_SDKC1EPKhj, 
                       __ZN6AriSdk55ARI_IBIMsLpMeasurePositionAssistanceRequestRspAckCb_SDKC1Ev, 
                       __ZN6AriSdk55ARI_IBIMsLpMeasurePositionAssistanceRequestRspAckCb_SDKC2EPKhj, 
                       __ZN6AriSdk55ARI_IBIMsLpMeasurePositionAssistanceRequestRspAckCb_SDKC2Ev, 
                       __ZN6AriSdk55ARI_IBIMsLpMeasurePositionMeasurementsShortRspAckCb_SDK4packEPP6AriMsg, 
                       __ZN6AriSdk55ARI_IBIMsLpMeasurePositionMeasurementsShortRspAckCb_SDK6unpackEv, 
                       __ZN6AriSdk55ARI_IBIMsLpMeasurePositionMeasurementsShortRspAckCb_SDKC1EPKhj, 
                       __ZN6AriSdk55ARI_IBIMsLpMeasurePositionMeasurementsShortRspAckCb_SDKC1Ev, 
                       __ZN6AriSdk55ARI_IBIMsLpMeasurePositionMeasurementsShortRspAckCb_SDKC2EPKhj, 
                       __ZN6AriSdk55ARI_IBIMsLpMeasurePositionMeasurementsShortRspAckCb_SDKC2Ev, 
                       __ZN6AriSdk56ARI_IBINetDcGetVoiceDomainPreferenceConfigurationReq_SDK4packEPP6AriMsg, 
                       __ZN6AriSdk56ARI_IBINetDcGetVoiceDomainPreferenceConfigurationReq_SDK6unpackEv, 
                       __ZN6AriSdk56ARI_IBINetDcGetVoiceDomainPreferenceConfigurationReq_SDKC1EPKhj, 
                       __ZN6AriSdk56ARI_IBINetDcGetVoiceDomainPreferenceConfigurationReq_SDKC1Ev, 
                       __ZN6AriSdk56ARI_IBINetDcGetVoiceDomainPreferenceConfigurationReq_SDKC2EPKhj, 
                       __ZN6AriSdk56ARI_IBINetDcGetVoiceDomainPreferenceConfigurationReq_SDKC2Ev, 
                       __ZN6AriSdk58ARI_IBINetDcGetVoiceDomainPreferenceConfigurationRspCb_SDK4packEPP6AriMsg, 
                       __ZN6AriSdk58ARI_IBINetDcGetVoiceDomainPreferenceConfigurationRspCb_SDK6unpackEv, 
                       __ZN6AriSdk58ARI_IBINetDcGetVoiceDomainPreferenceConfigurationRspCb_SDKC1EPKhj, 
                       __ZN6AriSdk58ARI_IBINetDcGetVoiceDomainPreferenceConfigurationRspCb_SDKC1Ev, 
                       __ZN6AriSdk58ARI_IBINetDcGetVoiceDomainPreferenceConfigurationRspCb_SDKC2EPKhj, 
                       __ZN6AriSdk58ARI_IBINetDcGetVoiceDomainPreferenceConfigurationRspCb_SDKC2Ev, 
                       __ZN6AriSdk7MsgBase11getRawBytesERNSt3__110shared_ptrIKNS1_6vectorIhNS1_9allocatorIhEEEEEE, 
                       __ZN6AriSdk7MsgBase4sendEiRKNSt3__18functionIFiPhjEEE, __ZN6AriSdk7MsgBase4sendEiU13block_pointerFiPhjE, 
                       __ZN6AriSdk7MsgBaseC2EPKhj, __ZN6AriSdk7MsgBaseC2Ejb, __ZN6AriSdk7MsgBaseD1Ev, 
                       __ZN6AriSdk7MsgBaseD2Ev, __ZN7AriHost10CreateNACKEiji, __ZN7AriHost10exitLPM_nlEiy, 
                       __ZN7AriHost11GetInstanceEv, __ZN7AriHost11enterLPM_nlEiyj, 
                       __ZN7AriHost12InternalInitEPv, __ZN7AriHost13RegIndicationEjiU13block_pointerFiPhjE, 
                       __ZN7AriHost14RegisterClientEPKcPiP16dispatch_queue_sj, __ZN7AriHost14startClient_nlEi, 
                       __ZN7AriHost15DeregIndicationEji, __ZN7AriHost15stallClients_nlEv, 
                       __ZN7AriHost16DeregisterClientEi, __ZN7AriHost16ReRegisterClientERKNSt3__112basic_stringIcNS0_11char_traitsIcEENS0_9allocatorIcEEEERij, 
                       __ZN7AriHost16SingletonWeakPtrE, __ZN7AriHost17SetRTEventHandlerEiNS_13ClientRTEventEU13block_pointerFiP16dispatch_group_sE, 
                       __ZN7AriHost18ClientInboundIndCBEPhm, __ZN7AriHost19ClientInboundRespCBEPhm, 
                       __ZN7AriHost19NotifyEventCallbackE18ARI_XPC_NOTIFY_IDSiy, 
                       __ZN7AriHost21HandleConnectionErrorEv, __ZN7AriHost23flushStalledRequests_nlEv, 
                       __ZN7AriHost23nackResponseHandlers_nlEj, __ZN7AriHost24cancelStalledRequests_nlEv, 
                       __ZN7AriHost4InitEv, __ZN7AriHost4SendEPhjiU13block_pointerFiS0_jEbj, 
                       __ZN7AriHost4SendER6AriMsgiU13block_pointerFiPhjEbj, __ZN7AriHost7ExitTrxERK6AriMsgb, 
                       __ZN7AriHost7ExitTrxEib, __ZN7AriHost7stop_nlEiy, __ZN7AriHost8start_nlEiy, 
                       __ZN7AriHost9CancelTrxEiji, __ZN7AriHostC1Ev, __ZN7AriHostC2Ev, 
                       __ZN7AriHostD1Ev, __ZN7AriHostD2Ev, __ZNK3Ari15ClientWorkQueue11containsCtxEi, 
                       __ZNK3Ari15ClientWorkQueue9isStalledEv, __ZNK3Ari21ClientOutboundMessage12getContextIdEv, 
                       __ZNK3Ari21ClientOutboundMessage8asStringEv, __ZNK6AriMsg10extractCtxEPi, 
                       __ZNK6AriMsg13getEncodedBufEPj, __ZNK6AriMsg14isTlvMandatoryEj, 
                       __ZNK6AriMsg6unpackEjPvmPbPm, __ZNK6AriMsg7getGmidEv, __ZNK6AriMsg7isValidEj, 
                       __ZNK6AriMsg7unparamEhPvm, __ZTIN3Ari12AriClientGcdE, __ZTIN3Ari12AriClientXpcE, 
                       __ZTIN6AriSdk14ARI_AriACK_SDKE, __ZTIN6AriSdk15ARI_AriNACK_SDKE, 
                       __ZTIN6AriSdk19ARI_AriBBLogInd_SDKE, __ZTIN6AriSdk19ARI_CsiIceAtReq_SDKE, 
                       __ZTIN6AriSdk19ARI_CsiIceAtRsp_SDKE, __ZTIN6AriSdk20ARI_CsiIceSarReq_SDKE, 
                       __ZTIN6AriSdk20ARI_IBISimTkInit_SDKE, __ZTIN6AriSdk21ARI_CsiFpRegister_SDKE, 
                       __ZTIN6AriSdk21ARI_CsiFpSnapshot_SDKE, __ZTIN6AriSdk21ARI_CsiIceCltmReq_SDKE, 
                       __ZTIN6AriSdk21ARI_CsiModeGetReq_SDKE, __ZTIN6AriSdk21ARI_CsiModeSetReq_SDKE, 
                       __ZTIN6AriSdk21ARI_CsiXsioSetReq_SDKE, __ZTIN6AriSdk21ARI_IBISimAuthReq_SDKE, 
                       __ZTIN6AriSdk21ARI_IBISimTestReq_SDKE, __ZTIN6AriSdk21ARI_IBISsAbortReq_SDKE, 
                       __ZTIN6AriSdk22ARI_CsiFpGetStatus_SDKE, __ZTIN6AriSdk22ARI_CsiFpUpdateAck_SDKE, 
                       __ZTIN6AriSdk22ARI_CsiIceAtExtReq_SDKE, __ZTIN6AriSdk22ARI_CsiIceAtExtRsp_SDKE, 
                       __ZTIN6AriSdk22ARI_CsiIceSarRspCb_SDKE, __ZTIN6AriSdk22ARI_IBICbsMsgIndCb_SDKE, 
                       __ZTIN6AriSdk22ARI_IBIPriWriteReq_SDKE, __ZTIN6AriSdk22ARI_IBISsUssdIndCb_SDKE, 
                       __ZTIN6AriSdk23ARI_AriGrpAttribReq_SDKE, __ZTIN6AriSdk23ARI_AriMsgAttribReq_SDKE, 
                       __ZTIN6AriSdk23ARI_CsiAwdsQueryReq_SDKE, __ZTIN6AriSdk23ARI_CsiBSPBBDumpInd_SDKE, 
                       __ZTIN6AriSdk23ARI_CsiBspSwTrapReq_SDKE, __ZTIN6AriSdk23ARI_CsiIceCltmRspCb_SDKE, 
                       __ZTIN6AriSdk23ARI_CsiModeGetRspCb_SDKE, __ZTIN6AriSdk23ARI_CsiModeSetIndCb_SDKE, 
                       __ZTIN6AriSdk23ARI_CsiXsioSetRspCb_SDKE, __ZTIN6AriSdk23ARI_IBICbsConfigReq_SDKE, 
                       __ZTIN6AriSdk23ARI_IBINetDetachReq_SDKE, __ZTIN6AriSdk23ARI_IBISetFilterReq_SDKE, 
                       __ZTIN6AriSdk23ARI_IBISimAuthRspCb_SDKE, __ZTIN6AriSdk23ARI_IBISimGenPinReq_SDKE, 
                       __ZTIN6AriSdk23ARI_IBISimSetFdnReq_SDKE, __ZTIN6AriSdk23ARI_IBISimTestRspCb_SDKE, 
                       __ZTIN6AriSdk23ARI_IBISsAbortRspCb_SDKE, __ZTIN6AriSdk24ARI_AriGrpAttribResp_SDKE, 
                       __ZTIN6AriSdk24ARI_AriMsgAttribResp_SDKE, __ZTIN6AriSdk24ARI_CsiFpRegisterRsp_SDKE, 
                       __ZTIN6AriSdk24ARI_CsiFpSnapshotRsp_SDKE, __ZTIN6AriSdk24ARI_CsiIceBspWakeInd_SDKE, 
                       __ZTIN6AriSdk24ARI_CsiModeSetRespCb_SDKE, __ZTIN6AriSdk24ARI_CsiSecGetSNUMReq_SDKE, 
                       __ZTIN6AriSdk24ARI_CsiSysGetInfoReq_SDKE, __ZTIN6AriSdk24ARI_IBICallCsCrssReq_SDKE, 
                       __ZTIN6AriSdk24ARI_IBIPriWriteRspCb_SDKE, __ZTIN6AriSdk24ARI_IBISimErrorIndCb_SDKE, 
                       __ZTIN6AriSdk24ARI_IBISmsSendReq_V2_SDKE, __ZTIN6AriSdk24ARI_IBISsResultIndCb_SDKE, 
                       __ZTIN6AriSdk25ARI_CsiAwdsQueryRspCb_SDKE, __ZTIN6AriSdk25ARI_CsiBspShutdownReq_SDKE, 
                       __ZTIN6AriSdk25ARI_CsiBspStateGetReq_SDKE, __ZTIN6AriSdk25ARI_CsiBspStateSetReq_SDKE, 
                       __ZTIN6AriSdk25ARI_CsiBspSwTrapRspCb_SDKE, __ZTIN6AriSdk25ARI_CsiFpGetStatusRsp_SDKE, 
                       __ZTIN6AriSdk25ARI_CsiFpUpdateAckRsp_SDKE, __ZTIN6AriSdk25ARI_CsiFpUpdateHeader_SDKE, 
                       __ZTIN6AriSdk25ARI_CsiIceCaEnableReq_SDKE, __ZTIN6AriSdk25ARI_IBICallPsPdnStats_SDKE, 
                       __ZTIN6AriSdk25ARI_IBICbsConfigRspCb_SDKE, __ZTIN6AriSdk25ARI_IBILapsFetchIndCb_SDKE, 
                       __ZTIN6AriSdk25ARI_IBINetDetachRspCb_SDKE, __ZTIN6AriSdk25ARI_IBIPriWriteReq_V2_SDKE, 
                       __ZTIN6AriSdk25ARI_IBISetFilterRspCb_SDKE, __ZTIN6AriSdk25ARI_IBISimGenPinRspCb_SDKE, 
                       __ZTIN6AriSdk25ARI_IBISimGetEfSmsReq_SDKE, __ZTIN6AriSdk25ARI_IBISimSetFdnRspCb_SDKE, 
                       __ZTIN6AriSdk25ARI_UtaMsCpsSetSvnReq_SDKE, __ZTIN6AriSdk25ARI_UtaMsNetAttachReq_SDKE, 
                       __ZTIN6AriSdk25ARI_UtaMsNetDetachReq_SDKE, __ZTIN6AriSdk26ARI_CsiIceArfcnLockReq_SDKE, 
                       __ZTIN6AriSdk26ARI_CsiIceAudSetI2SReq_SDKE, __ZTIN6AriSdk26ARI_CsiIceBBTxStateInd_SDKE, 
                       __ZTIN6AriSdk26ARI_CsiIceFilerReadReq_SDKE, __ZTIN6AriSdk26ARI_CsiIceSarEnableReq_SDKE, 
                       __ZTIN6AriSdk26ARI_CsiSecGetChipIdReq_SDKE, __ZTIN6AriSdk26ARI_CsiSecGetPkHashReq_SDKE, 
                       __ZTIN6AriSdk26ARI_CsiSecGetSNUMRspCb_SDKE, __ZTIN6AriSdk26ARI_CsiSysGetInfoRspCb_SDKE, 
                       __ZTIN6AriSdk26ARI_IBICallCsCrssRspCb_SDKE, __ZTIN6AriSdk26ARI_IBICbsGetConfigReq_SDKE, 
                       __ZTIN6AriSdk26ARI_IBINetAttachReq_V1_SDKE, __ZTIN6AriSdk26ARI_IBINetPowerDownReq_SDKE, 
                       __ZTIN6AriSdk26ARI_IBIP2PMessageIndCb_SDKE, __ZTIN6AriSdk26ARI_IBISimAccessFcpReq_SDKE, 
                       __ZTIN6AriSdk26ARI_IBISimEccListIndCb_SDKE, __ZTIN6AriSdk26ARI_IBISimFdnListIndCb_SDKE, 
                       __ZTIN6AriSdk26ARI_IBISimMsgListIndCb_SDKE, __ZTIN6AriSdk26ARI_IBISmsSendRspCb_V2_SDKE, 
                       __ZTIN6AriSdk26ARI_IBISmsServiceIndCb_SDKE, __ZTIN6AriSdk26ARI_IBISsFwdCheckIndCb_SDKE, 
                       __ZTIN6AriSdk27ARI_AriGrpMsgsAttribReq_SDKE, __ZTIN6AriSdk27ARI_CsiAwdsAddConfigReq_SDKE, 
                       __ZTIN6AriSdk27ARI_CsiAwdsMetricSubInd_SDKE, __ZTIN6AriSdk27ARI_CsiBspShutdownRspCb_SDKE, 
                       __ZTIN6AriSdk27ARI_CsiBspStateGetRspCb_SDKE, __ZTIN6AriSdk27ARI_CsiBspStateSetRspCb_SDKE, 
                       __ZTIN6AriSdk27ARI_CsiBspStopSysmonReq_SDKE, __ZTIN6AriSdk27ARI_CsiFpPrioSyncReqInd_SDKE, 
                       __ZTIN6AriSdk27ARI_CsiGetSystemTimeReq_SDKE, __ZTIN6AriSdk27ARI_CsiIceCaEnableRspCb_SDKE, 
                       __ZTIN6AriSdk27ARI_CsiIceFilerWriteReq_SDKE, __ZTIN6AriSdk27ARI_CsiIceHearingAidReq_SDKE, 
                       __ZTIN6AriSdk27ARI_CsiMsCpsReadImeiReq_SDKE, __ZTIN6AriSdk27ARI_CsiTraceAddMasksReq_SDKE, 
                       __ZTIN6AriSdk27ARI_CsiTraceModeInitReq_SDKE, __ZTIN6AriSdk27ARI_IBICallPsRegisterFT_SDKE, 
                       __ZTIN6AriSdk27ARI_IBIMsLpGnssAbortCnf_SDKE, __ZTIN6AriSdk27ARI_IBINetBandStatusReq_SDKE, 
                       __ZTIN6AriSdk27ARI_IBINetCellInfoIndCb_SDKE, __ZTIN6AriSdk27ARI_IBIPriWriteRspCb_V2_SDKE, 
                       __ZTIN6AriSdk27ARI_IBISendApacsDataReq_SDKE, __ZTIN6AriSdk27ARI_IBISimGetEccListReq_SDKE, 
                       __ZTIN6AriSdk27ARI_IBISimGetEfSmsRspCb_SDKE, __ZTIN6AriSdk27ARI_IBISimGetFdnListReq_SDKE, 
                       __ZTIN6AriSdk27ARI_IBISimGetMsgListReq_SDKE, __ZTIN6AriSdk27ARI_IBISimPbLocationReq_SDKE, 
                       __ZTIN6AriSdk27ARI_IBISmsIncomingIndCb_SDKE, __ZTIN6AriSdk27ARI_IBISsCallBarringReq_SDKE, 
                       __ZTIN6AriSdk27ARI_IBISsCallForwardReq_SDKE, __ZTIN6AriSdk27ARI_IBISsCallWaitingReq_SDKE, 
                       __ZTIN6AriSdk28ARI_AriGrpMsgsAttribResp_SDKE, __ZTIN6AriSdk28ARI_CsiBspStartSysmonReq_SDKE, 
                       __ZTIN6AriSdk28ARI_CsiCddGetDebugLogReq_SDKE, __ZTIN6AriSdk28ARI_CsiGetSystemTimeResp_SDKE, 
                       __ZTIN6AriSdk28ARI_CsiIceAntennaPrefReq_SDKE, __ZTIN6AriSdk28ARI_CsiIceArfcnLockRspCb_SDKE, 
                       __ZTIN6AriSdk28ARI_CsiIceArtdSettingReq_SDKE, __ZTIN6AriSdk28ARI_CsiIceAudLoopbackReq_SDKE, 
                       __ZTIN6AriSdk28ARI_CsiIceAudToneStopReq_SDKE, __ZTIN6AriSdk28ARI_CsiIceFilerReadRspCb_SDKE, 
                       __ZTIN6AriSdk28ARI_CsiIceGetCaEnableReq_SDKE, __ZTIN6AriSdk28ARI_CsiIceRxDiversityReq_SDKE, 
                       __ZTIN6AriSdk28ARI_CsiIceSarEnableRspCb_SDKE, __ZTIN6AriSdk28ARI_CsiIceSarWaitTimeReq_SDKE, 
                       __ZTIN6AriSdk28ARI_CsiIceTemperatureReq_SDKE, __ZTIN6AriSdk28ARI_CsiIdcSetRTConfigReq_SDKE, 
                       __ZTIN6AriSdk28ARI_CsiIdcTestModeCmdReq_SDKE, __ZTIN6AriSdk28ARI_CsiIdcTestModeCmdRsp_SDKE, 
                       __ZTIN6AriSdk28ARI_CsiSahGetDebugLogReq_SDKE, __ZTIN6AriSdk28ARI_CsiSecGetChipIdRspCb_SDKE, 
                       __ZTIN6AriSdk28ARI_CsiSecGetPkHashRspCb_SDKE, __ZTIN6AriSdk28ARI_IBICallCsHoldCallReq_SDKE, 
                       __ZTIN6AriSdk28ARI_IBICallCsStopDtmfReq_SDKE, __ZTIN6AriSdk28ARI_IBICallPsLqmQueryReq_SDKE, 
                       __ZTIN6AriSdk28ARI_IBICallPsModifyIndCb_SDKE, __ZTIN6AriSdk28ARI_IBICallPsResumeIndCb_SDKE, 
                       __ZTIN6AriSdk28ARI_IBICbsGetConfigRspCb_SDKE, __ZTIN6AriSdk28ARI_IBIImsMEStopMediaReq_SDKE, 
                       __ZTIN6AriSdk28ARI_IBIMsSimSetSmsTagReq_SDKE, __ZTIN6AriSdk28ARI_IBINetAttachRspCb_V1_SDKE, 
                       __ZTIN6AriSdk28ARI_IBINetGetCellInfoReq_SDKE, __ZTIN6AriSdk28ARI_IBINetIceApStatusReq_SDKE, 
                       __ZTIN6AriSdk28ARI_IBINetIceFdStatusReq_SDKE, __ZTIN6AriSdk28ARI_IBINetPowerDownCnfCb_SDKE, 
                       __ZTIN6AriSdk28ARI_IBINetTimerInfoIndCb_SDKE, __ZTIN6AriSdk28ARI_IBISimAccessFcpRspCb_SDKE, 
                       __ZTIN6AriSdk28ARI_IBISimApplicationReq_SDKE, __ZTIN6AriSdk28ARI_IBISimOpenChannelReq_SDKE, 
                       __ZTIN6AriSdk28ARI_IBISimPbReadEntryReq_SDKE, __ZTIN6AriSdk28ARI_IBISimSetSmsTagRspCb_SDKE, 
                       __ZTIN6AriSdk28ARI_IBISmsIncomingSmsAck_SDKE, __ZTIN6AriSdk28ARI_IBISsExtendedUssdReq_SDKE, 
                       __ZTIN6AriSdk29ARI_CsiAwdsAddConfigRspCb_SDKE, __ZTIN6AriSdk29ARI_CsiBspNvmReadGroupReq_SDKE, 
                       __ZTIN6AriSdk29ARI_CsiBspStopSysmonRspCb_SDKE, __ZTIN6AriSdk29ARI_CsiCddGetParamDumpReq_SDKE, 
                       __ZTIN6AriSdk29ARI_CsiFpUpdateHeaderData_SDKE, __ZTIN6AriSdk29ARI_CsiIceAudCallEventReq_SDKE, 
                       __ZTIN6AriSdk29ARI_CsiIceAudSetDeviceReq_SDKE, __ZTIN6AriSdk29ARI_CsiIceAudSetI2SRespCb_SDKE, 
                       __ZTIN6AriSdk29ARI_CsiIceAudToneEndIndCb_SDKE, __ZTIN6AriSdk29ARI_CsiIceAudToneStartReq_SDKE, 
                       __ZTIN6AriSdk29ARI_CsiIceFilerWriteRspCb_SDKE, __ZTIN6AriSdk29ARI_CsiIceGetArfcnLockReq_SDKE, 
                       __ZTIN6AriSdk29ARI_CsiIceGetTxAntennaReq_SDKE, __ZTIN6AriSdk29ARI_CsiIceHearingAidRspCb_SDKE, 
                       __ZTIN6AriSdk29ARI_CsiIceSetTxAntennaReq_SDKE, __ZTIN6AriSdk29ARI_CsiIceSpeakerStateReq_SDKE, 
                       __ZTIN6AriSdk29ARI_CsiIceWakeupReasonReq_SDKE, __ZTIN6AriSdk29ARI_CsiIdcControlEventReq_SDKE, 
                       __ZTIN6AriSdk29ARI_CsiIpcGetLogBufferReq_SDKE, __ZTIN6AriSdk29ARI_CsiIpcGetLogBufferRsp_SDKE, 
                       __ZTIN6AriSdk29ARI_CsiMonMemoryStatusReq_SDKE, __ZTIN6AriSdk29ARI_CsiMsCpsReadImeiRspCb_SDKE, 
                       __ZTIN6AriSdk29ARI_CsiSecGetRandomNumReq_SDKE, __ZTIN6AriSdk29ARI_CsiTraceAddMasksRspCb_SDKE, 
                       __ZTIN6AriSdk29ARI_CsiTraceModeInitRspCb_SDKE, __ZTIN6AriSdk29ARI_IBIApacsDataStatusReq_SDKE, 
                       __ZTIN6AriSdk29ARI_IBICallCsCtmInfoIndCb_SDKE, __ZTIN6AriSdk29ARI_IBICallCsJoinCallsReq_SDKE, 
                       __ZTIN6AriSdk29ARI_IBICallCsSplitMptyReq_SDKE, __ZTIN6AriSdk29ARI_IBICallCsStartDtmfReq_SDKE, 
                       __ZTIN6AriSdk29ARI_IBICallCsSwapCallsReq_SDKE, __ZTIN6AriSdk29ARI_IBICallPsDeRegisterFT_SDKE, 
                       __ZTIN6AriSdk29ARI_IBICallPsFlushDataReq_SDKE, __ZTIN6AriSdk29ARI_IBICallPsLqmDataIndCb_SDKE, 
                       __ZTIN6AriSdk29ARI_IBICallPsSuspendIndCb_SDKE, __ZTIN6AriSdk29ARI_IBICbsNewMessageIndCb_SDKE, 
                       __ZTIN6AriSdk29ARI_IBIImsMEStartMediaReq_SDKE, __ZTIN6AriSdk29ARI_IBIMsLpGnssAbortReqCb_SDKE, 
                       __ZTIN6AriSdk29ARI_IBINetBandStatusIndCb_SDKE, __ZTIN6AriSdk29ARI_IBINetBandStatusRspCb_SDKE, 
                       __ZTIN6AriSdk29ARI_IBISendApacsDataRspCb_SDKE, __ZTIN6AriSdk29ARI_IBISetRtcEpochTimeReq_SDKE, 
                       __ZTIN6AriSdk29ARI_IBISimCloseChannelReq_SDKE, __ZTIN6AriSdk29ARI_IBISimExtSimlockIndCb_SDKE, 
                       __ZTIN6AriSdk29ARI_IBISimExtendedAuthReq_SDKE, __ZTIN6AriSdk29ARI_IBISimFullAccessIndCb_SDKE, 
                       __ZTIN6AriSdk29ARI_IBISimGetEccListRspCb_SDKE, __ZTIN6AriSdk29ARI_IBISimGetFdnListRspCb_SDKE, 
                       __ZTIN6AriSdk29ARI_IBISimGetMsgListRspCb_SDKE, __ZTIN6AriSdk29ARI_IBISimPbWriteEntryReq_SDKE, 
                       __ZTIN6AriSdk29ARI_IBISimTkExecStkCmdRsp_SDKE, __ZTIN6AriSdk29ARI_IBISimTkRefreshFcnRsp_SDKE, 
                       __ZTIN6AriSdk29ARI_IBISimTkResetQueryRsp_SDKE, __ZTIN6AriSdk29ARI_IBISmsDataDownloadReq_SDKE, 
                       __ZTIN6AriSdk29ARI_IBISsCallBarringRspCb_SDKE, __ZTIN6AriSdk29ARI_IBISsCallForwardRspCb_SDKE, 
                       __ZTIN6AriSdk29ARI_IBISsCallWaitingRspCb_SDKE, __ZTIN6AriSdk29ARI_IBIXccClockControlReq_SDKE, 
                       __ZTIN6AriSdk30ARI_AriUtaMsCpsSetSvnRspCb_SDKE, __ZTIN6AriSdk30ARI_AriUtaMsNetAttachRspCb_SDKE, 
                       __ZTIN6AriSdk30ARI_AriUtaMsNetDetachRspCb_SDKE, __ZTIN6AriSdk30ARI_CsiAwdsDeleteConfigReq_SDKE, 
                       __ZTIN6AriSdk30ARI_CsiAwdsGlobalSwitchReq_SDKE, __ZTIN6AriSdk30ARI_CsiAwdsPiiLocConfigReq_SDKE, 
                       __ZTIN6AriSdk30ARI_CsiBspDebugJtagModeReq_SDKE, __ZTIN6AriSdk30ARI_CsiBspStartSysmonRspCb_SDKE, 
                       __ZTIN6AriSdk30ARI_CsiCddGetDebugLogRspCb_SDKE, __ZTIN6AriSdk30ARI_CsiIceAntennaPrefRspCb_SDKE, 
                       __ZTIN6AriSdk30ARI_CsiIceArtdSettingRspCb_SDKE, __ZTIN6AriSdk30ARI_CsiIceAudDeviceInfoReq_SDKE, 
                       __ZTIN6AriSdk30ARI_CsiIceBBSleepEnableReq_SDKE, __ZTIN6AriSdk30ARI_CsiIceGetCaEnableRspCb_SDKE, 
                       __ZTIN6AriSdk30ARI_CsiIceRxDiversityRspCb_SDKE, __ZTIN6AriSdk30ARI_CsiIceSarWaitTimeRspCb_SDKE, 
                       __ZTIN6AriSdk30ARI_CsiIceTemperatureIndCb_SDKE, __ZTIN6AriSdk30ARI_CsiIceTemperatureRspCb_SDKE, 
                       __ZTIN6AriSdk30ARI_CsiIdcGetCellConfigReq_SDKE, __ZTIN6AriSdk30ARI_CsiIdcRTSetScanFreqReq_SDKE, 
                       __ZTIN6AriSdk30ARI_CsiIdcSetRTConfigRspCb_SDKE, __ZTIN6AriSdk30ARI_CsiSahGetDebugLogRspCb_SDKE, 
                       __ZTIN6AriSdk30ARI_CsiTraceProfileInitReq_SDKE, __ZTIN6AriSdk30ARI_IBICallCsAcceptCallReq_SDKE, 
                       __ZTIN6AriSdk30ARI_IBICallCsAutoAnswerReq_SDKE, __ZTIN6AriSdk30ARI_IBICallCsGetEccListReq_SDKE, 
                       __ZTIN6AriSdk30ARI_IBICallCsHoldCallRspCb_SDKE, __ZTIN6AriSdk30ARI_IBICallCsStopDtmfIndCb_SDKE, 
                       __ZTIN6AriSdk30ARI_IBICallPsDropIPPackets_SDKE, __ZTIN6AriSdk30ARI_IBICallPsLqmQueryRsbCb_SDKE, 
                       __ZTIN6AriSdk30ARI_IBIImsMEStopMediaRspCb_SDKE, __ZTIN6AriSdk30ARI_IBIMsLpGpsAlmanacIndCb_SDKE, 
                       __ZTIN6AriSdk30ARI_IBINetGetCellInfoIndCb_SDKE, __ZTIN6AriSdk30ARI_IBINetIceApStatusRspCb_SDKE, 
                       __ZTIN6AriSdk30ARI_IBINetIceFdReportIndCb_SDKE, __ZTIN6AriSdk30ARI_IBINetIceFdStatusCnfCb_SDKE, 
                       __ZTIN6AriSdk30ARI_IBINetNitzInfoIndCb_V1_SDKE, __ZTIN6AriSdk30ARI_IBINetRadioSignalIndCb_SDKE, 
                       __ZTIN6AriSdk30ARI_IBINetRatModeStatusReq_SDKE, __ZTIN6AriSdk30ARI_IBIPriWriteStatusIndCb_SDKE, 
                       __ZTIN6AriSdk30ARI_IBISimAccessApduCmdReq_SDKE, __ZTIN6AriSdk30ARI_IBISimApplicationRspCb_SDKE, 
                       __ZTIN6AriSdk30ARI_IBISimFdnStateIndCbNew_SDKE, __ZTIN6AriSdk30ARI_IBISimOpenChannelRspCb_SDKE, 
                       __ZTIN6AriSdk30ARI_IBISimPbCacheLoadIndCb_SDKE, __ZTIN6AriSdk30ARI_IBISimPbLocationReq_V1_SDKE, 
                       __ZTIN6AriSdk30ARI_IBISimPbReadEntryRspCb_SDKE, __ZTIN6AriSdk30ARI_IBISimPlmnModeBitIndCb_SDKE, 
                       __ZTIN6AriSdk30ARI_IBISimSmscAddressIndCb_SDKE, __ZTIN6AriSdk30ARI_IBISmsGetMsgWaitIndReq_SDKE, 
                       __ZTIN6AriSdk30ARI_IBISmsSetMsgWaitIndReq_SDKE, __ZTIN6AriSdk30ARI_IBISsCallBarringReq_V1_SDKE, 
                       __ZTIN6AriSdk30ARI_IBISsExtendedUssdRspCb_SDKE, __ZTIN6AriSdk30ARI_IBISsIdentificationReq_SDKE, 
                       __ZTIN6AriSdk31ARI_CsiCddGetParamDumpRspCb_SDKE, __ZTIN6AriSdk31ARI_CsiIceAccessoryStateReq_SDKE, 
                       __ZTIN6AriSdk31ARI_CsiIceAudEnableAudioReq_SDKE, __ZTIN6AriSdk31ARI_CsiIceAudLoopbackRespCb_SDKE, 
                       __ZTIN6AriSdk31ARI_CsiIceAudToneStopRespCb_SDKE, __ZTIN6AriSdk31ARI_CsiIceAudVocoderInfoReq_SDKE, 
                       __ZTIN6AriSdk31ARI_CsiIceGetArfcnLockRspCb_SDKE, __ZTIN6AriSdk31ARI_CsiIceGetArtdSettingReq_SDKE, 
                       __ZTIN6AriSdk31ARI_CsiIceGetRxDiversityReq_SDKE, __ZTIN6AriSdk31ARI_CsiIceGetTxAntennaRspCb_SDKE, 
                       __ZTIN6AriSdk31ARI_CsiIceSetTxAntennaRspCb_SDKE, __ZTIN6AriSdk31ARI_CsiIceSpeakerStateRspCb_SDKE, 
                       __ZTIN6AriSdk31ARI_CsiIceStartProvisionReq_SDKE, __ZTIN6AriSdk31ARI_CsiIceWakeupReasonRspCb_SDKE, 
                       __ZTIN6AriSdk31ARI_CsiIdcControlEventRspCb_SDKE, __ZTIN6AriSdk31ARI_CsiMonMemoryStatusRspCb_SDKE, 
                       __ZTIN6AriSdk31ARI_CsiMsSimCardPresenceReq_SDKE, __ZTIN6AriSdk31ARI_CsiSahGetCrashReportReq_SDKE, 
                       __ZTIN6AriSdk31ARI_CsiSecGetFusingStateReq_SDKE, __ZTIN6AriSdk31ARI_CsiSecGetRandomNumRspCb_SDKE, 
                       __ZTIN6AriSdk31ARI_IBIApacsDataStatusRspCb_SDKE, __ZTIN6AriSdk31ARI_IBICallCsJoinCallsRspCb_SDKE, 
                       __ZTIN6AriSdk31ARI_IBICallCsReleaseCallReq_SDKE, __ZTIN6AriSdk31ARI_IBICallCsSetClirModeReq_SDKE, 
                       __ZTIN6AriSdk31ARI_IBICallCsSetupCallRspCb_SDKE, __ZTIN6AriSdk31ARI_IBICallCsSplitMptyRspCb_SDKE, 
                       __ZTIN6AriSdk31ARI_IBICallCsStartDtmfIndCb_SDKE, __ZTIN6AriSdk31ARI_IBICallCsStartDtmfRspCb_SDKE, 
                       __ZTIN6AriSdk31ARI_IBICallCsSwapCallsRspCb_SDKE, __ZTIN6AriSdk31ARI_IBICallPsFlushDataRspCb_SDKE, 
                       __ZTIN6AriSdk31ARI_IBICallPsImsTestModeReq_SDKE, __ZTIN6AriSdk31ARI_IBICallPsLqmRegisterReq_SDKE, 
                       __ZTIN6AriSdk31ARI_IBIImsMEStartMediaRspCb_SDKE, __ZTIN6AriSdk31ARI_IBIImsMEStopDTMFCodeReq_SDKE, 
                       __ZTIN6AriSdk31ARI_IBIMsLpGnssSuspendIndCb_SDKE, __ZTIN6AriSdk31ARI_IBIMsLpGpsUtcModelIndCb_SDKE, 
                       __ZTIN6AriSdk31ARI_IBINetGetCellInfoRespCb_SDKE, __ZTIN6AriSdk31ARI_IBINetSingleShotFdRspCb_SDKE, 
                       __ZTIN6AriSdk31ARI_IBISetRtcEpochTimeRspCb_SDKE, __ZTIN6AriSdk31ARI_IBISimCloseChannelRspCb_SDKE, 
                       __ZTIN6AriSdk31ARI_IBISimExtendedAuthRspCb_SDKE, __ZTIN6AriSdk31ARI_IBISimFileReadBinaryReq_SDKE, 
                       __ZTIN6AriSdk31ARI_IBISimGetPlmnModeBitReq_SDKE, __ZTIN6AriSdk31ARI_IBISimGetSmscAddressReq_SDKE, 
                       __ZTIN6AriSdk31ARI_IBISimPbUsimPbSelectReq_SDKE, __ZTIN6AriSdk31ARI_IBISimPbWriteEntryRspCb_SDKE, 
                       __ZTIN6AriSdk31ARI_IBISimSetSmscAddressReq_SDKE, __ZTIN6AriSdk31ARI_IBISimTkExecStkCmdIndCb_SDKE, 
                       __ZTIN6AriSdk31ARI_IBISimTkRefreshFcnIndCb_SDKE, __ZTIN6AriSdk31ARI_IBISimTkRefreshQueryRsp_SDKE, 
                       __ZTIN6AriSdk31ARI_IBISimTkResetConfirmRsp_SDKE, __ZTIN6AriSdk31ARI_IBISimTkResetQueryIndCb_SDKE, 
                       __ZTIN6AriSdk31ARI_IBISmsDataDownloadRspCb_SDKE, __ZTIN6AriSdk31ARI_IBIXccClockControlIndCb_SDKE, 
                       __ZTIN6AriSdk31ARI_IBIXccClockControlRspCb_SDKE, __ZTIN6AriSdk32ARI_CsiAwdsDeleteConfigRspCb_SDKE, 
                       __ZTIN6AriSdk32ARI_CsiAwdsGlobalSwitchRspCb_SDKE, __ZTIN6AriSdk32ARI_CsiAwdsPiiLocConfigRspCb_SDKE, 
                       __ZTIN6AriSdk32ARI_CsiBspDebugJtagModeRspCb_SDKE, __ZTIN6AriSdk32ARI_CsiBspNvmReadGroupRespCb_SDKE, 
                       __ZTIN6AriSdk32ARI_CsiIceAudCallEventRespCb_SDKE, __ZTIN6AriSdk32ARI_CsiIceAudDeviceInfoIndCb_SDKE, 
                       __ZTIN6AriSdk32ARI_CsiIceAudDisableAudioReq_SDKE, __ZTIN6AriSdk32ARI_CsiIceAudSetDeviceRespCb_SDKE, 
                       __ZTIN6AriSdk32ARI_CsiIceAudToneStartRespCb_SDKE, __ZTIN6AriSdk32ARI_CsiIceBBSleepEnableRspCb_SDKE, 
                       __ZTIN6AriSdk32ARI_CsiIceFinishProvisionReq_SDKE, __ZTIN6AriSdk32ARI_CsiIceGetAntennaStateReq_SDKE, 
                       __ZTIN6AriSdk32ARI_CsiIceStartProvisionResp_SDKE, __ZTIN6AriSdk32ARI_CsiIdcGetCellConfigRspCb_SDKE, 
                       __ZTIN6AriSdk32ARI_CsiIdcRTSetScanFreqRspCb_SDKE, __ZTIN6AriSdk32ARI_CsiIpcCtrlPathTestSrcReq_SDKE, 
                       __ZTIN6AriSdk32ARI_CsiTraceProfileInitRspCb_SDKE, __ZTIN6AriSdk32ARI_CsiTraceProfileSelectReq_SDKE, 
                       __ZTIN6AriSdk32ARI_IBICallCsAcceptCallRspCb_SDKE, __ZTIN6AriSdk32ARI_IBICallCsAutoAnswerRspCb_SDKE, 
                       __ZTIN6AriSdk32ARI_IBICallCsCallStatusIndCb_SDKE, __ZTIN6AriSdk32ARI_IBICallCsGetEccListRspCb_SDKE, 
                       __ZTIN6AriSdk32ARI_IBICallCsRetrieveCallReq_SDKE, __ZTIN6AriSdk32ARI_IBICallPsStopDataCallReq_SDKE, 
                       __ZTIN6AriSdk32ARI_IBIImsMEStartDTMFCodeReq_SDKE, __ZTIN6AriSdk32ARI_IBIMsCpPosMeasurementReq_SDKE, 
                       __ZTIN6AriSdk32ARI_IBIMsLpGnssAbortCnfAckCb_SDKE, __ZTIN6AriSdk32ARI_IBINetGetCurrCellInfoReq_SDKE, 
                       __ZTIN6AriSdk32ARI_IBINetIceSingleShotFdReq_SDKE, __ZTIN6AriSdk32ARI_IBINetRatModeStatusIndCb_SDKE, 
                       __ZTIN6AriSdk32ARI_IBINetRatModeStatusRspCb_SDKE, __ZTIN6AriSdk32ARI_IBINetSwapRatSettingsReq_SDKE, 
                       __ZTIN6AriSdk32ARI_IBIP2PProximityStatusReq_SDKE, __ZTIN6AriSdk32ARI_IBISimAccessApduCmdRspCb_SDKE, 
