--- !tapi-tbd-v2
archs:           [ armv7, armv7s, arm64 ]
uuids:           [ 'armv7: 98EDFA7C-D257-33DB-A86D-2BAE1A39BFED', 'armv7s: 8A63A2DB-8B00-3098-BBE8-9F1634410494', 
                   'arm64: FFB22D01-419B-38C8-84B2-2CB97AF9ABE9' ]
platform:        ios
install-name:    /usr/lib/libBasebandManager.dylib
objc-constraint: none
exports:         
  - archs:           [ armv7, armv7s ]
    symbols:         [ __ZN10ServerMain10getProfileEv, __ZN10ServerMain10getRunLoopEv, 
                       __ZN10ServerMain21create_default_globalEv, __ZN10ServerMain22registerCommandHandlerENSt3__112basic_stringIcNS0_11char_traitsIcEENS0_9allocatorIcEEEEN8dispatch5blockIU13block_pointerFv17ServerClientStateN3xpc4dictENS8_IU13block_pointerFviSB_EEEEEE, 
                       __ZN10ServerMain24previousShutdownWasCleanEv, __ZN10ServerMain4initENSt3__112basic_stringIcNS0_11char_traitsIcEENS0_9allocatorIcEEEE, 
                       __ZN10ServerMain4stopEP16dispatch_group_s, __ZN10ServerMain5startEP16dispatch_group_s, 
                       __ZN10ServerMain8shutdownEP16dispatch_group_s, __ZN10ServerMain9broadcastENSt3__112basic_stringIcNS0_11char_traitsIcEENS0_9allocatorIcEEEEN3ctu2cf11CFSharedRefIK14__CFDictionaryEEN8dispatch5blockIU13block_pointerFvvEEE, 
                       __ZN10ServerMainC1Ev, __ZN10ServerMainC2Ev, __ZN18DataStallDetection5startEP11__CFRunLoop, 
                       __ZN18ServerMainInternal10getRunLoopEv, __ZN18ServerMainInternal10start_syncEN8dispatch13group_sessionE, 
                       __ZN18ServerMainInternal12unicast_syncEN3xpc10connectionENSt3__112basic_stringIcNS2_11char_traitsIcEENS2_9allocatorIcEEEEN3ctu2cf11CFSharedRefIK14__CFDictionaryEEN8dispatch5blockIU13block_pointerFvvEEE, 
                       __ZN18ServerMainInternal13getState_syncEv, __ZN18ServerMainInternal13shutdown_syncEN8dispatch13group_sessionE, 
                       __ZN18ServerMainInternal14broadcast_syncENSt3__112basic_stringIcNS0_11char_traitsIcEENS0_9allocatorIcEEEEN3ctu2cf11CFSharedRefIK14__CFDictionaryEEN8dispatch5blockIU13block_pointerFvvEEE, 
                       __ZN18ServerMainInternal15finishStop_syncEv, __ZN18ServerMainInternal16changeState_syncE11ServerState, 
                       __ZN18ServerMainInternal16stopRunLoop_syncEv, __ZN18ServerMainInternal17startRunLoop_syncEv, 
                       __ZN18ServerMainInternal18checkShutdown_syncEN8dispatch13group_sessionE, 
                       __ZN18ServerMainInternal18handleMessage_syncEN3xpc10connectionENS0_4dictE, 
                       __ZN18ServerMainInternal19finishShutdown_syncEv, __ZN18ServerMainInternal19getClientState_syncEN3xpc10connectionE, 
                       __ZN18ServerMainInternal20handleNewClient_syncEN3xpc10connectionE, 
                       __ZN18ServerMainInternal20registerNotificationEN3xpc10connectionEbN3ctu2cf11CFSharedRefIK9__CFArrayEE, 
                       __ZN18ServerMainInternal22handleClientError_syncEN3xpc10connectionENS0_6objectE, 
                       __ZN18ServerMainInternal22handleServerError_syncEN3xpc6objectE, 
                       __ZN18ServerMainInternal22registerCommandHandlerENSt3__112basic_stringIcNS0_11char_traitsIcEENS0_9allocatorIcEEEEN8dispatch5blockIU13block_pointerFv17ServerClientStateN3xpc4dictENS8_IU13block_pointerFviSB_EEEEEE, 
                       __ZN18ServerMainInternal24handlePublicMessage_syncEN3xpc10connectionERNS0_4dictE, 
                       __ZN18ServerMainInternal25broadcastServerState_syncENSt3__112basic_stringIcNS0_11char_traitsIcEENS0_9allocatorIcEEEE, 
                       __ZN18ServerMainInternal26handleInternalMessage_syncEN3xpc10connectionERNS0_4dictE, 
                       __ZN18ServerMainInternal27registerCommandHandler_syncERKNSt3__112basic_stringIcNS0_11char_traitsIcEENS0_9allocatorIcEEEEN8dispatch5blockIU13block_pointerFv17ServerClientStateN3xpc4dictENSA_IU13block_pointerFviSD_EEEEEE, 
                       __ZN18ServerMainInternal4initENSt3__112basic_stringIcNS0_11char_traitsIcEENS0_9allocatorIcEEEE, 
                       __ZN18ServerMainInternal4stopEP16dispatch_group_s, __ZN18ServerMainInternal5startEP16dispatch_group_s, 
                       __ZN18ServerMainInternal6createEv, __ZN18ServerMainInternal8shutdownEP16dispatch_group_s, 
                       __ZN18ServerMainInternal9broadcastENSt3__112basic_stringIcNS0_11char_traitsIcEENS0_9allocatorIcEEEEN3ctu2cf11CFSharedRefIK14__CFDictionaryEEN8dispatch5blockIU13block_pointerFvvEEE, 
                       __ZN18ServerMainInternal9stop_syncEN8dispatch13group_sessionE, 
                       __ZN18ServerMainInternalC1Ev, __ZN18ServerMainInternalC2Ev, 
                       __ZN18ServerMainInternalD0Ev, __ZN18ServerMainInternalD1Ev, 
                       __ZN18ServerMainInternalD2Ev, __ZN4coex6Module5State6createENSt3__110shared_ptrIN3ctu9LogServerEEE, 
                       __ZN4coex6Module5StateC1ENSt3__110shared_ptrIN3ctu9LogServerEEENS3_INS_13CommandDriverEEE, 
                       __ZN4coex6Module5StateC2ENSt3__110shared_ptrIN3ctu9LogServerEEENS3_INS_13CommandDriverEEE, 
                       __ZN4coex6ModuleC1ENSt3__110shared_ptrIN3ctu9LogServerEEERKNS1_12basic_stringIcNS1_11char_traitsIcEENS1_9allocatorIcEEEE, 
                       __ZN4coex6ModuleC1Ev, __ZN4coex6ModuleC2ENSt3__110shared_ptrIN3ctu9LogServerEEERKNS1_12basic_stringIcNS1_11char_traitsIcEENS1_9allocatorIcEEEE, 
                       __ZN4coex6ModuleC2Ev, __ZN4diag6config14kStopReaderKeyE, __ZN4diag6config17getDefaultEnabledEv, 
                       __ZN4diag6config18kDefaultStopReaderE, __ZN4diag7Service5abortEv, 
                       __ZN4diag7Service8Internal6createENSt3__110shared_ptrIN3ctu9LogServerEEENS3_IS0_EE, 
                       __ZN4diag7Service8Internal6createENSt3__110shared_ptrIN3ctu9LogServerEEENS_6config4ModeENS3_INS_4InfoEEEN8dispatch8callbackIU13block_pointerFvNS0_5StateENS2_12basic_stringIcNS2_11char_traitsIcEENS2_9allocatorIcEEEEEEE, 
                       __ZN4diag7ServiceC1ENSt3__110shared_ptrIN3ctu9LogServerEEENS2_IS0_EE, 
                       __ZN4diag7ServiceC1ENSt3__110shared_ptrIN3ctu9LogServerEEENS_6config4ModeENS2_INS_4InfoEEEN8dispatch8callbackIU13block_pointerFvNS0_5StateENS1_12basic_stringIcNS1_11char_traitsIcEENS1_9allocatorIcEEEEEEE, 
                       __ZN4diag7ServiceC2ENSt3__110shared_ptrIN3ctu9LogServerEEENS2_IS0_EE, 
                       __ZN4diag7ServiceC2ENSt3__110shared_ptrIN3ctu9LogServerEEENS_6config4ModeENS2_INS_4InfoEEEN8dispatch8callbackIU13block_pointerFvNS0_5StateENS1_12basic_stringIcNS1_11char_traitsIcEENS1_9allocatorIcEEEEEEE, 
                       __ZN7antenna7Service10ratChangedERKN3xpc4dictE, __ZN7antenna7Service25setFileTransferInProgressEN3xpc4dictE, 
                       __ZN7antenna7Service8Internal10getE75TypeEv, __ZN7antenna7Service8Internal10ratChangedERKN3xpc4dictE, 
                       __ZN7antenna7Service8Internal11getE75StateEv, __ZN7antenna7Service8Internal13configTxPowerENS_14TxPowerSvcTypeE, 
                       __ZN7antenna7Service8Internal14getHACTxOffsetENS_14TxPowerSvcTypeE, 
                       __ZN7antenna7Service8Internal16getE75TypeStringEj, __ZN7antenna7Service8Internal16lteCounterNotifyEv, 
                       __ZN7antenna7Service8Internal16mesaNotificationEjPv, __ZN7antenna7Service8Internal17getE75StateStringEb, 
                       __ZN7antenna7Service8Internal17setCLTMLTECounterEv, __ZN7antenna7Service8Internal17videoNotificationEjPv, 
                       __ZN7antenna7Service8Internal18sendAudioAccessoryEv, __ZN7antenna7Service8Internal18sendHACStatus_syncEv, 
                       __ZN7antenna7Service8Internal18sendVideoAccessoryEb, __ZN7antenna7Service8Internal20enableTxPowerCappingEb, 
                       __ZN7antenna7Service8Internal21accessoryNotificationEjPv, 
                       __ZN7antenna7Service8Internal22handleDumpTxPower_syncEPKcNS_14TxPowerSvcTypeE, 
                       __ZN7antenna7Service8Internal22handleDumpTxPower_syncEv, __ZN7antenna7Service8Internal22setCLTMLTECounter_syncEv, 
                       __ZN7antenna7Service8Internal23setCLTMRFReportIntervalEv, 
                       __ZN7antenna7Service8Internal24cltmLTECounterIndicationENS_14LTECounterDataE, 
                       __ZN7antenna7Service8Internal24handleTxPowerConfig_syncERKN3xpc4dictENSt3__112basic_stringIcNS6_11char_traitsIcEENS6_9allocatorIcEEEE, 
                       __ZN7antenna7Service8Internal24setTxPowerPlayAlert_syncEj, 
                       __ZN7antenna7Service8Internal24transmitStateNotify_syncEb, 
                       __ZN7antenna7Service8Internal25antennaTransmitIndicationENS_14BBTransmitModeE, 
                       __ZN7antenna7Service8Internal25resetTxPowerConfig2G_syncEv, 
                       __ZN7antenna7Service8Internal25setFileTransferInProgressEN3xpc4dictE, 
                       __ZN7antenna7Service8Internal26handleTxPowerConfig2G_syncEj, 
                       __ZN7antenna7Service8Internal26resetTxPowerConfigC2K_syncEv, 
                       __ZN7antenna7Service8Internal26resetTxPowerConfigLTE_syncEv, 
                       __ZN7antenna7Service8Internal27copyLTECounterInternal_syncEv, 
                       __ZN7antenna7Service8Internal27handleTxPowerConfigC2K_syncEj, 
                       __ZN7antenna7Service8Internal27handleTxPowerConfigLTE_syncEj, 
                       __ZN7antenna7Service8Internal27resetTxPowerConfigUMTS_syncEv, 
                       __ZN7antenna7Service8Internal28enableCLTMRFReportIndicationEv, 
                       __ZN7antenna7Service8Internal28handleTxPowerConfigUMTS_syncEj, 
                       __ZN7antenna7Service8Internal28queryLTECounterInternal_syncEv, 
                       __ZN7antenna7Service8Internal30enableCLTMLTECounterIndicationEv, 
                       __ZN7antenna7Service8Internal30enableTxPowerCappingIndicationEv, 
                       __ZN7antenna7Service8Internal32enableTxPowerCappingNotificationENS_21TxPwrNotificationTypeE, 
                       __ZN7antenna7Service8Internal35setTxPowerCLTMRFReportInterval_syncERKN3xpc4dictE, 
                       __ZN7antenna7Service8Internal37enableTxPowerCappingNotification_syncENS_21TxPwrNotificationTypeE, 
                       __ZN7antenna7Service8Internal38getTxPowerCappingIPhoneModeString_syncERKj, 
                       __ZTI18ServerMainInternal, __ZTS18ServerMainInternal, __ZTV18ServerMainInternal, 
                       __ZThn32_N18ServerMainInternalD0Ev, __ZThn32_N18ServerMainInternalD1Ev ]
    weak-def-symbols: [ __ZGVN3ctu9SingletonI10ServerMainS1_NS_23PthreadMutexGuardPolicyIS1_EEE9sInstanceE, 
                        __ZN3ctu9SingletonI10ServerMainS1_NS_23PthreadMutexGuardPolicyIS1_EEE9sInstanceE, 
                        __ZTIFbPvE, __ZTIN19ATCSRouterIPCDriver12ErrorHandlerE, __ZTIN27ATCSFileDescriptorIPCDriver12ErrorHandlerE, 
                        __ZTIN3ctu14SharedLoggableI18DataStallDetectionNS_10LoggerBaseINSt3__110shared_ptrINS_9LogServerEEEEEEE, 
                        __ZTIN3ctu14SharedLoggableIN4coex6Module5StateENS_10LoggerBaseINSt3__110shared_ptrINS_9LogServerEEEEEEE, 
                        __ZTIN3ctu14SharedLoggableIN4diag7Service8InternalENS_10LoggerBaseINSt3__110shared_ptrINS_9LogServerEEEEEEE, 
                        __ZTIN3ctu14SharedLoggableIN4logs12FileLogStoreENS_10LoggerBaseINSt3__110shared_ptrINS_9LogServerEEEEEEE, 
                        __ZTIN3ctu14SharedLoggableIN4logs13LogCollectionENS_10LoggerBaseINSt3__110shared_ptrINS_9LogServerEEEEEEE, 
                        __ZTIN3ctu14SharedLoggableIN7antenna7Service8InternalENS_10LoggerBaseINSt3__110shared_ptrINS_9LogServerEEEEEEE, 
                        __ZTIN3ctu8LoggableI18DataStallDetectionNS_10LoggerBaseINSt3__110shared_ptrINS_9LogServerEEEEEEE, 
                        __ZTIN3ctu8LoggableIN4coex6Module5StateENS_10LoggerBaseINSt3__110shared_ptrINS_9LogServerEEEEEEE, 
                        __ZTIN3ctu8LoggableIN4diag7Service8InternalENS_10LoggerBaseINSt3__110shared_ptrINS_9LogServerEEEEEEE, 
                        __ZTIN3ctu8LoggableIN4logs12FileLogStoreENS_10LoggerBaseINSt3__110shared_ptrINS_9LogServerEEEEEEE, 
                        __ZTIN3ctu8LoggableIN4logs13LogCollection9LogDriverENS_10LoggerBaseINSt3__110shared_ptrINS_9LogServerEEEEEEE, 
                        __ZTIN3ctu8LoggableIN4logs13LogCollectionENS_10LoggerBaseINSt3__110shared_ptrINS_9LogServerEEEEEEE, 
                        __ZTIN3ctu8LoggableIN7antenna7Service8InternalENS_10LoggerBaseINSt3__110shared_ptrINS_9LogServerEEEEEEE, 
                        __ZTIN4diag7Service8InternalE, __ZTIN4logs13LogCollection9LogDriverE, 
                        __ZTIN4logs8LogStoreE, __ZTIN5boost16exception_detail10clone_baseE, 
                        __ZTIN5boost9exceptionE, __ZTIN7antenna7Service8InternalE, 
                        __ZTINSt3__113basic_filebufIcNS_11char_traitsIcEEEE, __ZTINSt3__114basic_ifstreamIcNS_11char_traitsIcEEEE, 
                        __ZTINSt3__114basic_ofstreamIcNS_11char_traitsIcEEEE, __ZTINSt3__115basic_stringbufIcNS_11char_traitsIcEENS_9allocatorIcEEEE, 
                        __ZTINSt3__118basic_stringstreamIcNS_11char_traitsIcEENS_9allocatorIcEEEE, 
                        __ZTINSt3__119basic_ostringstreamIcNS_11char_traitsIcEENS_9allocatorIcEEEE, 
                        __ZTINSt3__123enable_shared_from_thisI18DataStallDetectionEE, 
                        __ZTINSt3__123enable_shared_from_thisIN4coex6Module5StateEEE, 
                        __ZTINSt3__123enable_shared_from_thisIN4diag7Service8InternalEEE, 
                        __ZTINSt3__123enable_shared_from_thisIN4logs12FileLogStoreEEE, 
                        __ZTINSt3__123enable_shared_from_thisIN4logs13LogCollectionEEE, 
                        __ZTINSt3__123enable_shared_from_thisIN5radio13HealthService5StateEEE, 
                        __ZTINSt3__123enable_shared_from_thisIN7antenna7Service8InternalEEE, 
                        __ZTIPFbPvE, __ZTSFbPvE, __ZTSN19ATCSRouterIPCDriver12ErrorHandlerE, 
                        __ZTSN27ATCSFileDescriptorIPCDriver12ErrorHandlerE, __ZTSN3ctu14SharedLoggableI18DataStallDetectionNS_10LoggerBaseINSt3__110shared_ptrINS_9LogServerEEEEEEE, 
                        __ZTSN3ctu14SharedLoggableIN4coex6Module5StateENS_10LoggerBaseINSt3__110shared_ptrINS_9LogServerEEEEEEE, 
                        __ZTSN3ctu14SharedLoggableIN4diag7Service8InternalENS_10LoggerBaseINSt3__110shared_ptrINS_9LogServerEEEEEEE, 
                        __ZTSN3ctu14SharedLoggableIN4logs12FileLogStoreENS_10LoggerBaseINSt3__110shared_ptrINS_9LogServerEEEEEEE, 
                        __ZTSN3ctu14SharedLoggableIN4logs13LogCollectionENS_10LoggerBaseINSt3__110shared_ptrINS_9LogServerEEEEEEE, 
                        __ZTSN3ctu14SharedLoggableIN7antenna7Service8InternalENS_10LoggerBaseINSt3__110shared_ptrINS_9LogServerEEEEEEE, 
                        __ZTSN3ctu8LoggableI18DataStallDetectionNS_10LoggerBaseINSt3__110shared_ptrINS_9LogServerEEEEEEE, 
                        __ZTSN3ctu8LoggableIN4coex6Module5StateENS_10LoggerBaseINSt3__110shared_ptrINS_9LogServerEEEEEEE, 
                        __ZTSN3ctu8LoggableIN4diag7Service8InternalENS_10LoggerBaseINSt3__110shared_ptrINS_9LogServerEEEEEEE, 
                        __ZTSN3ctu8LoggableIN4logs12FileLogStoreENS_10LoggerBaseINSt3__110shared_ptrINS_9LogServerEEEEEEE, 
                        __ZTSN3ctu8LoggableIN4logs13LogCollection9LogDriverENS_10LoggerBaseINSt3__110shared_ptrINS_9LogServerEEEEEEE, 
                        __ZTSN3ctu8LoggableIN4logs13LogCollectionENS_10LoggerBaseINSt3__110shared_ptrINS_9LogServerEEEEEEE, 
                        __ZTSN3ctu8LoggableIN7antenna7Service8InternalENS_10LoggerBaseINSt3__110shared_ptrINS_9LogServerEEEEEEE, 
                        __ZTSN4diag7Service8InternalE, __ZTSN4logs13LogCollection9LogDriverE, 
                        __ZTSN4logs8LogStoreE, __ZTSN5boost16exception_detail10clone_baseE, 
                        __ZTSN5boost9exceptionE, __ZTSN7antenna7Service8InternalE, 
                        __ZTSNSt3__113basic_filebufIcNS_11char_traitsIcEEEE, __ZTSNSt3__114basic_ifstreamIcNS_11char_traitsIcEEEE, 
                        __ZTSNSt3__114basic_ofstreamIcNS_11char_traitsIcEEEE, __ZTSNSt3__114default_deleteI10ServerMainEE, 
                        __ZTSNSt3__114default_deleteIN3ctu10LogMessageEEE, __ZTSNSt3__114default_deleteIN4diag7ServiceEEE, 
                        __ZTSNSt3__114default_deleteIN4logs13LogCollection9LogDriverEEE, 
                        __ZTSNSt3__114default_deleteIN5radio13HealthServiceEEE, __ZTSNSt3__114default_deleteIN7antenna7ServiceEEE, 
                        __ZTSNSt3__114default_deleteINS_3mapIjN5radio19HealthCommandDriver9LinkStatsENS_4lessIjEENS_9allocatorINS_4pairIKjS4_EEEEEEEE, 
                        __ZTSNSt3__114default_deleteIyEE, __ZTSNSt3__115basic_stringbufIcNS_11char_traitsIcEENS_9allocatorIcEEEE, 
                        __ZTSNSt3__118basic_stringstreamIcNS_11char_traitsIcEENS_9allocatorIcEEEE, 
                        __ZTSNSt3__119basic_ostringstreamIcNS_11char_traitsIcEENS_9allocatorIcEEEE, 
                        __ZTSNSt3__123enable_shared_from_thisI18DataStallDetectionEE, 
                        __ZTSNSt3__123enable_shared_from_thisIN4coex6Module5StateEEE, 
                        __ZTSNSt3__123enable_shared_from_thisIN4diag7Service8InternalEEE, 
                        __ZTSNSt3__123enable_shared_from_thisIN4logs12FileLogStoreEEE, 
                        __ZTSNSt3__123enable_shared_from_thisIN4logs13LogCollectionEEE, 
                        __ZTSNSt3__123enable_shared_from_thisIN5radio13HealthService5StateEEE, 
                        __ZTSNSt3__123enable_shared_from_thisIN7antenna7Service8InternalEEE, 
                        __ZTSPFbPvE, __ZTSU13block_pointerFvPN7antenna15CMOnBodyManagerEE ]
  - archs:           [ arm64 ]
    symbols:         [ __Z8asString13ShutdownStage, __ZN14ServiceManager12isServerDownEv, 
                       __ZN14ServiceManager16shutdownServicesEv, __ZN14ServiceManager18initializeServicesEv, 
                       __ZN14ServiceManager20createPowerAssertionENSt3__112basic_stringIcNS0_11char_traitsIcEENS0_9allocatorIcEEEE, 
                       __ZN14ServiceManager21releasePowerAssertionENSt3__112basic_stringIcNS0_11char_traitsIcEENS0_9allocatorIcEEEE, 
                       __ZN14ServiceManager4initENSt3__110shared_ptrI14PowerInterfaceEE, 
                       __ZN14ServiceManager4wakeEN8dispatch13group_sessionE, __ZN14ServiceManager5sleepEN8dispatch13group_sessionE, 
                       __ZN14ServiceManagerC2ERKNSt3__112basic_stringIcNS0_11char_traitsIcEENS0_9allocatorIcEEEE, 
                       __ZN14ServiceManagerD0Ev, __ZN14ServiceManagerD1Ev, __ZN14ServiceManagerD2Ev, 
                       __ZN17ABMServerInternal10getRunLoopEv, __ZN17ABMServerInternal10start_syncEN8dispatch13group_sessionE, 
                       __ZN17ABMServerInternal12unicast_syncEN3xpc10connectionENSt3__112basic_stringIcNS2_11char_traitsIcEENS2_9allocatorIcEEEEN3ctu2cf11CFSharedRefIK14__CFDictionaryEEN8dispatch5blockIU13block_pointerFvvEEE, 
                       __ZN17ABMServerInternal13getState_syncEv, __ZN17ABMServerInternal13shutdown_syncEN8dispatch13group_sessionE, 
                       __ZN17ABMServerInternal14broadcast_syncENSt3__112basic_stringIcNS0_11char_traitsIcEENS0_9allocatorIcEEEEN3ctu2cf11CFSharedRefIK14__CFDictionaryEEN8dispatch5blockIU13block_pointerFvvEEE, 
                       __ZN17ABMServerInternal15finishStop_syncEv, __ZN17ABMServerInternal16changeState_syncE11ServerState, 
                       __ZN17ABMServerInternal16stopRunLoop_syncEv, __ZN17ABMServerInternal17startRunLoop_syncEv, 
                       __ZN17ABMServerInternal18checkShutdown_syncEN8dispatch13group_sessionE, 
                       __ZN17ABMServerInternal18handleMessage_syncEN3xpc10connectionENS0_4dictE, 
                       __ZN17ABMServerInternal19finishShutdown_syncEv, __ZN17ABMServerInternal19getClientState_syncEN3xpc10connectionE, 
                       __ZN17ABMServerInternal20handleNewClient_syncEN3xpc10connectionE, 
                       __ZN17ABMServerInternal20registerNotificationEN3xpc10connectionEbN3ctu2cf11CFSharedRefIK9__CFArrayEE, 
                       __ZN17ABMServerInternal22handleClientError_syncEN3xpc10connectionENS0_6objectE, 
                       __ZN17ABMServerInternal22handleServerError_syncEN3xpc6objectE, 
                       __ZN17ABMServerInternal22registerCommandHandlerENSt3__112basic_stringIcNS0_11char_traitsIcEENS0_9allocatorIcEEEEN8dispatch5blockIU13block_pointerFv17ServerClientStateN3xpc4dictENS8_IU13block_pointerFviSB_EEEEEE, 
                       __ZN17ABMServerInternal24handlePublicMessage_syncEN3xpc10connectionERNS0_4dictE, 
                       __ZN17ABMServerInternal25broadcastServerState_syncENSt3__112basic_stringIcNS0_11char_traitsIcEENS0_9allocatorIcEEEE, 
                       __ZN17ABMServerInternal26handleInternalMessage_syncEN3xpc10connectionERNS0_4dictE, 
                       __ZN17ABMServerInternal27registerCommandHandler_syncERKNSt3__112basic_stringIcNS0_11char_traitsIcEENS0_9allocatorIcEEEEN8dispatch5blockIU13block_pointerFv17ServerClientStateN3xpc4dictENSA_IU13block_pointerFviSD_EEEEEE, 
                       __ZN17ABMServerInternal4initENSt3__112basic_stringIcNS0_11char_traitsIcEENS0_9allocatorIcEEEENS0_10shared_ptrI14ServiceManagerEE, 
                       __ZN17ABMServerInternal4stopEP16dispatch_group_s, __ZN17ABMServerInternal5startEP16dispatch_group_s, 
                       __ZN17ABMServerInternal6createEv, __ZN17ABMServerInternal8shutdownEP16dispatch_group_s, 
                       __ZN17ABMServerInternal9broadcastENSt3__112basic_stringIcNS0_11char_traitsIcEENS0_9allocatorIcEEEEN3ctu2cf11CFSharedRefIK14__CFDictionaryEEN8dispatch5blockIU13block_pointerFvvEEE, 
                       __ZN17ABMServerInternal9stop_syncEN8dispatch13group_sessionE, 
                       __ZN17ABMServerInternalC1Ev, __ZN17ABMServerInternalC2Ev, 
                       __ZN17ABMServerInternalD0Ev, __ZN17ABMServerInternalD1Ev, 
                       __ZN17ABMServerInternalD2Ev, __ZN17ABMServiceManager16registerServicesEv, 
                       __ZN17ABMServiceManager17getInitTimeoutSecEv, __ZN17ABMServiceManager18getSleepTimeoutSecEv, 
                       __ZN17ABMServiceManager18getStartTimeoutSecEv, __ZN17ABMServiceManager21getShutdownTimeoutSecE13ShutdownStage, 
                       __ZN17ABMServiceManager4initEv, __ZN17ABMServiceManager6createEv, 
                       __ZN17ABMServiceManagerC1Ev, __ZN17ABMServiceManagerC2Ev, 
                       __ZN18DataStallDetection5startEv, __ZN4coex6Module10initializeEN8dispatch13group_sessionE, 
                       __ZN4coex6Module5State24handleSetWiFiStatus_syncEN3xpc4dictE, 
                       __ZN4coex6Module5State6createENSt3__110shared_ptrIN3ctu9LogServerEEENS2_8weak_ptrI14ServiceManagerEE, 
                       __ZN4coex6Module5State8shutdownE13ShutdownStageN8dispatch13group_sessionE, 
                       __ZN4coex6Module5StateC1ENSt3__110shared_ptrIN3ctu9LogServerEEENS3_INS_13CommandDriverEEENS2_8weak_ptrI14ServiceManagerEE, 
                       __ZN4coex6Module5StateC2ENSt3__110shared_ptrIN3ctu9LogServerEEENS3_INS_13CommandDriverEEENS2_8weak_ptrI14ServiceManagerEE, 
                       __ZN4coex6Module5StateD0Ev, __ZN4coex6Module5StateD1Ev, __ZN4coex6Module5StateD2Ev, 
                       __ZN4coex6Module5startEN8dispatch13group_sessionE, __ZN4coex6Module6createENSt3__18weak_ptrI14ServiceManagerEE, 
                       __ZN4coex6Module8shutdownE13ShutdownStageN8dispatch13group_sessionE, 
                       __ZN4coex6ModuleC1ENSt3__18weak_ptrI14ServiceManagerEE, __ZN4coex6ModuleC2ENSt3__18weak_ptrI14ServiceManagerEE, 
                       __ZN4coex6ModuleD0Ev, __ZN4diag6config15kADPLScratchDirE, 
                       __ZN4diag6config19kDefaultADPLHistoryE, __ZN4diag6config20kDefaultWatchHistoryE, 
                       __ZN4diag7Service15setStallHandlerENS_4Info4TypeEN8dispatch8callbackIU13block_pointerFvNS1_7Entry_tEEEE, 
                       __ZN4diag7Service4initEv, __ZN4diag7Service5abortEb, __ZN4diag7Service8Internal6createENSt3__110shared_ptrIN3ctu9LogServerEEENS_6config4ModeEN8dispatch8callbackIU13block_pointerFvNS0_5StateENS2_12basic_stringIcNS2_11char_traitsIcEENS2_9allocatorIcEEEEEEE, 
                       __ZN4diag7Service8pushInfoENS_4Info4TypeERKNSt3__112basic_stringIcNS3_11char_traitsIcEENS3_9allocatorIcEEEE, 
                       __ZN4diag7ServiceC1ENSt3__110shared_ptrIN3ctu9LogServerEEENS_6config4ModeEN8dispatch8callbackIU13block_pointerFvNS0_5StateENS1_12basic_stringIcNS1_11char_traitsIcEENS1_9allocatorIcEEEEEEE, 
                       __ZN4diag7ServiceC2ENSt3__110shared_ptrIN3ctu9LogServerEEENS_6config4ModeEN8dispatch8callbackIU13block_pointerFvNS0_5StateENS1_12basic_stringIcNS1_11char_traitsIcEENS1_9allocatorIcEEEEEEE, 
                       __ZN7Service12isServerDownEv, __ZN7Service17getServiceManagerEv, 
                       __ZN7ServiceC2ENSt3__18weak_ptrI14ServiceManagerEE, __ZN7ServiceD0Ev, 
                       __ZN7ServiceD1Ev, __ZN7ServiceD2Ev, __ZN7antenna10PPMManager15reportTelemetryEN3xpc4dictE, 
                       __ZN7antenna10PPMManager5startEv, __ZN7antenna10PPMManager6createENSt3__110shared_ptrIN3ctu9LogServerEEE, 
                       __ZN7antenna10PPMManager8shutdownEv, __ZN7antenna10PPMManagerC1ENSt3__110shared_ptrIN3ctu9LogServerEEE, 
                       __ZN7antenna10PPMManagerC2ENSt3__110shared_ptrIN3ctu9LogServerEEE, 
                       __ZN7antenna15CMOnBodyManager8shutdownEv, __ZN7antenna22CMHandDetectionManager11isSupportedEv, 
                       __ZN7antenna22CMHandDetectionManager16registerCallbackEN8dispatch5blockIU13block_pointerFvNS0_21CMHandDetectionResultEEEE, 
                       __ZN7antenna22CMHandDetectionManager4stopEv, __ZN7antenna22CMHandDetectionManager5startEv, 
                       __ZN7antenna22CMHandDetectionManager6createEv, __ZN7antenna22CMHandDetectionManager8shutdownEv, 
                       __ZN7antenna22CMHandDetectionManagerC1Ev, __ZN7antenna22CMHandDetectionManagerC2Ev, 
                       __ZN7antenna22CMHandDetectionManagerD1Ev, __ZN7antenna22CMHandDetectionManagerD2Ev, 
                       __ZN7antenna7Service8Internal14enablePPM_syncEb, __ZN7antenna7Service8Internal17getAccessoryStateEv, 
                       __ZN7antenna7Service8Internal18handDetectCallbackENS_22CMHandDetectionManager21CMHandDetectionResultE, 
                       __ZN7antenna7Service8Internal20sendPowerSource_syncEv, __ZN7antenna7Service8Internal20transmitStateHandlerENS_15BBTransmitStateENS_17BBTransmitTriggerE, 
                       __ZN7antenna7Service8Internal21isAccessoryOverriddenEv, __ZN7antenna7Service8Internal21isHandednessConditionEv, 
                       __ZN7antenna7Service8Internal21mesaNotification_syncEN3ctu5iokit23TelephonyIOKitMesaEventE, 
                       __ZN7antenna7Service8Internal22stopHandDetection_syncEv, __ZN7antenna7Service8Internal22videoNotification_syncEN3ctu5iokit25TelephonyIOKitDisplayLinkE, 
                       __ZN7antenna7Service8Internal23sendAudioAccessory_syncEv, 
                       __ZN7antenna7Service8Internal23sendDeviceMaterial_syncEv, 
                       __ZN7antenna7Service8Internal23sendVideoAccessory_syncEb, 
                       __ZN7antenna7Service8Internal24getPowerSourceState_syncEv, 
                       __ZN7antenna7Service8Internal24setTxPowerPlayAlert_syncENS0_24TxPowerCappingIPhoneModeE, 
                       __ZN7antenna7Service8Internal25processHandDetection_syncEv, 
                       __ZN7antenna7Service8Internal26accessoryNotification_syncEN3ctu5iokit32TelephonyIOKitAccessoryParameterE, 
                       __ZN7antenna7Service8Internal27isAudioReceiverOutputActiveEv, 
                       __ZN7antenna7Service8Internal28checkStartHandDetection_syncEv, 
                       __ZN7antenna7Service8Internal28createTransmitStateDict_syncENS_15BBTransmitStateENS_17BBTransmitTriggerE, 
                       __ZN7antenna7Service8Internal28isPowerSourceOverridden_syncEv, 
                       __ZN7antenna7Service8Internal28powerSourceNotification_syncEN3ctu5iokit25TelephonyIOKitPowerSourceE, 
                       __ZN7antenna7Service8Internal33enableCLTMRFReportIndication_syncEv, 
                       __ZN7antenna7Service8Internal33sendMotionHandDetectionState_syncENS_22CMHandDetectionManager21CMHandDetectionResultE, 
                       __ZN7antenna7Service8Internal34setTxPowerMotionHandDetection_syncENSt3__112basic_stringIcNS2_11char_traitsIcEENS2_9allocatorIcEEEE, 
                       __ZN7antenna7Service8Internal35enableTxPowerCappingIndication_syncEv, 
                       __ZN7antenna7Service8Internal37enableTxPowerCappingNotification_syncEb, 
                       __ZN7antenna7Service8Internal38getTxPowerCappingIPhoneModeString_syncERKNS0_24TxPowerCappingIPhoneModeE, 
                       __ZN7antenna7Service8Internal8shutdownEv, __ZN7antenna7Service8shutdownEv, 
                       __ZN9ABMServer10getProfileEv, __ZN9ABMServer10getRunLoopEv, 
                       __ZN9ABMServer21create_default_globalEv, __ZN9ABMServer22registerCommandHandlerENSt3__112basic_stringIcNS0_11char_traitsIcEENS0_9allocatorIcEEEEN8dispatch5blockIU13block_pointerFv17ServerClientStateN3xpc4dictENS8_IU13block_pointerFviSB_EEEEEE, 
                       __ZN9ABMServer24previousShutdownWasCleanEv, __ZN9ABMServer4initENSt3__112basic_stringIcNS0_11char_traitsIcEENS0_9allocatorIcEEEENS0_10shared_ptrI14ServiceManagerEE, 
                       __ZN9ABMServer4stopEP16dispatch_group_s, __ZN9ABMServer5startEP16dispatch_group_s, 
                       __ZN9ABMServer8shutdownEP16dispatch_group_s, __ZN9ABMServer9broadcastENSt3__112basic_stringIcNS0_11char_traitsIcEENS0_9allocatorIcEEEEN3ctu2cf11CFSharedRefIK14__CFDictionaryEEN8dispatch5blockIU13block_pointerFvvEEE, 
                       __ZN9ABMServerC1Ev, __ZN9ABMServerC2Ev, __ZNK17ABMServiceManager7getNameEv, 
                       __ZNK4coex6Module17getShutdownStagesEv, __ZNK4coex6Module5State17getShutdownStagesEv, 
                       __ZNK4coex6Module5State7getNameEv, __ZNK4coex6Module7getNameEv, 
                       __ZNK7antenna10PPMManager7getNameEv, __ZTI14ServiceManager, 
                       __ZTI17ABMServerInternal, __ZTI17ABMServiceManager, __ZTI7Service, 
                       __ZTIN4coex6ModuleE, __ZTS14ServiceManager, __ZTS17ABMServerInternal, 
                       __ZTS17ABMServiceManager, __ZTS7Service, __ZTSN4coex6ModuleE, 
                       __ZTV14ServiceManager, __ZTV17ABMServerInternal, __ZTV17ABMServiceManager, 
                       __ZTV7Service, __ZTVN4coex6Module5StateE, __ZTVN4coex6ModuleE, 
                       __ZThn64_N17ABMServerInternalD0Ev, __ZThn64_N17ABMServerInternalD1Ev ]
    weak-def-symbols: [ __ZGVN3ctu9SingletonI9ABMServerS1_NS_23PthreadMutexGuardPolicyIS1_EEE9sInstanceE, 
                        __ZN3ctu9SingletonI9ABMServerS1_NS_23PthreadMutexGuardPolicyIS1_EEE9sInstanceE ]
  - archs:           [ armv7, armv7s, arm64 ]
    symbols:         [ _AppleBasebandManagerGetProfile, _AppleBasebandManagerInitServer, 
                       _AppleBasebandManagerShutdownServer, _AppleBasebandManagerStartServer, 
                       _AppleBasebandManagerStopServer, _ETLEFSDUmpCopyCrashLocationDetails, 
                       _ETLEFSDumpCopyCrashHeaderDetails, _ETLEFSDumpCopySoftwareVersion, 
                       _ETLEFSDumpInfoFree, _ETLEFSDumpInterpret, __ZN18DataStallDetection11setCallbackEN8dispatch8callbackIU13block_pointerFvNSt3__112basic_stringIcNS2_11char_traitsIcEENS2_9allocatorIcEEEEEEE, 
                       __ZN18DataStallDetection6createENSt3__110shared_ptrIN3ctu9LogServerEEE, 
                       __ZN18DataStallDetectionC1ENSt3__110shared_ptrIN3ctu9LogServerEEE, 
                       __ZN18DataStallDetectionC2ENSt3__110shared_ptrIN3ctu9LogServerEEE, 
                       __ZN18DataStallDetectionD0Ev, __ZN18DataStallDetectionD1Ev, 
                       __ZN18DataStallDetectionD2Ev, __ZN3abm19kCommandSetIPCTraceE, 
                       __ZN3abm22kEventTransportIsReadyE, __ZN3abm22kKeyPowerDownMessageIdE, 
                       __ZN3abm24kKeyPowerDownMessageListE, __ZN3abm26kKeyPowerDownMessageQMISvcE, 
                       __ZN3abm29kActionCreateNetworkInterfaceE, __ZN3abm29kActionRemoveNetworkInterfaceE, 
                       __ZN3abm30kActionConfigureDataThrottlingE, __ZN3abm31kActionActivateNetworkInterfaceE, 
                       __ZN3abm31kCommandNetworkInterfaceControlE, __ZN3abm31kCommandSetPowerDownMessageListE, 
                       __ZN3abm33kActionDeactivateNetworkInterfaceE, __ZN3abm5debug17registerLogServerENSt3__110shared_ptrIN3ctu9LogServerEEE, 
                       __ZN4coex6Module5State14getSubPropertyEPK10__CFStringb, __ZN4coex6Module5State14setPolicy_syncEv, 
                       __ZN4coex6Module5State18sendWWANState_syncEv, __ZN4coex6Module5State19setIndications_syncEv, 
                       __ZN4coex6Module5State20sendLinkQuality_syncEv, __ZN4coex6Module5State21fetchBandInfoSet_syncEN3ctu2cf11CFSharedRefIK9__CFArrayEEPKcN3xpc4dictE, 
                       __ZN4coex6Module5State22handleSetWCI2Mode_syncEN3xpc4dictE, 
                       __ZN4coex6Module5State22sendFailCondition_syncEv, __ZN4coex6Module5State23setLinkQualityMode_syncEj, 
                       __ZN4coex6Module5State26handleSetTxPowerLimit_syncEN3xpc6objectE, 
                       __ZN4coex6Module5State29handleSetLinkQualityMode_syncEN3xpc4dictE, 
                       __ZN4coex6Module5State30convertScanFreqBandFilter_syncEN3xpc5arrayEN3ctu2cf11CFSharedRefIK9__CFArrayEE, 
                       __ZN4coex6Module5State30handleSetWCI2TxPowerLimit_syncEN3xpc6objectE, 
                       __ZN4coex6Module5State31handleCommandDriverStarted_syncEv, 
                       __ZN4coex6Module5State32handleGetScanFreqBandFilter_syncEv, 
                       __ZN4coex6Module5State32handleSetScanFreqBandFilter_syncEN3xpc5arrayE, 
                       __ZN4coex6Module5State33handleSetWCI2CalibrationInfo_syncEN3xpc4dictE, 
                       __ZN4coex6Module5State35handleCommandDriverStateUpdate_syncEN3ctu2cf11CFSharedRefIK14__CFDictionaryEE, 
                       __ZN4coex6Module5State37handleSetNetworkConfigOfInterest_syncEN3xpc5arrayE, 
                       __ZN4coex6Module5State4initEv, __ZN4coex6ModuleD1Ev, __ZN4coex6ModuleD2Ev, 
                       __ZN4diag6config11kMaxHistoryE, __ZN4diag6config12kDefaultModeE, 
                       __ZN4diag6config12kNoneDMCFileE, __ZN4diag6config12kTempModeKeyE, 
                       __ZN4diag6config15kDIAGScratchDirE, __ZN4diag6config15kDefaultHistoryE, 
                       __ZN4diag6config15kTempEnabledKeyE, __ZN4diag6config16kExtraDMCFileKeyE, 
                       __ZN4diag6config16kLowWatermarkKeyE, __ZN4diag6config16kSleepDMCFileKeyE, 
                       __ZN4diag6config16kUseThresholdKeyE, __ZN4diag6config17kHighWatermarkKeyE, 
                       __ZN4diag6config18kPrimaryDMCFileKeyE, __ZN4diag6config18kStallDetectionKeyE, 
                       __ZN4diag6config18kThroughputDMCFileE, __ZN4diag6config19kBufferingOnAPAwakeE, 
                       __ZN4diag6config19kKeepScratchLogsKeyE, __ZN4diag6config20kDefaultExtraDMCFileE, 
                       __ZN4diag6config20kDefaultLowWatermarkE, __ZN4diag6config20kDefaultSleepDMCFileE, 
                       __ZN4diag6config20kDefaultUseThresholdE, __ZN4diag6config20kSecondaryDMCFileKeyE, 
                       __ZN4diag6config21getShouldAlwaysFilterEv, __ZN4diag6config21kDefaultHighWatermarkE, 
                       __ZN4diag6config22kDefaultPrimaryDMCFileE, __ZN4diag6config22kDefaultStallDetectionE, 
                       __ZN4diag6config22kEnabledDuringSleepKeyE, __ZN4diag6config24kDefaultSecondaryDMCFileE, 
                       __ZN4diag6config26kStallDetectionRecoveryKeyE, __ZN4diag6config8toStringENS0_13DuringAPSleepE, 
                       __ZN4diag6config8toStringENS0_4ModeE, __ZN4diag6config8toStringENS0_8RecoveryE, 
                       __ZN4diag7Service12updateConfigEN3ctu2cf11CFSharedRefIK14__CFDictionaryEE, 
                       __ZN4diag7Service13stateAsStringENS0_5StateE, __ZN4diag7Service4stopEN8dispatch8callbackIU13block_pointerFvNS0_5StateENSt3__112basic_stringIcNS4_11char_traitsIcEENS4_9allocatorIcEEEEEEE, 
                       __ZN4diag7Service4wakeEN8dispatch8callbackIU13block_pointerFvNS0_5StateENSt3__112basic_stringIcNS4_11char_traitsIcEENS4_9allocatorIcEEEEEEE, 
                       __ZN4diag7Service5resetEN8dispatch8callbackIU13block_pointerFvNS0_5StateENSt3__112basic_stringIcNS4_11char_traitsIcEENS4_9allocatorIcEEEEEEE, 
                       __ZN4diag7Service5sleepEN8dispatch8callbackIU13block_pointerFvNS0_5StateENSt3__112basic_stringIcNS4_11char_traitsIcEENS4_9allocatorIcEEEEEEE, 
                       __ZN4diag7Service5startEN8dispatch8callbackIU13block_pointerFvNS0_5StateENSt3__112basic_stringIcNS4_11char_traitsIcEENS4_9allocatorIcEEEEEEE, 
                       __ZN4diag7Service8snapshotENSt3__112basic_stringIcNS1_11char_traitsIcEENS1_9allocatorIcEEEEbN8dispatch8callbackIU13block_pointerFvNS0_5StateES7_EEE, 
                       __ZN4diag7ServiceD1Ev, __ZN4diag7ServiceD2Ev, __ZN4logs12FileLogStore10clear_syncEv, 
                       __ZN4logs12FileLogStore10close_syncEv, __ZN4logs12FileLogStore10handleDataENSt3__110shared_ptrINS1_6vectorIhNS1_9allocatorIhEEEEEE, 
                       __ZN4logs12FileLogStore11getFilePathEv, __ZN4logs12FileLogStore11isOpen_syncEv, 
                       __ZN4logs12FileLogStore15handleData_syncENSt3__110shared_ptrINS1_6vectorIhNS1_9allocatorIhEEEEEE, 
                       __ZN4logs12FileLogStore4openEv, __ZN4logs12FileLogStore5clearEv, 
                       __ZN4logs12FileLogStore5closeEv, __ZN4logs12FileLogStore6isOpenEv, 
                       __ZN4logs12FileLogStoreC2ENSt3__110shared_ptrIN3ctu9LogServerEEENS1_12basic_stringIcNS1_11char_traitsIcEENS1_9allocatorIcEEEESB_, 
                       __ZN4logs13LogCollection10collectLogEN8dispatch5blockIU13block_pointerFvbEEEN3ctu2cf11CFSharedRefIK14__CFDictionaryEE, 
                       __ZN4logs13LogCollection11performWorkEN8dispatch5blockIU13block_pointerFvvEEE, 
                       __ZN4logs13LogCollection19stopCollection_syncEbb, __ZN4logs13LogCollection19workInProgress_syncEv, 
                       __ZN4logs13LogCollection19workIsComplete_syncEb, __ZN4logs13LogCollection4initEN3ctu2cf11CFSharedRefIK14__CFDictionaryEE, 
                       __ZN4logs13LogCollection6enableEN8dispatch5blockIU13block_pointerFvbEEE, 
                       __ZN4logs13LogCollection7disableEN8dispatch5blockIU13block_pointerFvbEEE, 
                       __ZN4logs13LogCollection9LogDriver10collectLogEN8dispatch8callbackIU13block_pointerFvbEEE, 
                       __ZN4logs13LogCollection9LogDriver5resetEv, __ZN4logs13LogCollection9LogDriver6createENSt3__110shared_ptrIN3ctu9LogServerEEEN8dispatch8callbackIU13block_pointerFvNS_15CollectionStateEEEENS8_IU13block_pointerFvNS3_INS2_6vectorIhNS2_9allocatorIhEEEEEEbEEENS4_2cf11CFSharedRefIK14__CFDictionaryEENS2_12basic_stringIcNS2_11char_traitsIcEENSE_IcEEEE, 
                       __ZN4logs13LogCollection9LogDriver6enableEN8dispatch8callbackIU13block_pointerFvbEEE, 
                       __ZN4logs13LogCollection9LogDriver6reinitEb, __ZN4logs13LogCollection9LogDriver7disableEN8dispatch8callbackIU13block_pointerFvbEEE, 
                       __ZN4logs13LogCollection9LogDriverC1ENSt3__110shared_ptrIN3ctu9LogServerEEEN8dispatch8callbackIU13block_pointerFvNS_15CollectionStateEEEENS8_IU13block_pointerFvNS3_INS2_6vectorIhNS2_9allocatorIhEEEEEEbEEENS4_2cf11CFSharedRefIK14__CFDictionaryEENS2_12basic_stringIcNS2_11char_traitsIcEENSE_IcEEEE, 
                       __ZN4logs13LogCollection9LogDriverC2ENSt3__110shared_ptrIN3ctu9LogServerEEEN8dispatch8callbackIU13block_pointerFvNS_15CollectionStateEEEENS8_IU13block_pointerFvNS3_INS2_6vectorIhNS2_9allocatorIhEEEEEEbEEENS4_2cf11CFSharedRefIK14__CFDictionaryEENS2_12basic_stringIcNS2_11char_traitsIcEENSE_IcEEEE, 
                       __ZN4logs13LogCollectionC1ENSt3__110shared_ptrIN3ctu9LogServerEEENS2_INS_8LogStoreEEENS1_12basic_stringIcNS1_11char_traitsIcEENS1_9allocatorIcEEEEb, 
                       __ZN4logs13LogCollectionC2ENSt3__110shared_ptrIN3ctu9LogServerEEENS2_INS_8LogStoreEEENS1_12basic_stringIcNS1_11char_traitsIcEENS1_9allocatorIcEEEEb, 
                       __ZN5radio13HealthService12exitLowPowerEN8dispatch8callbackIU13block_pointerFvvEEE, 
                       __ZN5radio13HealthService13enterLowPowerEN8dispatch8callbackIU13block_pointerFvvEEE, 
                       __ZN5radio13HealthService15reportDataStatsEv, __ZN5radio13HealthService25kKeyDataReportingIntervalE, 
                       __ZN5radio13HealthService5State12exitLowPowerEN8dispatch8callbackIU13block_pointerFvvEEE, 
                       __ZN5radio13HealthService5State13enterLowPowerEN8dispatch8callbackIU13block_pointerFvvEEE, 
                       __ZN5radio13HealthService5State15reportDataStatsEv, __ZN5radio13HealthService5State20reportDataStats_syncEv, 
                       __ZN5radio13HealthService5State27stopDataReportingTimer_syncEv, 
                       __ZN5radio13HealthService5State28queryAndReportDataStats_syncEv, 
                       __ZN5radio13HealthService5State28startDataReportingTimer_syncEN3ctu2cf11CFSharedRefIK14__CFDictionaryEE, 
                       __ZN5radio13HealthService5State28startDataStallReporting_syncEv, 
                       __ZN5radio13HealthService5State5resetEv, __ZN5radio13HealthService5State5startEN3ctu2cf11CFSharedRefIK14__CFDictionaryEE, 
                       __ZN5radio13HealthService5StateC1ENSt3__110shared_ptrIN3ctu9LogServerEEENS3_I18DataStallDetectionEE, 
                       __ZN5radio13HealthService5StateC2ENSt3__110shared_ptrIN3ctu9LogServerEEENS3_I18DataStallDetectionEE, 
                       __ZN5radio13HealthService5StateD0Ev, __ZN5radio13HealthService5StateD1Ev, 
                       __ZN5radio13HealthService5StateD2Ev, __ZN5radio13HealthService5resetEv, 
                       __ZN5radio13HealthServiceC1ENSt3__110shared_ptrIN3ctu9LogServerEEENS2_I18DataStallDetectionEENS3_2cf11CFSharedRefIK14__CFDictionaryEE, 
                       __ZN5radio13HealthServiceC2ENSt3__110shared_ptrIN3ctu9LogServerEEENS2_I18DataStallDetectionEENS3_2cf11CFSharedRefIK14__CFDictionaryEE, 
                       __ZN7antenna15CMOnBodyManager11isSupportedEv, __ZN7antenna15CMOnBodyManager13setThresholdsEPK14__CFDictionary, 
                       __ZN7antenna15CMOnBodyManager19motionCallback_syncENS0_14CMOnBodyResultENS0_24CMOnBodyResultConfidenceE, 
                       __ZN7antenna15CMOnBodyManager19stopMotionDetectionEv, __ZN7antenna15CMOnBodyManager20startMotionDetectionEPK14__CFDictionaryN8dispatch5blockIU13block_pointerFvNS0_14CMOnBodyResultENS0_24CMOnBodyResultConfidenceEEEE, 
                       __ZN7antenna15CMOnBodyManager6createEv, __ZN7antenna15CMOnBodyManagerC1Ev, 
                       __ZN7antenna15CMOnBodyManagerC2Ev, __ZN7antenna15CMOnBodyManagerD1Ev, 
                       __ZN7antenna15CMOnBodyManagerD2Ev, __ZN7antenna7Service10callActiveEv, 
                       __ZN7antenna7Service11stopServiceEv, __ZN7antenna7Service12callInactiveEv, 
                       __ZN7antenna7Service12exitLowPowerEv, __ZN7antenna7Service12startServiceEv, 
                       __ZN7antenna7Service13enterLowPowerEv, __ZN7antenna7Service13setAudioStateEN3xpc4dictE, 
                       __ZN7antenna7Service18antennaGetPropertyERKN3xpc4dictE, __ZN7antenna7Service18antennaSetPropertyERKN3xpc4dictE, 
                       __ZN7antenna7Service19setMotionThresholdsEN3xpc4dictE, __ZN7antenna7Service8Internal10callActiveEv, 
                       __ZN7antenna7Service8Internal11stopServiceEv, __ZN7antenna7Service8Internal12callInactiveEv, 
                       __ZN7antenna7Service8Internal12exitLowPowerEv, __ZN7antenna7Service8Internal12setupTxPowerEv, 
                       __ZN7antenna7Service8Internal12startServiceEv, __ZN7antenna7Service8Internal13enterLowPowerEv, 
                       __ZN7antenna7Service8Internal13lqmState_syncENS0_11LinkQualityE, 
                       __ZN7antenna7Service8Internal13setAudioStateEN3xpc4dictE, 
                       __ZN7antenna7Service8Internal15isMotionSupportEv, __ZN7antenna7Service8Internal16calculateTxValueEjj, 
                       __ZN7antenna7Service8Internal16sendAudioSpeakerEv, __ZN7antenna7Service8Internal16setMaxPower_syncERKN3xpc4dictE, 
                       __ZN7antenna7Service8Internal16setMaxPower_syncEi, __ZN7antenna7Service8Internal16stopService_syncEv, 
                       __ZN7antenna7Service8Internal17setTxEndTime_syncEj, __ZN7antenna7Service8Internal17systemElapsedTimeEv, 
                       __ZN7antenna7Service8Internal18antennaGetPropertyERKN3xpc4dictE, 
                       __ZN7antenna7Service8Internal18antennaSetPropertyERKN3xpc4dictE, 
                       __ZN7antenna7Service8Internal18configTxPower_syncENS_14TxPowerSvcTypeE, 
                       __ZN7antenna7Service8Internal18configuration_syncEv, __ZN7antenna7Service8Internal19getTxDutyCycle_syncEj, 
                       __ZN7antenna7Service8Internal19setMotionThresholdsEN3xpc4dictE, 
                       __ZN7antenna7Service8Internal19setTxStartTime_syncEj, __ZN7antenna7Service8Internal20handleDumpState_syncEv, 
                       __ZN7antenna7Service8Internal20motionDetectCallbackENS_15CMOnBodyManager14CMOnBodyResultENS2_24CMOnBodyResultConfidenceE, 
                       __ZN7antenna7Service8Internal20systemTimeDifferenceEjj, __ZN7antenna7Service8Internal21proximityNotificationEi, 
                       __ZN7antenna7Service8Internal21sendAudioSpeaker_syncEv, __ZN7antenna7Service8Internal22cltmRFReportIndicationEN3xpc4dictE, 
                       __ZN7antenna7Service8Internal22isAudioAnyOutputActiveEv, __ZN7antenna7Service8Internal23isMotionOnTablePositionEv, 
                       __ZN7antenna7Service8Internal23stopTxPowerCapping_syncEv, 
                       __ZN7antenna7Service8Internal24isAudioOtherOutputActiveEv, 
                       __ZN7antenna7Service8Internal24sendAccessoryStatus_syncEv, 
                       __ZN7antenna7Service8Internal24setTxPowerAudioMode_syncERKN3xpc4dictE, 
                       __ZN7antenna7Service8Internal24startTxPowerCapping_syncEv, 
                       __ZN7antenna7Service8Internal24stopMotionDetection_syncEv, 
                       __ZN7antenna7Service8Internal25copyTxPowerAudioMode_syncEv, 
                       __ZN7antenna7Service8Internal25enableTxPowerCapping_syncEb, 
                       __ZN7antenna7Service8Internal25getTxPowerAudioModeStringEv, 
                       __ZN7antenna7Service8Internal25setLinkQualityMetric_syncENS0_11LinkQualityE, 
                       __ZN7antenna7Service8Internal25setTxPowerAudioAlert_syncERKN3xpc4dictE, 
                       __ZN7antenna7Service8Internal25setTxPowerMotionMode_syncERKN3xpc4dictE, 
                       __ZN7antenna7Service8Internal25startMotionDetection_syncEv, 
                       __ZN7antenna7Service8Internal26copyTxPowerAudioAlert_syncEv, 
                       __ZN7antenna7Service8Internal26copyTxPowerMotionMode_syncEv, 
                       __ZN7antenna7Service8Internal26getTxPowerMotionModeStringEv, 
                       __ZN7antenna7Service8Internal26isAudioSpeakerOutputActiveEv, 
                       __ZN7antenna7Service8Internal26proximityNotification_syncEi, 
                       __ZN7antenna7Service8Internal27getTxDutyCycleInternal_syncEjj, 
                       __ZN7antenna7Service8Internal28getTxPowerCappingCurrentModeEv, 
                       __ZN7antenna7Service8Internal28handleTxPowerTechConfig_syncERKN3xpc4dictENSt3__112basic_stringIcNS6_11char_traitsIcEENS6_9allocatorIcEEEE, 
                       __ZN7antenna7Service8Internal29stopTxPowerCappingIPhone_syncEv, 
                       __ZN7antenna7Service8Internal30iPadTxPowerCappingTimerExpiredENS0_22TxPowerCappingIPadModeE, 
                       __ZN7antenna7Service8Internal30startTxPowerCappingIPhone_syncEv, 
                       __ZN7antenna7Service8Internal30stopTxMotionCallbackTimer_syncEv, 
                       __ZN7antenna7Service8Internal31isAudioReceiverOutputOnlyActiveEv, 
                       __ZN7antenna7Service8Internal31sendTxPowerCappingIPadMode_syncEv, 
                       __ZN7antenna7Service8Internal31startTxMotionCallbackTimer_syncEv, 
                       __ZN7antenna7Service8Internal32resetTxPowerTechConfigTxPwr_syncEv, 
                       __ZN7antenna7Service8Internal32setTxPowerCappingIPhoneMode_syncERKN3xpc4dictE, 
                       __ZN7antenna7Service8Internal32stopTxPowerCappingIPadTimer_syncEv, 
                       __ZN7antenna7Service8Internal33copyTxPowerCappingIPhoneMode_syncEv, 
                       __ZN7antenna7Service8Internal33getTxPowerIPadWithProxCappingModeEi, 
                       __ZN7antenna7Service8Internal33handleTxPowerTechConfigTxPwr_syncEj, 
                       __ZN7antenna7Service8Internal33releasePowerAssertionIPadWithProxEv, 
                       __ZN7antenna7Service8Internal33startTxPowerCappingIPadTimer_syncEv, 
                       __ZN7antenna7Service8Internal34stopTxPowerCappingIPhoneTimer_syncEv, 
                       __ZN7antenna7Service8Internal35startTxPowerCappingIPhoneTimer_syncEv, 
                       __ZN7antenna7Service8Internal35stopTxPowerCappingIPadWithProx_syncEv, 
                       __ZN7antenna7Service8Internal36handleMotionCallbackTimerExpiry_syncEv, 
                       __ZN7antenna7Service8Internal36startTxPowerCappingIPadWithProx_syncEv, 
                       __ZN7antenna7Service8Internal37createPowerAssertionIPadWithProx_syncEv, 
                       __ZN7antenna7Service8Internal37getTxPowerCappingAntennaFreeSpaceModeEv, 
                       __ZN7antenna7Service8Internal37handleTxPowerCappingIPadResponse_syncEb, 
                       __ZN7antenna7Service8Internal37stopTxPowerCappingIPadWithMotion_syncEv, 
                       __ZN7antenna7Service8Internal38resetTxPowerTechConfigTxDutyCycle_syncEv, 
                       __ZN7antenna7Service8Internal38startTxPowerCappingIPadWithMotion_syncEv, 
                       __ZN7antenna7Service8Internal39handleTxPowerTechConfigTxDutyCycle_syncEj, 
                       __ZN7antenna7Service8Internal40getTxPowerIPadWithMotionCappingMode_syncEv, 
                       __ZN7antenna7Service8Internal40handleTxPowerCappingIPadTimerExpiry_syncEv, 
                       __ZN7antenna7Service8Internal42handleTxPowerCappingIPhoneTimerExpiry_syncEv, 
                       __ZN7antenna7Service8Internal42stopTxPowerCappingIPadWithMotionTimer_syncEv, 
                       __ZN7antenna7Service8Internal43startTxPowerCappingIPadWithMotionTimer_syncEv, 
                       __ZN7antenna7Service8Internal45setTxPowerCappingIPhoneOverrideFreeSpace_syncERKN3xpc6objectE, 
                       __ZN7antenna7Service8Internal4initEv, __ZN7antenna7Service8Internal50handleTxPowerCappingIPadWithMotionTimerExpiry_syncEv, 
                       __ZN7antenna7Service8Internal53getTxPowerCappingIPhoneOverriddenFreeSpaceString_syncEv, 
                       __ZN7antenna7Service8Internal6createENSt3__110shared_ptrIN3ctu9LogServerEEEN8dispatch8callbackIU13block_pointerFvN3xpc4dictEEEE, 
                       __ZN7antenna7Service8Internal9dumpStateEv, __ZN7antenna7Service8InternalC1ENSt3__110shared_ptrIN3ctu9LogServerEEEN8dispatch8callbackIU13block_pointerFvN3xpc4dictEEEE, 
                       __ZN7antenna7Service8InternalC2ENSt3__110shared_ptrIN3ctu9LogServerEEEN8dispatch8callbackIU13block_pointerFvN3xpc4dictEEEE, 
                       __ZN7antenna7Service9dumpStateEv, __ZN7antenna7ServiceC1ENSt3__110shared_ptrIN3ctu9LogServerEEEN8dispatch8callbackIU13block_pointerFvN3xpc4dictEEEE, 
                       __ZN7antenna7ServiceC2ENSt3__110shared_ptrIN3ctu9LogServerEEEN8dispatch8callbackIU13block_pointerFvN3xpc4dictEEEE, 
                       __ZN7antenna7ServiceD1Ev, __ZN7antenna7ServiceD2Ev, __ZNK4diag7Service8getStateEv, 
                       __ZTI18DataStallDetection, __ZTIN4coex6Module5StateE, __ZTIN4logs12FileLogStoreE, 
                       __ZTIN4logs13LogCollectionE, __ZTIN5radio13HealthService5StateE, 
                       __ZTS18DataStallDetection, __ZTSN4coex6Module5StateE, __ZTSN4logs12FileLogStoreE, 
                       __ZTSN4logs13LogCollectionE, __ZTSN5radio13HealthService5StateE, 
                       __ZTV18DataStallDetection, __ZTVN4logs12FileLogStoreE, __ZTVN4logs13LogCollectionE, 
                       __ZTVN5radio13HealthService5StateE ]
    weak-def-symbols: [ __ZGVN3ctu9SingletonINS_18XpcJetsamAssertionES1_NS_23PthreadMutexGuardPolicyIS1_EEE9sInstanceE, 
                        __ZGVN3ctu9SingletonINS_5power9assertionES2_NS_23PthreadMutexGuardPolicyIS2_EEE9sInstanceE, 
                        __ZGVN3ctu9SingletonINS_9LogServerEN4atcs9LogServerENS_23PthreadMutexGuardPolicyIS1_EEE9sInstanceE, 
                        __ZN3ctu9SingletonINS_18XpcJetsamAssertionES1_NS_23PthreadMutexGuardPolicyIS1_EEE9sInstanceE, 
                        __ZN3ctu9SingletonINS_5power9assertionES2_NS_23PthreadMutexGuardPolicyIS2_EEE9sInstanceE, 
                        __ZN3ctu9SingletonINS_9LogServerEN4atcs9LogServerENS_23PthreadMutexGuardPolicyIS1_EEE9sInstanceE ]
...
