--- !tapi-tbd-v2
archs:           [ armv7, armv7s, arm64 ]
uuids:           [ 'armv7: 6596BF73-2282-383F-9589-1293D26C3C77', 'armv7s: 76FD5F93-80B4-346B-B3E9-7FD2695C1E42', 
                   'arm64: AFB36B95-226C-3F71-AC51-F85529702CF8' ]
platform:        ios
install-name:    /usr/lib/libCTLogHelper.dylib
objc-constraint: none
exports:         
  - archs:           [ armv7, armv7s, arm64 ]
    symbols:         [ __ZN21CTLogHelperController13dumpLogs_syncEbb, __ZN21CTLogHelperController13enableLoggingEb, 
                       __ZN21CTLogHelperController14initilize_syncEv, __ZN21CTLogHelperController18enableLogging_syncEb, 
                       __ZN21CTLogHelperController18enableLogging_syncEv, __ZN21CTLogHelperController19capabilitiesChangedEv, 
                       __ZN21CTLogHelperController19disableLogging_syncEv, __ZN21CTLogHelperController23disableWifiLogging_syncEv, 
                       __ZN21CTLogHelperController24capabilitiesChanged_syncEv, __ZN21CTLogHelperController25readPreferenceForKey_syncEPK10__CFString, 
                       __ZN21CTLogHelperController26disableThumperLogging_syncEv, 
                       __ZN21CTLogHelperController26writePreferenceForKey_syncEPK10__CFStringb, 
                       __ZN21CTLogHelperController6createEv, __ZN21CTLogHelperController8dumpLogsEbb, 
                       __ZN21CTLogHelperControllerC1Ev, __ZN21CTLogHelperControllerC2Ev, 
                       __ZN21CTLogHelperControllerD1Ev, __ZN21CTLogHelperControllerD2Ev, 
                       __ZNK21CTLogHelperController20isWifiLoggingEnabledEv, __ZNK21CTLogHelperController23isThumperLoggingEnabledEv ]
    objc-classes:    [ _CTLogHelperControllerObjc ]
...
