--- !tapi-tbd-v2
archs:           [ armv7, armv7s, arm64 ]
uuids:           [ 'armv7: 00000000-0000-0000-0000-000000000000', 'armv7s: 00000000-0000-0000-0000-000000000000', 
                   'arm64: D2C261A9-C051-3CE6-9D87-0B8507485E21' ]
platform:        ios
install-name:    /usr/lib/libmorphun.dylib
objc-constraint: none
exports:         
  - archs:           [ arm64 ]
    symbols:         [ __Z12inflectorMapv, __Z13DOUBLE_QUOTESv, __Z13LEMMA_LOCALESv, 
                       __Z13SINGLE_QUOTESv, __Z14EXEMPLAR_CACHEv, __Z14SET_SINGLETONSv, 
                       __Z19createMappableCharsv, __Z31NfdVolatileForeignExemplarCachev, 
                       __Z31initLANGUAGE_TO_LOCALE_FALLBACKv, __Z3NFDv, __Z4NFKDv, 
                       __Z8filesizePKc, __ZN10Dictionary15setupDictionaryERKN7morphun4util7ULocaleERKNSt3__112basic_stringIcNS5_11char_traitsIcEENS5_9allocatorIcEEEESD_, 
                       __ZN10Dictionary17loadPartsOfSpeechEPS_RKNSt3__112basic_stringIcNS1_11char_traitsIcEENS1_9allocatorIcEEEERNS1_3mapIPKDsSC_N7morphun4util19BinaryStringCompareENS5_INS1_4pairIKSC_SC_EEEEEE, 
                       __ZN10Dictionary20extractPartsOfSpeechERNSt3__114basic_ifstreamIcNS0_11char_traitsIcEEEEPNS0_3mapIPKDsS8_N7morphun4util19BinaryStringCompareENS0_9allocatorINS0_4pairIKS8_S8_EEEEEE, 
                       __ZN10Dictionary31createGrammemeTypeIfNonExistantERKNSt3__112basic_stringIDsNS0_11char_traitsIDsEENS0_9allocatorIDsEEEE, 
                       __ZN10Dictionary9transformEPNSt3__112basic_stringIDsNS0_11char_traitsIDsEENS0_9allocatorIDsEEEERKS6_, 
                       __ZN3com5apple4siri10morphology15transliteration26transliteration_map_ar_csv7contentE, 
                       __ZN3com5apple4siri10morphology15transliteration26transliteration_map_he_csv7contentE, 
                       __ZN3com5apple4siri10morphology15transliteration26transliteration_map_ru_csv7contentE, 
                       __ZN3com5apple4siri10morphology8analysis6filter32contractionExpandingTable_de_csv7contentE, 
                       __ZN3com5apple4siri10morphology8analysis6filter32contractionExpandingTable_en_csv7contentE, 
                       __ZN3com5apple4siri10morphology8analysis6filter32contractionExpandingTable_es_csv7contentE, 
                       __ZN3com5apple4siri10morphology8analysis6filter32contractionExpandingTable_fr_csv7contentE, 
                       __ZN3com5apple4siri10morphology8analysis6filter32contractionExpandingTable_it_csv7contentE, 
                       __ZN3com5apple4siri10morphology8analysis6filter32contractionExpandingTable_ja_csv7contentE, 
                       __ZN3com5apple4siri10morphology9stopwords13stopwords_txt7contentE, 
                       __ZN3com5apple4siri10morphology9stopwords14dutch_stop_txt7contentE, 
                       __ZN3com5apple4siri10morphology9stopwords15danish_stop_txt7contentE, 
                       __ZN3com5apple4siri10morphology9stopwords15french_stop_txt7contentE, 
                       __ZN3com5apple4siri10morphology9stopwords15german_stop_txt7contentE, 
                       __ZN3com5apple4siri10morphology9stopwords16finnish_stop_txt7contentE, 
                       __ZN3com5apple4siri10morphology9stopwords16italian_stop_txt7contentE, 
                       __ZN3com5apple4siri10morphology9stopwords16russian_stop_txt7contentE, 
                       __ZN3com5apple4siri10morphology9stopwords16spanish_stop_txt7contentE, 
                       __ZN3com5apple4siri10morphology9stopwords16swedish_stop_txt7contentE, 
                       __ZN3com5apple4siri10morphology9stopwords18norwegian_stop_txt7contentE, 
                       __ZN3com5apple4siri10morphology9stopwords21french_extra_stop_txt7contentE, 
                       __ZN3com5apple4siri10morphology9stopwords29brazilian_portuguese_stop_txt7contentE, 
                       __ZN3com5apple4siri4lang8features11grammar_dtd7contentE, __ZN3com5apple4siri4lang8features11grammar_xml7contentE, 
                       __ZN3com5apple4siri6cortex6common16fallback_locales10getContentEv, 
                       __ZN3com5apple4siri6cortex6common17supported_locales10getContentEv, 
                       __ZN3com5apple4siri9tokenizer4data10config_wuu10getContentEv, 
                       __ZN3com5apple4siri9tokenizer4data10config_yue10getContentEv, 
                       __ZN3com5apple4siri9tokenizer4data12config_zh_HK10getContentEv, 
                       __ZN3com5apple4siri9tokenizer4data12config_zh_TW10getContentEv, 
                       __ZN3com5apple4siri9tokenizer4data14config_zh_Hant10getContentEv, 
                       __ZN3com5apple4siri9tokenizer4data2ar17nondecompound_tok7contentE, 
                       __ZN3com5apple4siri9tokenizer4data2de17nondecompound_tok7contentE, 
                       __ZN3com5apple4siri9tokenizer4data2fi10suffix_seq7contentE, 
                       __ZN3com5apple4siri9tokenizer4data2fi12freq2LogProb7contentE, 
                       __ZN3com5apple4siri9tokenizer4data2fi12suffix_split7contentE, 
                       __ZN3com5apple4siri9tokenizer4data2fi13middle_suffix7contentE, 
                       __ZN3com5apple4siri9tokenizer4data2fi6clitic7contentE, __ZN3com5apple4siri9tokenizer4data2fi8particle7contentE, 
                       __ZN3com5apple4siri9tokenizer4data2he17nondecompound_tok7contentE, 
                       __ZN3com5apple4siri9tokenizer4data2ms17nondecompound_tok7contentE, 
                       __ZN3com5apple4siri9tokenizer4data2sv17nondecompound_tok7contentE, 
                       __ZN3com5apple4siri9tokenizer4data9config_ar10getContentEv, 
                       __ZN3com5apple4siri9tokenizer4data9config_da10getContentEv, 
                       __ZN3com5apple4siri9tokenizer4data9config_de10getContentEv, 
                       __ZN3com5apple4siri9tokenizer4data9config_en10getContentEv, 
                       __ZN3com5apple4siri9tokenizer4data9config_es10getContentEv, 
                       __ZN3com5apple4siri9tokenizer4data9config_fi10getContentEv, 
                       __ZN3com5apple4siri9tokenizer4data9config_fr10getContentEv, 
                       __ZN3com5apple4siri9tokenizer4data9config_he10getContentEv, 
                       __ZN3com5apple4siri9tokenizer4data9config_hi10getContentEv, 
                       __ZN3com5apple4siri9tokenizer4data9config_id10getContentEv, 
                       __ZN3com5apple4siri9tokenizer4data9config_it10getContentEv, 
                       __ZN3com5apple4siri9tokenizer4data9config_ja10getContentEv, 
                       __ZN3com5apple4siri9tokenizer4data9config_ko10getContentEv, 
                       __ZN3com5apple4siri9tokenizer4data9config_ms10getContentEv, 
                       __ZN3com5apple4siri9tokenizer4data9config_nb10getContentEv, 
                       __ZN3com5apple4siri9tokenizer4data9config_nl10getContentEv, 
                       __ZN3com5apple4siri9tokenizer4data9config_pl10getContentEv, 
                       __ZN3com5apple4siri9tokenizer4data9config_pt10getContentEv, 
                       __ZN3com5apple4siri9tokenizer4data9config_ru10getContentEv, 
                       __ZN3com5apple4siri9tokenizer4data9config_sv10getContentEv, 
                       __ZN3com5apple4siri9tokenizer4data9config_th10getContentEv, 
                       __ZN3com5apple4siri9tokenizer4data9config_tr10getContentEv, 
                       __ZN3com5apple4siri9tokenizer4data9config_vi10getContentEv, 
                       __ZN3com5apple4siri9tokenizer4data9config_zh10getContentEv, 
                       __ZN7morphun10TokenChain11EMPTY_CHAINEv, __ZN7morphun10TokenChain13getTokenValueEi, 
                       __ZN7morphun10TokenChain14isExplicitOnlyEv, __ZN7morphun10TokenChain16getNewTokenChainEii, 
                       __ZN7morphun10TokenChain17precedingAdjacentEPNS_5TokenES2_bb, 
                       __ZN7morphun10TokenChain17precedingAdjacentEiibb, __ZN7morphun10TokenChain19toOriginatingStringEv, 
                       __ZN7morphun10TokenChain21createEmptyTokenChainEv, __ZN7morphun10TokenChain24trailingTailOrWhiteSpaceEib, 
                       __ZN7morphun10TokenChain25precedingHeadOrWhiteSpaceEib, __ZN7morphun10TokenChainC1EPNS_10Token_HeadEPNS_10Token_TailE, 
                       __ZN7morphun10TokenChainC2EPNS_10Token_HeadEPNS_10Token_TailE, 
                       __ZN7morphun10Token_HeadC1Ei, __ZN7morphun10Token_HeadC1Ev, 
                       __ZN7morphun10Token_HeadC2Ei, __ZN7morphun10Token_HeadC2Ev, 
                       __ZN7morphun10Token_TailC1Ei, __ZN7morphun10Token_TailC2Ei, 
                       __ZN7morphun10Token_WordC1EiiRKNSt3__112basic_stringIDsNS1_11char_traitsIDsEENS1_9allocatorIDsEEEES9_b, 
                       __ZN7morphun10Token_WordC2EiiRKNSt3__112basic_stringIDsNS1_11char_traitsIDsEENS1_9allocatorIDsEEEES9_b, 
                       __ZN7morphun10dictionary16Inflector_SuffixC1ERKNSt3__112basic_stringIDsNS2_11char_traitsIDsEENS2_9allocatorIDsEEEEi, 
                       __ZN7morphun10dictionary16Inflector_SuffixC2ERKNSt3__112basic_stringIDsNS2_11char_traitsIDsEENS2_9allocatorIDsEEEEi, 
                       __ZN7morphun10dictionary16PhraseProperties11PUNCTUATIONEv, 
                       __ZN7morphun10dictionary16PhraseProperties15isEndsWithVowelERKNS_4util7ULocaleERKNSt3__112basic_stringIDsNS6_11char_traitsIDsEENS6_9allocatorIDsEEEE, 
                       __ZN7morphun10dictionary16PhraseProperties17isStartsWithVowelERKNS_4util7ULocaleERKNSt3__112basic_stringIDsNS6_11char_traitsIDsEENS6_9allocatorIDsEEEE, 
                       __ZN7morphun10dictionary16PhraseProperties18DEFAULT_VOWELS_ENDEv, 
                       __ZN7morphun10dictionary16PhraseProperties18getLastUsableIndexERKNSt3__112basic_stringIDsNS2_11char_traitsIDsEENS2_9allocatorIDsEEEERKN7icu4cxx10UnicodeSetE, 
                       __ZN7morphun10dictionary16PhraseProperties19FRENCH_VOWELS_STARTEv, 
                       __ZN7morphun10dictionary16PhraseProperties19getFirstUsableIndexERKNSt3__112basic_stringIDsNS2_11char_traitsIDsEENS2_9allocatorIDsEEEERKN7icu4cxx10UnicodeSetE, 
                       __ZN7morphun10dictionary16PhraseProperties20DEFAULT_VOWELS_STARTEv, 
                       __ZN7morphun10dictionary16PhraseProperties21DEFAULT_MATCHABLE_SETEv, 
                       __ZN7morphun10dictionary16PhraseProperties21isEndsWithUnicodeSetsERKNSt3__112basic_stringIDsNS2_11char_traitsIDsEENS2_9allocatorIDsEEEERKN7icu4cxx10UnicodeSetESE_RKNS2_6vectorIPSD_NS6_ISG_EEEE, 
                       __ZN7morphun10dictionary16PhraseProperties23isStartsWithUnicodeSetsERKNSt3__112basic_stringIDsNS2_11char_traitsIDsEENS2_9allocatorIDsEEEERKN7icu4cxx10UnicodeSetESE_RKNS2_6vectorIPSD_NS6_ISG_EEEE, 
                       __ZN7morphun10dictionary16PhraseProperties8I_LETTEREv, __ZN7morphun10dictionary16PhraseProperties8J_LETTEREv, 
                       __ZN7morphun10dictionary16PhraseProperties9normalizeERKN7icu4cxx11Normalizer2ERKNSt3__112basic_stringIDsNS6_11char_traitsIDsEENS6_9allocatorIDsEEEE, 
                       __ZN7morphun10dictionary16PhrasePropertiesC1Ev, __ZN7morphun10dictionary16PhrasePropertiesC2Ev, 
                       __ZN7morphun10dictionary18DictionaryMetaData16DICTIONARY_CACHEEv, 
                       __ZN7morphun10dictionary18DictionaryMetaData16createDictionaryERKNS_4util7ULocaleE, 
                       __ZN7morphun10dictionary18DictionaryMetaData9transformEPNSt3__112basic_stringIDsNS2_11char_traitsIDsEENS2_9allocatorIDsEEEERKS8_RKNS_4util7ULocaleE, 
                       __ZN7morphun10dictionary18DictionaryMetaDataC1EPNS0_29DictionaryMetaData_DictionaryE, 
                       __ZN7morphun10dictionary18DictionaryMetaDataC2EPNS0_29DictionaryMetaData_DictionaryE, 
                       __ZN7morphun10dictionary18DictionaryMetaDataD1Ev, __ZN7morphun10dictionary18DictionaryMetaDataD2Ev, 
                       __ZN7morphun10dictionary20Inflector_InflectionC1ERKNSt3__112basic_stringIDsNS2_11char_traitsIDsEENS2_9allocatorIDsEEEEPKNS2_3mapIS8_NS0_27Inflector_InflectionPatternENS2_4lessIS8_EENS6_INS2_4pairIS9_SC_EEEEEESA_RKNS2_6vectorIS8_NS6_IS8_EEEE, 
                       __ZN7morphun10dictionary20Inflector_InflectionC2ERKNSt3__112basic_stringIDsNS2_11char_traitsIDsEENS2_9allocatorIDsEEEEPKNS2_3mapIS8_NS0_27Inflector_InflectionPatternENS2_4lessIS8_EENS6_INS2_4pairIS9_SC_EEEEEESA_RKNS2_6vectorIS8_NS6_IS8_EEEE, 
                       __ZN7morphun10dictionary27Inflector_InflectionPattern13addInflectionERKNS0_20Inflector_InflectionE, 
                       __ZN7morphun10dictionary27Inflector_InflectionPatternC1ERKNSt3__112basic_stringIDsNS2_11char_traitsIDsEENS2_9allocatorIDsEEEEiRKNS2_6vectorIS8_NS6_IS8_EEEESF_i, 
                       __ZN7morphun10dictionary27Inflector_InflectionPatternC2ERKNSt3__112basic_stringIDsNS2_11char_traitsIDsEENS2_9allocatorIDsEEEEiRKNS2_6vectorIS8_NS6_IS8_EEEESF_i, 
                       __ZN7morphun10dictionary30Inflector_InflectionDictionaryC1ERKNS_4util7ULocaleE, 
                       __ZN7morphun10dictionary30Inflector_InflectionDictionaryC2ERKNS_4util7ULocaleE, 
                       __ZN7morphun10dictionary34DictionaryMetaData_EmptyDictionaryC1ERKNS_4util7ULocaleE, 
                       __ZN7morphun10dictionary34DictionaryMetaData_EmptyDictionaryC2ERKNS_4util7ULocaleE, 
                       __ZN7morphun10dictionary36DictionaryMetaData_MMappedDictionary12MAGIC_MARKERE, 
                       __ZN7morphun10dictionary36DictionaryMetaData_MMappedDictionary16createDictionaryERKNS_4util7ULocaleERKNSt3__13mapIxNS6_6vectorIPKDsNS6_9allocatorISA_EEEENS6_4lessIxEENSB_INS6_4pairIKxSD_EEEEEERKNS7_ISA_xNS2_19BinaryStringCompareENSB_INSG_IKSA_xEEEEEERKNS7_IxSA_SF_NSB_INSG_ISH_SA_EEEEEEST_NS7_ISA_NS7_ISA_SD_SN_NSB_INSG_ISO_SD_EEEEEESN_NSB_INSG_ISO_S11_EEEEEE, 
                       __ZN7morphun10dictionary36DictionaryMetaData_MMappedDictionary16createDictionaryERKNSt3__112basic_stringIDsNS2_11char_traitsIDsEENS2_9allocatorIDsEEEE, 
                       __ZN7morphun10dictionary36DictionaryMetaData_MMappedDictionary16createDictionaryERKNSt3__112basic_stringIDsNS2_11char_traitsIDsEENS2_9allocatorIDsEEEEPNS_4util16MemoryMappedFileE, 
                       __ZN7morphun10dictionary36DictionaryMetaData_MMappedDictionary7VERSIONE, 
                       __ZN7morphun10dictionary36DictionaryMetaData_MMappedDictionaryC1ERKNS_4util7ULocaleEPNS0_8metadata15BinarySearchMapIxNSt3__16vectorIPKDsNS8_9allocatorISB_EEEENS8_4lessIvEEEEPNS6_10MarisaTrieIxEEPNS7_IxSB_SG_EESL_PNS6_16PropertyValueMapEPNS2_16MemoryMappedFileE, 
                       __ZN7morphun10dictionary36DictionaryMetaData_MMappedDictionaryC2ERKNS_4util7ULocaleEPNS0_8metadata15BinarySearchMapIxNSt3__16vectorIPKDsNS8_9allocatorISB_EEEENS8_4lessIvEEEEPNS6_10MarisaTrieIxEEPNS7_IxSB_SG_EESL_PNS6_16PropertyValueMapEPNS2_16MemoryMappedFileE, 
                       __ZN7morphun10dictionary36DictionaryMetaData_MMappedDictionaryD0Ev, 
                       __ZN7morphun10dictionary36DictionaryMetaData_MMappedDictionaryD1Ev, 
                       __ZN7morphun10dictionary36DictionaryMetaData_MMappedDictionaryD2Ev, 
                       __ZN7morphun10dictionary39DictionaryMetaData_WiktionaryDictionary31createGrammemeTypeIfNonExistantERKNSt3__112basic_stringIDsNS2_11char_traitsIDsEENS2_9allocatorIDsEEEE, 
                       __ZN7morphun10dictionary39DictionaryMetaData_WiktionaryDictionaryC1ERKNS_4util7ULocaleE, 
                       __ZN7morphun10dictionary39DictionaryMetaData_WiktionaryDictionaryC2ERKNS_4util7ULocaleE, 
                       __ZN7morphun10dictionary8metadata15StringContainer24serializeStringContainerERNSt3__113basic_ostreamIcNS3_11char_traitsIcEEEE, 
                       __ZN7morphun10dictionary8metadata15StringContainer4loadEPNS_4util16MemoryMappedFileERPKDsRi, 
                       __ZN7morphun10dictionary8metadata15StringContainerC1EPKDsib, 
                       __ZN7morphun10dictionary8metadata15StringContainerC2EPKDsib, 
                       __ZN7morphun10dictionary8metadata15StringContainerD1Ev, __ZN7morphun10dictionary8metadata15StringContainerD2Ev, 
                       __ZN7morphun10dictionary8metadata16CharsetConverterC1ERKNSt3__112basic_stringIcNS3_11char_traitsIcEENS3_9allocatorIcEEEE, 
                       __ZN7morphun10dictionary8metadata16CharsetConverterC2ERKNSt3__112basic_stringIcNS3_11char_traitsIcEENS3_9allocatorIcEEEE, 
                       __ZN7morphun10dictionary8metadata16CharsetConverterD1Ev, __ZN7morphun10dictionary8metadata16CharsetConverterD2Ev, 
                       __ZN7morphun10dictionary8metadata16PropertyValueMap5writeERNSt3__113basic_ostreamIcNS3_11char_traitsIcEEEE, 
                       __ZN7morphun10dictionary8metadata16PropertyValueMap6createEPNS_4util16MemoryMappedFileE, 
                       __ZN7morphun10dictionary8metadata16PropertyValueMapC1EPNS1_10MarisaTrieIiEES5_NSt3__16vectorIPNS1_15BinarySearchMapIiNS7_IPKDsNS6_9allocatorISA_EEEENS6_4lessIvEEEENSB_ISH_EEEE, 
                       __ZN7morphun10dictionary8metadata16PropertyValueMapC2EPNS1_10MarisaTrieIiEES5_NSt3__16vectorIPNS1_15BinarySearchMapIiNS7_IPKDsNS6_9allocatorISA_EEEENS6_4lessIvEEEENSB_ISH_EEEE, 
                       __ZN7morphun10dictionary8metadata16PropertyValueMapD1Ev, __ZN7morphun10dictionary8metadata16PropertyValueMapD2Ev, 
                       __ZN7morphun10dictionary9Inflector12containsSomeERKNSt3__13setINS2_12basic_stringIDsNS2_11char_traitsIDsEENS2_9allocatorIDsEEEENS2_4lessIS9_EENS7_IS9_EEEERKNS2_6vectorIS9_SC_EE, 
                       __ZN7morphun10dictionary9Inflector16DICTIONARY_CACHEEv, __ZN7morphun10dictionary9Inflector17flattenAttributesERKNSt3__16vectorINS2_4pairINS2_12basic_stringIDsNS2_11char_traitsIDsEENS2_9allocatorIDsEEEESA_EENS8_ISB_EEEERNS2_3mapISA_SA_NS2_4lessISA_EENS8_INS4_IKSA_SA_EEEEEE, 
                       __ZN7morphun10dictionary9Inflector20createDictionaryDataERKNS_4util7ULocaleE, 
                       __ZN7morphun10dictionary9Inflector21getInflectionPatternsERKNS_4util7ULocaleERKP7_xmlDoc, 
                       __ZN7morphun10dictionary9InflectorC1ERKNS_4util7ULocaleE, 
                       __ZN7morphun10dictionary9InflectorC2ERKNS_4util7ULocaleE, 
                       __ZN7morphun11Token_DelimC1EiiRKNSt3__112basic_stringIDsNS1_11char_traitsIDsEENS1_9allocatorIDsEEEES9_, 
                       __ZN7morphun11Token_DelimC2EiiRKNSt3__112basic_stringIDsNS1_11char_traitsIDsEENS1_9allocatorIDsEEEES9_, 
                       __ZN7morphun11Token_Group12getSubTokensEv, __ZN7morphun11Token_GroupC1EiiRKNSt3__112basic_stringIDsNS1_11char_traitsIDsEENS1_9allocatorIDsEEEES9_PNS_5ChunkE, 
                       __ZN7morphun11Token_GroupC2EiiRKNSt3__112basic_stringIDsNS1_11char_traitsIDsEENS1_9allocatorIDsEEEES9_PNS_5ChunkE, 
                       __ZN7morphun11Token_GroupD0Ev, __ZN7morphun11Token_GroupD1Ev, 
                       __ZN7morphun11Token_GroupD2Ev, __ZN7morphun13TokenIteratoradEv, 
                       __ZN7morphun13TokenIteratordeEv, __ZN7morphun13TokenIteratoreqERKS0_, 
                       __ZN7morphun13TokenIteratormmEi, __ZN7morphun13TokenIteratormmEv, 
                       __ZN7morphun13TokenIteratorneERKS0_, __ZN7morphun13TokenIteratorppEi, 
                       __ZN7morphun13TokenIteratorppEv, __ZN7morphun13TokenIteratorptEv, 
                       __ZN7morphun14Token_ExplicitC1EiiRKNSt3__112basic_stringIDsNS1_11char_traitsIDsEENS1_9allocatorIDsEEEES9_PNS_5ChunkES9_, 
                       __ZN7morphun14Token_ExplicitC2EiiRKNSt3__112basic_stringIDsNS1_11char_traitsIDsEENS1_9allocatorIDsEEEES9_PNS_5ChunkES9_, 
                       __ZN7morphun15transliteration14TransliteratorC2ERKNS_4util7ULocaleES5_, 
                       __ZN7morphun15transliteration21TransliteratorFactory20createTransliteratorERKNS_4util7ULocaleES5_, 
                       __ZN7morphun15transliteration21TransliteratorFactory26createTransliteratorObjectERKNS_4util7ULocaleES5_, 
                       __ZN7morphun15transliteration21TransliteratorFactoryC1Ev, 
                       __ZN7morphun15transliteration21TransliteratorFactoryC2Ev, 
                       __ZN7morphun15transliteration23ICUScriptTransliteratorC1ERKNS_4util7ULocaleES5_, 
                       __ZN7morphun15transliteration23ICUScriptTransliteratorC2ERKNS_4util7ULocaleES5_, 
                       __ZN7morphun15transliteration28ToRomanizationTransliteratorC1ERKNS_4util7ULocaleES5_, 
                       __ZN7morphun15transliteration28ToRomanizationTransliteratorC2ERKNS_4util7ULocaleES5_, 
                       __ZN7morphun16TokenizerFactory10readConfigERKNSt3__112basic_stringIDsNS1_11char_traitsIDsEENS1_9allocatorIDsEEEEPNS1_3mapIS7_PKDsNS1_4lessIS7_EENS5_INS1_4pairIS8_SC_EEEEEE, 
                       __ZN7morphun16TokenizerFactory15TOKENIZER_CACHEEv, __ZN7morphun16TokenizerFactory15createTokenizerERKNS_4util7ULocaleE, 
                       __ZN7morphun16TokenizerFactory21createTokenizerObjectERKNS_4util7ULocaleERKNSt3__13mapINS5_12basic_stringIDsNS5_11char_traitsIDsEENS5_9allocatorIDsEEEEPKDsNS5_4lessISC_EENSA_INS5_4pairIKSC_SE_EEEEEE, 
                       __ZN7morphun20Token_OverSizedTokenC1EiiRKNSt3__112basic_stringIDsNS1_11char_traitsIDsEENS1_9allocatorIDsEEEE, 
                       __ZN7morphun20Token_OverSizedTokenC1EiiRKNSt3__112basic_stringIDsNS1_11char_traitsIDsEENS1_9allocatorIDsEEEES9_, 
                       __ZN7morphun20Token_OverSizedTokenC2EiiRKNSt3__112basic_stringIDsNS1_11char_traitsIDsEENS1_9allocatorIDsEEEE, 
                       __ZN7morphun20Token_OverSizedTokenC2EiiRKNSt3__112basic_stringIDsNS1_11char_traitsIDsEENS1_9allocatorIDsEEEES9_, 
                       __ZN7morphun4lang25LocalizedStringOperations10HAN_SCRIPTEv, 
                       __ZN7morphun4lang25LocalizedStringOperations12LATIN_SCRIPTEv, 
                       __ZN7morphun4lang25LocalizedStringOperations13HEBREW_SCRIPTEv, 
                       __ZN7morphun4lang25LocalizedStringOperations15CYRILLIC_SCRIPTEv, 
                       __ZN7morphun4lang25LocalizedStringOperations15getSetSingletonEPN7icu4cxx10UnicodeSetE, 
                       __ZN7morphun4lang25LocalizedStringOperations16filteredUnaccentERKN7icu4cxx10UnicodeSetES5_RKNSt3__112basic_stringIDsNS6_11char_traitsIDsEENS6_9allocatorIDsEEEE, 
                       __ZN7morphun4lang25LocalizedStringOperations21getExemplarCharactersERKNS_4util7ULocaleE, 
                       __ZN7morphun4lang25LocalizedStringOperations21stripNonNativeAccentsERKNS_4util7ULocaleERKNSt3__112basic_stringIDsNS6_11char_traitsIDsEENS6_9allocatorIDsEEEE, 
                       __ZN7morphun4lang25LocalizedStringOperations23NFD_VOLATILE_CHARACTERSEv, 
                       __ZN7morphun4lang25LocalizedStringOperations24equalIgnoreCaseAndAccentERKNSt3__112basic_stringIDsNS2_11char_traitsIDsEENS2_9allocatorIDsEEEESA_RKNS_4util7ULocaleE, 
                       __ZN7morphun4lang25LocalizedStringOperations27COMBINING_DIACRITICAL_MARKSEv, 
                       __ZN7morphun4lang25LocalizedStringOperations39getNfdVolatileForeignExemplarCharactersERKNS_4util7ULocaleE, 
                       __ZN7morphun4lang25LocalizedStringOperationsC1Ev, __ZN7morphun4lang25LocalizedStringOperationsC2Ev, 
                       __ZN7morphun4lang8features23LanguageGrammarFeatures10addGrammarERKP7_xmlDoc, 
                       __ZN7morphun4lang8features23LanguageGrammarFeatures29createLanguageGrammarFeaturesEP8_xmlNodeRKS2_, 
                       __ZN7morphun4lang8features23LanguageGrammarFeatures32createLanguageGrammarFeaturesMapEv, 
                       __ZN7morphun4lang8features23LanguageGrammarFeaturesC1ERKNS_4util7ULocaleERKNSt3__13setINS1_39LanguageGrammarFeatures_GrammarCategoryENS7_4lessIS9_EENS7_9allocatorIS9_EEEERKNS8_INS1_39LanguageGrammarFeatures_GrammarFeaturesENSA_ISH_EENSC_ISH_EEEE, 
                       __ZN7morphun4lang8features23LanguageGrammarFeaturesC2ERKNS_4util7ULocaleERKNSt3__13setINS1_39LanguageGrammarFeatures_GrammarCategoryENS7_4lessIS9_EENS7_9allocatorIS9_EEEERKNS8_INS1_39LanguageGrammarFeatures_GrammarFeaturesENSA_ISH_EENSC_ISH_EEEE, 
                       __ZN7morphun4lang8features31LanguageGrammarFeatures_Feature4ctorERKNSt3__112basic_stringIDsNS3_11char_traitsIDsEENS3_9allocatorIDsEEEERKNS3_3mapIS9_S9_NS3_4lessIS9_EENS7_INS3_4pairISA_S9_EEEEEE, 
                       __ZN7morphun4lang8features31LanguageGrammarFeatures_FeatureC1ERKNSt3__112basic_stringIDsNS3_11char_traitsIDsEENS3_9allocatorIDsEEEERKNS3_3mapIS9_S9_NS3_4lessIS9_EENS7_INS3_4pairISA_S9_EEEEEE, 
                       __ZN7morphun4lang8features31LanguageGrammarFeatures_FeatureC1Ev, 
                       __ZN7morphun4lang8features31LanguageGrammarFeatures_FeatureC2ERKNSt3__112basic_stringIDsNS3_11char_traitsIDsEENS3_9allocatorIDsEEEERKNS3_3mapIS9_S9_NS3_4lessIS9_EENS7_INS3_4pairISA_S9_EEEEEE, 
                       __ZN7morphun4lang8features31LanguageGrammarFeatures_FeatureC2Ev, 
                       __ZN7morphun4lang8features39LanguageGrammarFeatures_GrammarCategory4ctorERKNSt3__112basic_stringIDsNS3_11char_traitsIDsEENS3_9allocatorIDsEEEERKNS3_3setIS9_NS3_4lessIS9_EENS7_IS9_EEEE, 
                       __ZN7morphun4lang8features39LanguageGrammarFeatures_GrammarCategory4initEv, 
                       __ZN7morphun4lang8features39LanguageGrammarFeatures_GrammarCategoryC1ERKNSt3__112basic_stringIDsNS3_11char_traitsIDsEENS3_9allocatorIDsEEEERKNS3_3setIS9_NS3_4lessIS9_EENS7_IS9_EEEE, 
                       __ZN7morphun4lang8features39LanguageGrammarFeatures_GrammarCategoryC1Ev, 
                       __ZN7morphun4lang8features39LanguageGrammarFeatures_GrammarCategoryC2ERKNSt3__112basic_stringIDsNS3_11char_traitsIDsEENS3_9allocatorIDsEEEERKNS3_3setIS9_NS3_4lessIS9_EENS7_IS9_EEEE, 
                       __ZN7morphun4lang8features39LanguageGrammarFeatures_GrammarCategoryC2Ev, 
                       __ZN7morphun4lang8features39LanguageGrammarFeatures_GrammarFeatures4ctorERKNSt3__112basic_stringIDsNS3_11char_traitsIDsEENS3_9allocatorIDsEEEERKNS3_6vectorINS1_31LanguageGrammarFeatures_FeatureENS7_ISD_EEEE, 
                       __ZN7morphun4lang8features39LanguageGrammarFeatures_GrammarFeaturesC1ERKNSt3__112basic_stringIDsNS3_11char_traitsIDsEENS3_9allocatorIDsEEEERKNS3_6vectorINS1_31LanguageGrammarFeatures_FeatureENS7_ISD_EEEE, 
                       __ZN7morphun4lang8features39LanguageGrammarFeatures_GrammarFeaturesC1Ev, 
                       __ZN7morphun4lang8features39LanguageGrammarFeatures_GrammarFeaturesC2ERKNSt3__112basic_stringIDsNS3_11char_traitsIDsEENS3_9allocatorIDsEEEERKNS3_6vectorINS1_31LanguageGrammarFeatures_FeatureENS7_ISD_EEEE, 
                       __ZN7morphun4lang8features39LanguageGrammarFeatures_GrammarFeaturesC2Ev, 
                       __ZN7morphun4util11LocaleUtils10INDONESIANEv, __ZN7morphun4util11LocaleUtils10PORTUGUESEEv, 
                       __ZN7morphun4util11LocaleUtils10US_SPANISHEv, __ZN7morphun4util11LocaleUtils10VIETNAMESEEv, 
                       __ZN7morphun4util11LocaleUtils10isParentOfERKNS0_7ULocaleES4_, 
                       __ZN7morphun4util11LocaleUtils11INDIA_HINDIEv, __ZN7morphun4util11LocaleUtils11NETHERLANDSEv, 
                       __ZN7morphun4util11LocaleUtils12SAUDI_ARABIAEv, __ZN7morphun4util11LocaleUtils12SHANGHAINESEEv, 
                       __ZN7morphun4util11LocaleUtils13BELGIUM_DUTCHEv, __ZN7morphun4util11LocaleUtils13GREAT_BRITAINEv, 
                       __ZN7morphun4util11LocaleUtils13IRISH_ENGLISHEv, __ZN7morphun4util11LocaleUtils13SPAIN_CATALANEv, 
                       __ZN7morphun4util11LocaleUtils13SPAIN_SPANISHEv, __ZN7morphun4util11LocaleUtils14BELGIUM_FRENCHEv, 
                       __ZN7morphun4util11LocaleUtils14CZECH_REPUBLICEv, __ZN7morphun4util11LocaleUtils14INDIAN_ENGLISHEv, 
                       __ZN7morphun4util11LocaleUtils14MEXICO_SPANISHEv, __ZN7morphun4util11LocaleUtils15CANADIAN_FRENCHEv, 
                       __ZN7morphun4util11LocaleUtils15CHILEAN_SPANISHEv, __ZN7morphun4util11LocaleUtils15CHINA_CANTONESEEv, 
                       __ZN7morphun4util11LocaleUtils15getFallbackPairERKNS0_7ULocaleE, 
                       __ZN7morphun4util11LocaleUtils16CANADIAN_ENGLISHEv, __ZN7morphun4util11LocaleUtils16FILIPINO_ENGLISHEv, 
                       __ZN7morphun4util11LocaleUtils16HONGKONG_CHINESEEv, __ZN7morphun4util11LocaleUtils17AUSTRALIA_ENGLISHEv, 
                       __ZN7morphun4util11LocaleUtils18CHINA_SHANGHAINESEEv, __ZN7morphun4util11LocaleUtils18FALLBACK_LANGUAGESEv, 
                       __ZN7morphun4util11LocaleUtils18HONGKONG_CANTONESEEv, __ZN7morphun4util11LocaleUtils18SIMPLIFIED_CHINESEEv, 
                       __ZN7morphun4util11LocaleUtils18SWITZERLAND_FRENCHEv, __ZN7morphun4util11LocaleUtils18SWITZERLAND_GERMANEv, 
                       __ZN7morphun4util11LocaleUtils19NEW_ZEALAND_ENGLISHEv, __ZN7morphun4util11LocaleUtils19SINGAPOREAN_ENGLISHEv, 
                       __ZN7morphun4util11LocaleUtils19SWITZERLAND_ITALIANEv, __ZN7morphun4util11LocaleUtils19TRADITIONAL_CHINESEEv, 
                       __ZN7morphun4util11LocaleUtils19findFallbackLocalesERKNS0_7ULocaleE, 
                       __ZN7morphun4util11LocaleUtils19toLocaleWithCountryERKNSt3__112basic_stringIcNS2_11char_traitsIcEENS2_9allocatorIcEEEE, 
                       __ZN7morphun4util11LocaleUtils20UNITED_ARAB_EMIRATESEv, __ZN7morphun4util11LocaleUtils21SOUTH_AFRICAN_ENGLISHEv, 
                       __ZN7morphun4util11LocaleUtils21getSupportedLocaleMapEv, __ZN7morphun4util11LocaleUtils22BASE_SUPPORTED_LOCALESEv, 
                       __ZN7morphun4util11LocaleUtils22getSupportedLocaleListEv, 
                       __ZN7morphun4util11LocaleUtils24CHINA_SIMPLIFIED_CHINESEEv, 
                       __ZN7morphun4util11LocaleUtils24PRIMARY_COUNTRY_LANGUAGEEv, 
                       __ZN7morphun4util11LocaleUtils26TAIWAN_TRADITIONAL_CHINESEEv, 
                       __ZN7morphun4util11LocaleUtils26getPrimaryLocaleForCountryERKNSt3__112basic_stringIcNS2_11char_traitsIcEENS2_9allocatorIcEEEE, 
                       __ZN7morphun4util11LocaleUtils27areLanguageScriptCompatibleERKNS0_7ULocaleES4_, 
                       __ZN7morphun4util11LocaleUtils27getLanguageToLocaleFallbackERKNS0_7ULocaleE, 
                       __ZN7morphun4util11LocaleUtils27getSupportedLocaleMapToBaseERKNSt3__13mapINS2_12basic_stringIDsNS2_11char_traitsIDsEENS2_9allocatorIDsEEEEPKDsNS2_4lessIS9_EENS7_INS2_4pairIKS9_SB_EEEEEERSF_, 
                       __ZN7morphun4util11LocaleUtils2USEv, __ZN7morphun4util11LocaleUtils4ROOTEv, 
                       __ZN7morphun4util11LocaleUtils4THAIEv, __ZN7morphun4util11LocaleUtils5CHINAEv, 
                       __ZN7morphun4util11LocaleUtils5CZECHEv, __ZN7morphun4util11LocaleUtils5DUTCHEv, 
                       __ZN7morphun4util11LocaleUtils5GREEKEv, __ZN7morphun4util11LocaleUtils5HINDIEv, 
                       __ZN7morphun4util11LocaleUtils5ITALYEv, __ZN7morphun4util11LocaleUtils5JAPANEv, 
                       __ZN7morphun4util11LocaleUtils5KOREAEv, __ZN7morphun4util11LocaleUtils5MALAYEv, 
                       __ZN7morphun4util11LocaleUtils6ARABICEv, __ZN7morphun4util11LocaleUtils6BRAZILEv, 
                       __ZN7morphun4util11LocaleUtils6DANISHEv, __ZN7morphun4util11LocaleUtils6FRANCEEv, 
                       __ZN7morphun4util11LocaleUtils6FRENCHEv, __ZN7morphun4util11LocaleUtils6GERMANEv, 
                       __ZN7morphun4util11LocaleUtils6GREECEEv, __ZN7morphun4util11LocaleUtils6HEBREWEv, 
                       __ZN7morphun4util11LocaleUtils6ISRAELEv, __ZN7morphun4util11LocaleUtils6KOREANEv, 
                       __ZN7morphun4util11LocaleUtils6NORWAYEv, __ZN7morphun4util11LocaleUtils6POLANDEv, 
                       __ZN7morphun4util11LocaleUtils6POLISHEv, __ZN7morphun4util11LocaleUtils6RUSSIAEv, 
                       __ZN7morphun4util11LocaleUtils6SLOVAKEv, __ZN7morphun4util11LocaleUtils6SWEDENEv, 
                       __ZN7morphun4util11LocaleUtils6TAIWANEv, __ZN7morphun4util11LocaleUtils6TURKEYEv, 
                       __ZN7morphun4util11LocaleUtils7AUSTRIAEv, __ZN7morphun4util11LocaleUtils7CATALANEv, 
                       __ZN7morphun4util11LocaleUtils7CHINESEEv, __ZN7morphun4util11LocaleUtils7CROATIAEv, 
                       __ZN7morphun4util11LocaleUtils7DENMARKEv, __ZN7morphun4util11LocaleUtils7ENGLISHEv, 
                       __ZN7morphun4util11LocaleUtils7FINLANDEv, __ZN7morphun4util11LocaleUtils7FINNISHEv, 
                       __ZN7morphun4util11LocaleUtils7GERMANYEv, __ZN7morphun4util11LocaleUtils7HUNGARYEv, 
                       __ZN7morphun4util11LocaleUtils7ITALIANEv, __ZN7morphun4util11LocaleUtils7ROMANIAEv, 
                       __ZN7morphun4util11LocaleUtils7RUSSIANEv, __ZN7morphun4util11LocaleUtils7SPANISHEv, 
                       __ZN7morphun4util11LocaleUtils7SWEDISHEv, __ZN7morphun4util11LocaleUtils7TURKISHEv, 
                       __ZN7morphun4util11LocaleUtils7UKRAINEEv, __ZN7morphun4util11LocaleUtils7VIETNAMEv, 
                       __ZN7morphun4util11LocaleUtils8CROATIANEv, __ZN7morphun4util11LocaleUtils8JAPANESEEv, 
                       __ZN7morphun4util11LocaleUtils8MALAYSIAEv, __ZN7morphun4util11LocaleUtils8PORTUGALEv, 
                       __ZN7morphun4util11LocaleUtils8ROMANIANEv, __ZN7morphun4util11LocaleUtils8SLOVAKIAEv, 
                       __ZN7morphun4util11LocaleUtils8THAILANDEv, __ZN7morphun4util11LocaleUtils8toLocaleERKNSt3__112basic_stringIDsNS2_11char_traitsIDsEENS2_9allocatorIDsEEEE, 
                       __ZN7morphun4util11LocaleUtils8toLocaleERKNSt3__112basic_stringIcNS2_11char_traitsIcEENS2_9allocatorIcEEEESA_, 
                       __ZN7morphun4util11LocaleUtils8toStringERKNS0_7ULocaleE, __ZN7morphun4util11LocaleUtils8toStringERKNS0_7ULocaleERKNSt3__112basic_stringIDsNS5_11char_traitsIDsEENS5_9allocatorIDsEEEE, 
                       __ZN7morphun4util11LocaleUtils9CANTONESEEv, __ZN7morphun4util11LocaleUtils9HUNGARIANEv, 
                       __ZN7morphun4util11LocaleUtils9INDONESIAEv, __ZN7morphun4util11LocaleUtils9NORWEGIANEv, 
                       __ZN7morphun4util11LocaleUtils9UKRAINIANEv, __ZN7morphun4util11LocaleUtils9toLocalesERKNSt3__112basic_stringIDsNS2_11char_traitsIDsEENS2_9allocatorIDsEEEE, 
                       __ZN7morphun4util11LocaleUtilsC1Ev, __ZN7morphun4util11LocaleUtilsC2Ev, 
                       __ZN7morphun4util11StringUtils10hasAccentsERKNSt3__112basic_stringIDsNS2_11char_traitsIDsEENS2_9allocatorIDsEEEE, 
                       __ZN7morphun4util11StringUtils10startsWithERKNSt3__112basic_stringIDsNS2_11char_traitsIDsEENS2_9allocatorIDsEEEESA_, 
                       __ZN7morphun4util11StringUtils11codePointAtERKNSt3__112basic_stringIDsNS2_11char_traitsIDsEENS2_9allocatorIDsEEEEi, 
                       __ZN7morphun4util11StringUtils12to_u16stringERKNSt3__112basic_stringIcNS2_11char_traitsIcEENS2_9allocatorIcEEEE, 
                       __ZN7morphun4util11StringUtils12to_u16stringEd, __ZN7morphun4util11StringUtils12to_u16stringEi, 
                       __ZN7morphun4util11StringUtils12to_u16stringEx, __ZN7morphun4util11StringUtils14isAllLowerCaseERKNSt3__112basic_stringIDsNS2_11char_traitsIDsEENS2_9allocatorIDsEEEE, 
                       __ZN7morphun4util11StringUtils14isAllUpperCaseERKNSt3__112basic_stringIDsNS2_11char_traitsIDsEENS2_9allocatorIDsEEEE, 
                       __ZN7morphun4util11StringUtils15appendCodePointEPNSt3__112basic_stringIDsNS2_11char_traitsIDsEENS2_9allocatorIDsEEEEDi, 
                       __ZN7morphun4util11StringUtils15capitalizeFirstERKNSt3__112basic_stringIDsNS2_11char_traitsIDsEENS2_9allocatorIDsEEEE, 
                       __ZN7morphun4util11StringUtils15capitalizeFirstERKNSt3__112basic_stringIDsNS2_11char_traitsIDsEENS2_9allocatorIDsEEEERKNS0_7ULocaleE, 
                       __ZN7morphun4util11StringUtils18containsUnicodeSetERKN7icu4cxx10UnicodeSetERKNSt3__112basic_stringIDsNS6_11char_traitsIDsEENS6_9allocatorIDsEEEE, 
                       __ZN7morphun4util11StringUtils19removeSetFromStringEPNSt3__112basic_stringIDsNS2_11char_traitsIDsEENS2_9allocatorIDsEEEERKN7icu4cxx10UnicodeSetERKS8_, 
                       __ZN7morphun4util11StringUtils20replaceSetFromStringEPNSt3__112basic_stringIDsNS2_11char_traitsIDsEENS2_9allocatorIDsEEEERKN7icu4cxx10UnicodeSetERKS8_SF_, 
                       __ZN7morphun4util11StringUtils24equalIgnoreCaseAndAccentERKNSt3__112basic_stringIDsNS2_11char_traitsIDsEENS2_9allocatorIDsEEEESA_RKNS0_7ULocaleE, 
                       __ZN7morphun4util11StringUtils27containsIgnoreCaseAndAccentERKNSt3__112basic_stringIDsNS2_11char_traitsIDsEENS2_9allocatorIDsEEEESA_RKNS0_7ULocaleE, 
                       __ZN7morphun4util11StringUtils4trimERKNSt3__112basic_stringIDsNS2_11char_traitsIDsEENS2_9allocatorIDsEEEE, 
                       __ZN7morphun4util11StringUtils5splitERKNSt3__112basic_stringIDsNS2_11char_traitsIDsEENS2_9allocatorIDsEEEESA_, 
                       __ZN7morphun4util11StringUtils6strdupEPKDs, __ZN7morphun4util11StringUtils7convertEPNSt3__112basic_stringIDsNS2_11char_traitsIDsEENS2_9allocatorIDsEEEERKNS3_IcNS4_IcEENS6_IcEEEE, 
                       __ZN7morphun4util11StringUtils7convertEPNSt3__112basic_stringIcNS2_11char_traitsIcEENS2_9allocatorIcEEEERKNS3_IDsNS4_IDsEENS6_IDsEEEE, 
                       __ZN7morphun4util11StringUtils7replaceEPNSt3__112basic_stringIDsNS2_11char_traitsIDsEENS2_9allocatorIDsEEEERKS8_SB_SB_, 
                       __ZN7morphun4util11StringUtils7reverseEPNSt3__112basic_stringIDsNS2_11char_traitsIDsEENS2_9allocatorIDsEEEE, 
                       __ZN7morphun4util11StringUtils8endsWithERKNSt3__112basic_stringIDsNS2_11char_traitsIDsEENS2_9allocatorIDsEEEESA_, 
                       __ZN7morphun4util11StringUtils8unaccentEPNSt3__112basic_stringIDsNS2_11char_traitsIDsEENS2_9allocatorIDsEEEERKS8_, 
                       __ZN7morphun4util11StringUtils9lowercaseEPNSt3__112basic_stringIDsNS2_11char_traitsIDsEENS2_9allocatorIDsEEEERKS8_RKNS0_7ULocaleE, 
                       __ZN7morphun4util11StringUtils9to_stringERKNSt3__112basic_stringIDsNS2_11char_traitsIDsEENS2_9allocatorIDsEEEE, 
                       __ZN7morphun4util11StringUtils9uppercaseEPNSt3__112basic_stringIDsNS2_11char_traitsIDsEENS2_9allocatorIDsEEEERKS8_RKNS0_7ULocaleE, 
                       __ZN7morphun4util11StringUtilsC1Ev, __ZN7morphun4util11StringUtilsC2Ev, 
                       __ZN7morphun4util15AssertionChecks10checkFalseEb, __ZN7morphun4util15AssertionChecks9checkTrueEb, 
                       __ZN7morphun4util15AssertionChecksC1Ev, __ZN7morphun4util15AssertionChecksC2Ev, 
                       __ZN7morphun4util15ResourceLocator19DIRECTORY_SEPARATORE, 
                       __ZN7morphun4util15ResourceLocator22MORPHUN_ROOT_DIRECTORYEv, 
                       __ZN7morphun4util15ResourceLocator23getMorphunRootDirectoryEv, 
                       __ZN7morphun4util15ResourceLocator27getDirectoryFromEnvironmentEPKc, 
                       __ZN7morphun4util15ResourceLocator31APPLE_FRAMEWORKS_ROOT_DIRECTORYEv, 
                       __ZN7morphun4util15ResourceLocator31getAppleFrameworksRootDirectoryEv, 
                       __ZN7morphun4util15ResourceLocator4findERKNSt3__112basic_stringIDsNS2_11char_traitsIDsEENS2_9allocatorIDsEEEE, 
                       __ZN7morphun4util15UnicodeSetUtils12containsSomeERKN7icu4cxx10UnicodeSetERKNSt3__112basic_stringIDsNS6_11char_traitsIDsEENS6_9allocatorIDsEEEE, 
                       __ZN7morphun4util15UnicodeSetUtils3addEPN7icu4cxx10UnicodeSetEDi, 
                       __ZN7morphun4util15UnicodeSetUtils6freezeEPN7icu4cxx10UnicodeSetE, 
                       __ZN7morphun4util15UnicodeSetUtils9closeOverEPN7icu4cxx10UnicodeSetEi, 
                       __ZN7morphun4util15UnicodeSetUtils9removeAllEPN7icu4cxx10UnicodeSetERKS3_, 
                       __ZN7morphun4util15UnicodeSetUtilsC1Ev, __ZN7morphun4util15UnicodeSetUtilsC2Ev, 
                       __ZN7morphun4util16MemoryMappedFile5closeEv, __ZN7morphun4util16MemoryMappedFileC1EPKcm, 
                       __ZN7morphun4util16MemoryMappedFileC1ERKNSt3__112basic_stringIDsNS2_11char_traitsIDsEENS2_9allocatorIDsEEEE, 
                       __ZN7morphun4util16MemoryMappedFileC2EPKcm, __ZN7morphun4util16MemoryMappedFileC2ERKNSt3__112basic_stringIDsNS2_11char_traitsIDsEENS2_9allocatorIDsEEEE, 
                       __ZN7morphun4util16MemoryMappedFileD1Ev, __ZN7morphun4util16MemoryMappedFileD2Ev, 
                       __ZN7morphun4util18AutoFileDescriptorC1EPKci, __ZN7morphun4util18AutoFileDescriptorC2EPKci, 
                       __ZN7morphun4util18AutoFileDescriptorD1Ev, __ZN7morphun4util18AutoFileDescriptorD2Ev, 
                       __ZN7morphun4util23DelimitedStringIterator7getNextEv, __ZN7morphun4util23DelimitedStringIterator7hasNextEv, 
                       __ZN7morphun4util23DelimitedStringIteratorC1EPKDsS3_, __ZN7morphun4util23DelimitedStringIteratorC1EPKDsiS3_i, 
                       __ZN7morphun4util23DelimitedStringIteratorC1ERKNSt3__112basic_stringIDsNS2_11char_traitsIDsEENS2_9allocatorIDsEEEESA_, 
                       __ZN7morphun4util23DelimitedStringIteratorC1ERKS1_, __ZN7morphun4util23DelimitedStringIteratorC2EPKDsS3_, 
                       __ZN7morphun4util23DelimitedStringIteratorC2EPKDsiS3_i, __ZN7morphun4util23DelimitedStringIteratorC2ERKNSt3__112basic_stringIDsNS2_11char_traitsIDsEENS2_9allocatorIDsEEEESA_, 
                       __ZN7morphun4util23DelimitedStringIteratorC2ERKS1_, __ZN7morphun4util23DelimitedStringIteratordeEv, 
                       __ZN7morphun4util23DelimitedStringIteratorppEv, __ZN7morphun4util6Logger11getLogLevelEv, 
                       __ZN7morphun4util6Logger11setLogLevelENS1_8LogLevelE, __ZN7morphun4util6Logger12logToConsoleEb, 
                       __ZN7morphun4util6Logger13isInfoEnabledEv, __ZN7morphun4util6Logger13isWarnEnabledEv, 
                       __ZN7morphun4util6Logger14isDebugEnabledEv, __ZN7morphun4util6Logger14isErrorEnabledEv, 
                       __ZN7morphun4util6Logger14isTraceEnabledEv, __ZN7morphun4util6Logger4infoERKNSt3__112basic_stringIDsNS2_11char_traitsIDsEENS2_9allocatorIDsEEEE, 
                       __ZN7morphun4util6Logger4warnERKNSt3__112basic_stringIDsNS2_11char_traitsIDsEENS2_9allocatorIDsEEEE, 
                       __ZN7morphun4util6Logger5debugERKNSt3__112basic_stringIDsNS2_11char_traitsIDsEENS2_9allocatorIDsEEEE, 
                       __ZN7morphun4util6Logger5errorERKNSt3__112basic_stringIDsNS2_11char_traitsIDsEENS2_9allocatorIDsEEEE, 
                       __ZN7morphun4util6Logger5traceERKNSt3__112basic_stringIDsNS2_11char_traitsIDsEENS2_9allocatorIDsEEEE, 
                       __ZN7morphun4util6LoggerC1Ev, __ZN7morphun4util6LoggerC2Ev, 
                       __ZN7morphun4util7ULocaleC1ERKNSt3__112basic_stringIcNS2_11char_traitsIcEENS2_9allocatorIcEEEESA_SA_SA_, 
                       __ZN7morphun4util7ULocaleC1ERKS1_, __ZN7morphun4util7ULocaleC2ERKNSt3__112basic_stringIcNS2_11char_traitsIcEENS2_9allocatorIcEEEESA_SA_SA_, 
                       __ZN7morphun4util7ULocaleC2ERKS1_, __ZN7morphun4util7ULocaleD0Ev, 
                       __ZN7morphun4util7ULocaleD1Ev, __ZN7morphun4util7ULocaleD2Ev, 
                       __ZN7morphun4util7ULocaleaSERKS1_, __ZN7morphun5Chunk11getSubChunkEii, 
                       __ZN7morphun5Chunk12getWordCountEPS0_, __ZN7morphun5Chunk12getWordCountEii, 
                       __ZN7morphun5Chunk12getWordCountEv, __ZN7morphun5Chunk14getCleanStringEv, 
                       __ZN7morphun5Chunk19getCleanValueStringEb, __ZN7morphun5Chunk19getCleanValueStringEv, 
                       __ZN7morphun5Chunk7findEndEPNS_5TokenEPNS_17Chunk_ChunkPolicyE, 
                       __ZN7morphun5Chunk9checkSizeEPNS_5TokenES2_, __ZN7morphun5Chunk9findStartEPNS_5TokenEPNS_17Chunk_ChunkPolicyE, 
                       __ZN7morphun5ChunkC1EPNS_5TokenEPNS_17Chunk_ChunkPolicyE, 
                       __ZN7morphun5ChunkC1EPNS_5TokenES2_b, __ZN7morphun5ChunkC2EPNS_5TokenEPNS_17Chunk_ChunkPolicyE, 
                       __ZN7morphun5ChunkC2EPNS_5TokenES2_b, __ZN7morphun5ChunkD0Ev, 
                       __ZN7morphun5ChunkD1Ev, __ZN7morphun5ChunkD2Ev, __ZN7morphun5Token11setPreviousEPS0_, 
                       __ZN7morphun5Token7setNextEPS0_, __ZN7morphun5TokenC2EiiRKNSt3__112basic_stringIDsNS1_11char_traitsIDsEENS1_9allocatorIDsEEEES9_b, 
                       __ZN7morphun5TokenD0Ev, __ZN7morphun5TokenD1Ev, __ZN7morphun5TokenD2Ev, 
                       __ZN7morphun8analysis10ArAnalyzer13addStopFilterEPNS0_11TokenStreamE, 
                       __ZN7morphun8analysis10ArAnalyzer26addWordNormalizationFilterEPNS0_11TokenStreamE, 
                       __ZN7morphun8analysis10ArAnalyzer31addCharacterNormalizationFilterEPNS0_11TokenStreamE, 
                       __ZN7morphun8analysis10ArAnalyzerC1ERKNS_4util7ULocaleERKNSt3__16bitsetILm10EEE, 
                       __ZN7morphun8analysis10ArAnalyzerC2ERKNS_4util7ULocaleERKNSt3__16bitsetILm10EEE, 
                       __ZN7morphun8analysis10DeAnalyzer13addStopFilterEPNS0_11TokenStreamE, 
                       __ZN7morphun8analysis10DeAnalyzer16DEFAULT_STOP_SETEv, __ZN7morphun8analysis10DeAnalyzer26addWordNormalizationFilterEPNS0_11TokenStreamE, 
                       __ZN7morphun8analysis10DeAnalyzer31addCharacterNormalizationFilterEPNS0_11TokenStreamE, 
                       __ZN7morphun8analysis10DeAnalyzerC1ERKNS_4util7ULocaleERKNSt3__16bitsetILm10EEE, 
                       __ZN7morphun8analysis10DeAnalyzerC2ERKNS_4util7ULocaleERKNSt3__16bitsetILm10EEE, 
                       __ZN7morphun8analysis10EnAnalyzer13addStopFilterEPNS0_11TokenStreamE, 
                       __ZN7morphun8analysis10EnAnalyzer16DEFAULT_STOP_SETEv, __ZN7morphun8analysis10EnAnalyzer26addWordNormalizationFilterEPNS0_11TokenStreamE, 
                       __ZN7morphun8analysis10EnAnalyzer31addCharacterNormalizationFilterEPNS0_11TokenStreamE, 
                       __ZN7morphun8analysis10EnAnalyzerC1ERKNS_4util7ULocaleERKNSt3__16bitsetILm10EEE, 
                       __ZN7morphun8analysis10EnAnalyzerC2ERKNS_4util7ULocaleERKNSt3__16bitsetILm10EEE, 
                       __ZN7morphun8analysis10EsAnalyzer13addStopFilterEPNS0_11TokenStreamE, 
                       __ZN7morphun8analysis10EsAnalyzer16DEFAULT_STOP_SETEv, __ZN7morphun8analysis10EsAnalyzer17isStripAllAccentsEv, 
                       __ZN7morphun8analysis10EsAnalyzer26addWordNormalizationFilterEPNS0_11TokenStreamE, 
                       __ZN7morphun8analysis10EsAnalyzer31addCharacterNormalizationFilterEPNS0_11TokenStreamE, 
                       __ZN7morphun8analysis10EsAnalyzerC1ERKNS_4util7ULocaleERKNSt3__16bitsetILm10EEE, 
                       __ZN7morphun8analysis10EsAnalyzerC2ERKNS_4util7ULocaleERKNSt3__16bitsetILm10EEE, 
                       __ZN7morphun8analysis10FrAnalyzer13addStopFilterEPNS0_11TokenStreamE, 
                       __ZN7morphun8analysis10FrAnalyzer15loadStopwordSetEv, __ZN7morphun8analysis10FrAnalyzer16DEFAULT_STOP_SETEv, 
                       __ZN7morphun8analysis10FrAnalyzer26addWordNormalizationFilterEPNS0_11TokenStreamE, 
                       __ZN7morphun8analysis10FrAnalyzer31addCharacterNormalizationFilterEPNS0_11TokenStreamE, 
                       __ZN7morphun8analysis10FrAnalyzerC1ERKNS_4util7ULocaleERKNSt3__16bitsetILm10EEE, 
                       __ZN7morphun8analysis10FrAnalyzerC2ERKNS_4util7ULocaleERKNSt3__16bitsetILm10EEE, 
                       __ZN7morphun8analysis10HeAnalyzer13addStopFilterEPNS0_11TokenStreamE, 
                       __ZN7morphun8analysis10HeAnalyzer26addWordNormalizationFilterEPNS0_11TokenStreamE, 
                       __ZN7morphun8analysis10HeAnalyzerC1ERKNS_4util7ULocaleERKNSt3__16bitsetILm10EEE, 
                       __ZN7morphun8analysis10HeAnalyzerC2ERKNS_4util7ULocaleERKNSt3__16bitsetILm10EEE, 
                       __ZN7morphun8analysis10ItAnalyzer13addStopFilterEPNS0_11TokenStreamE, 
                       __ZN7morphun8analysis10ItAnalyzer16DEFAULT_STOP_SETEv, __ZN7morphun8analysis10ItAnalyzer26addWordNormalizationFilterEPNS0_11TokenStreamE, 
                       __ZN7morphun8analysis10ItAnalyzer31addCharacterNormalizationFilterEPNS0_11TokenStreamE, 
                       __ZN7morphun8analysis10ItAnalyzerC1ERKNS_4util7ULocaleERKNSt3__16bitsetILm10EEE, 
                       __ZN7morphun8analysis10ItAnalyzerC2ERKNS_4util7ULocaleERKNSt3__16bitsetILm10EEE, 
                       __ZN7morphun8analysis10JaAnalyzer26addWordNormalizationFilterEPNS0_11TokenStreamE, 
                       __ZN7morphun8analysis10JaAnalyzerC1ERKNS_4util7ULocaleERKNSt3__16bitsetILm10EEE, 
                       __ZN7morphun8analysis10JaAnalyzerC2ERKNS_4util7ULocaleERKNSt3__16bitsetILm10EEE, 
                       __ZN7morphun8analysis10KoAnalyzerC1ERKNS_4util7ULocaleERKNSt3__16bitsetILm10EEE, 
                       __ZN7morphun8analysis10KoAnalyzerC2ERKNS_4util7ULocaleERKNSt3__16bitsetILm10EEE, 
                       __ZN7morphun8analysis10NlAnalyzer13addStopFilterEPNS0_11TokenStreamE, 
                       __ZN7morphun8analysis10NlAnalyzer16DEFAULT_STOP_SETEv, __ZN7morphun8analysis10NlAnalyzer26addWordNormalizationFilterEPNS0_11TokenStreamE, 
                       __ZN7morphun8analysis10NlAnalyzer31addCharacterNormalizationFilterEPNS0_11TokenStreamE, 
                       __ZN7morphun8analysis10NlAnalyzerC1ERKNS_4util7ULocaleERKNSt3__16bitsetILm10EEE, 
                       __ZN7morphun8analysis10NlAnalyzerC2ERKNS_4util7ULocaleERKNSt3__16bitsetILm10EEE, 
                       __ZN7morphun8analysis10TrAnalyzer26addWordNormalizationFilterEPNS0_11TokenStreamE, 
                       __ZN7morphun8analysis10TrAnalyzerC1ERKNS_4util7ULocaleERKNSt3__16bitsetILm10EEE, 
                       __ZN7morphun8analysis10TrAnalyzerC2ERKNS_4util7ULocaleERKNSt3__16bitsetILm10EEE, 
                       __ZN7morphun8analysis10ZhAnalyzer13addStopFilterEPNS0_11TokenStreamE, 
                       __ZN7morphun8analysis10ZhAnalyzer21POSSESSIVE_CHARACTERSEv, 
                       __ZN7morphun8analysis10ZhAnalyzer26addWordNormalizationFilterEPNS0_11TokenStreamE, 
                       __ZN7morphun8analysis10ZhAnalyzerC1ERKNS_4util7ULocaleERKNSt3__16bitsetILm10EEE, 
                       __ZN7morphun8analysis10ZhAnalyzerC2ERKNS_4util7ULocaleERKNSt3__16bitsetILm10EEE, 
                       __ZN7morphun8analysis11TokenFilter3endEv, __ZN7morphun8analysis11TokenFilter5closeEv, 
                       __ZN7morphun8analysis11TokenFilter5resetEv, __ZN7morphun8analysis11TokenFilterC2EPNS0_11TokenStreamE, 
                       __ZN7morphun8analysis11TokenFilterD0Ev, __ZN7morphun8analysis11TokenFilterD1Ev, 
                       __ZN7morphun8analysis11TokenFilterD2Ev, __ZN7morphun8analysis11TokenStream31DEFAULT_TOKEN_ATTRIBUTE_FACTORYEv, 
                       __ZN7morphun8analysis11TokenStream3endEv, __ZN7morphun8analysis11TokenStream5closeEv, 
                       __ZN7morphun8analysis11TokenStream5resetEv, __ZN7morphun8analysis11TokenStreamC2EPNS0_4util15AttributeSourceE, 
                       __ZN7morphun8analysis11TokenStreamC2EPNS0_4util16AttributeFactoryE, 
                       __ZN7morphun8analysis11TokenStreamC2Ev, __ZN7morphun8analysis11TokenStreamD0Ev, 
                       __ZN7morphun8analysis11TokenStreamD1Ev, __ZN7morphun8analysis11TokenStreamD2Ev, 
                       __ZN7morphun8analysis12PtBrAnalyzer13addStopFilterEPNS0_11TokenStreamE, 
                       __ZN7morphun8analysis12PtBrAnalyzer16DEFAULT_STOP_SETEv, __ZN7morphun8analysis12PtBrAnalyzer26addWordNormalizationFilterEPNS0_11TokenStreamE, 
                       __ZN7morphun8analysis12PtBrAnalyzer31addCharacterNormalizationFilterEPNS0_11TokenStreamE, 
                       __ZN7morphun8analysis12PtBrAnalyzerC1ERKNS_4util7ULocaleERKNSt3__16bitsetILm10EEE, 
                       __ZN7morphun8analysis12PtBrAnalyzerC2ERKNS_4util7ULocaleERKNSt3__16bitsetILm10EEE, 
                       __ZN7morphun8analysis15AnalyzerFactoryC2Ev, __ZN7morphun8analysis15AnalyzerWrapper10initReaderEP5UText, 
                       __ZN7morphun8analysis15AnalyzerWrapper10wrapReaderEP5UText, 
                       __ZN7morphun8analysis15AnalyzerWrapper12getOffsetGapEv, __ZN7morphun8analysis15AnalyzerWrapper14wrapComponentsEPNS0_30Analyzer_TokenStreamComponentsE, 
                       __ZN7morphun8analysis15AnalyzerWrapper16createComponentsEv, 
                       __ZN7morphun8analysis15AnalyzerWrapper23getPositionIncrementGapEv, 
                       __ZN7morphun8analysis15AnalyzerWrapperC2Ev, __ZN7morphun8analysis15AnalyzerWrapperD0Ev, 
                       __ZN7morphun8analysis15AnalyzerWrapperD1Ev, __ZN7morphun8analysis15AnalyzerWrapperD2Ev, 
                       __ZN7morphun8analysis15MinimalAnalyzerC1ERKNS_4util7ULocaleE, 
                       __ZN7morphun8analysis15MinimalAnalyzerC1ERKNS_4util7ULocaleERKNSt3__16bitsetILm10EEE, 
                       __ZN7morphun8analysis15MinimalAnalyzerC2ERKNS_4util7ULocaleE, 
                       __ZN7morphun8analysis15MinimalAnalyzerC2ERKNS_4util7ULocaleERKNSt3__16bitsetILm10EEE, 
                       __ZN7morphun8analysis15tokenattributes12LemmaMapping17getLemmaGrammemesEv, 
                       __ZN7morphun8analysis15tokenattributes12LemmaMapping23getSurfaceFormGrammemesEv, 
                       __ZN7morphun8analysis15tokenattributes12LemmaMapping8getLemmaEv, 
                       __ZN7morphun8analysis15tokenattributes12LemmaMapping8hashCodeEv, 
                       __ZN7morphun8analysis15tokenattributes12LemmaMappingC1ExxRKNSt3__112basic_stringIDsNS3_11char_traitsIDsEENS3_9allocatorIDsEEEE, 
                       __ZN7morphun8analysis15tokenattributes12LemmaMappingC2ExxRKNSt3__112basic_stringIDsNS3_11char_traitsIDsEENS3_9allocatorIDsEEEE, 
                       __ZN7morphun8analysis15tokenattributes13TypeAttribute12DEFAULT_TYPEE, 
                       __ZN7morphun8analysis15tokenattributes17CharTermAttributeC2ERKS2_, 
                       __ZN7morphun8analysis15tokenattributes17CharTermAttributeC2Ev, 
                       __ZN7morphun8analysis15tokenattributes17TypeAttributeImpl4typeEv, 
                       __ZN7morphun8analysis15tokenattributes17TypeAttributeImpl5clearEv, 
                       __ZN7morphun8analysis15tokenattributes17TypeAttributeImpl6createEv, 
                       __ZN7morphun8analysis15tokenattributes17TypeAttributeImpl7setTypeERKNSt3__112basic_stringIDsNS3_11char_traitsIDsEENS3_9allocatorIDsEEEE, 
                       __ZN7morphun8analysis15tokenattributes17TypeAttributeImplC1ERKNSt3__112basic_stringIDsNS3_11char_traitsIDsEENS3_9allocatorIDsEEEE, 
                       __ZN7morphun8analysis15tokenattributes17TypeAttributeImplC1ERKS2_, 
                       __ZN7morphun8analysis15tokenattributes17TypeAttributeImplC1Ev, 
                       __ZN7morphun8analysis15tokenattributes17TypeAttributeImplC2ERKNSt3__112basic_stringIDsNS3_11char_traitsIDsEENS3_9allocatorIDsEEEE, 
                       __ZN7morphun8analysis15tokenattributes17TypeAttributeImplC2ERKS2_, 
                       __ZN7morphun8analysis15tokenattributes17TypeAttributeImplC2Ev, 
                       __ZN7morphun8analysis15tokenattributes18FlagsAttributeImpl5clearEv, 
                       __ZN7morphun8analysis15tokenattributes18FlagsAttributeImpl6createEv, 
                       __ZN7morphun8analysis15tokenattributes18FlagsAttributeImpl8getFlagsEv, 
                       __ZN7morphun8analysis15tokenattributes18FlagsAttributeImpl8setFlagsEx, 
                       __ZN7morphun8analysis15tokenattributes18FlagsAttributeImplC1Ev, 
                       __ZN7morphun8analysis15tokenattributes18FlagsAttributeImplC2Ev, 
                       __ZN7morphun8analysis15tokenattributes19OffsetAttributeImpl11startOffsetEv, 
                       __ZN7morphun8analysis15tokenattributes19OffsetAttributeImpl5clearEv, 
                       __ZN7morphun8analysis15tokenattributes19OffsetAttributeImpl6createEv, 
                       __ZN7morphun8analysis15tokenattributes19OffsetAttributeImpl9endOffsetEv, 
                       __ZN7morphun8analysis15tokenattributes19OffsetAttributeImpl9setOffsetEii, 
                       __ZN7morphun8analysis15tokenattributes19OffsetAttributeImplC1Ev, 
                       __ZN7morphun8analysis15tokenattributes19OffsetAttributeImplC2Ev, 
                       __ZN7morphun8analysis15tokenattributes20KeywordAttributeImpl10setKeywordEb, 
                       __ZN7morphun8analysis15tokenattributes20KeywordAttributeImpl5clearEv, 
                       __ZN7morphun8analysis15tokenattributes20KeywordAttributeImpl6createEv, 
                       __ZN7morphun8analysis15tokenattributes20KeywordAttributeImpl9isKeywordEv, 
                       __ZN7morphun8analysis15tokenattributes20KeywordAttributeImplC1ERKS2_, 
                       __ZN7morphun8analysis15tokenattributes20KeywordAttributeImplC1Ev, 
                       __ZN7morphun8analysis15tokenattributes20KeywordAttributeImplC2ERKS2_, 
                       __ZN7morphun8analysis15tokenattributes20KeywordAttributeImplC2Ev, 
                       __ZN7morphun8analysis15tokenattributes21CharTermAttributeImpl5clearEv, 
                       __ZN7morphun8analysis15tokenattributes21CharTermAttributeImpl6createEv, 
                       __ZN7morphun8analysis15tokenattributes21CharTermAttributeImplC1ERKS2_, 
                       __ZN7morphun8analysis15tokenattributes21CharTermAttributeImplC1Ev, 
                       __ZN7morphun8analysis15tokenattributes21CharTermAttributeImplC2ERKS2_, 
                       __ZN7morphun8analysis15tokenattributes21CharTermAttributeImplC2Ev, 
                       __ZN7morphun8analysis15tokenattributes21GrammemeAttributeImpl12getGrammemesEv, 
                       __ZN7morphun8analysis15tokenattributes21GrammemeAttributeImpl12setGrammemesEx, 
                       __ZN7morphun8analysis15tokenattributes21GrammemeAttributeImpl5clearEv, 
                       __ZN7morphun8analysis15tokenattributes21GrammemeAttributeImpl6createEv, 
                       __ZN7morphun8analysis15tokenattributes21GrammemeAttributeImplC1Ev, 
                       __ZN7morphun8analysis15tokenattributes21GrammemeAttributeImplC2Ev, 
                       __ZN7morphun8analysis15tokenattributes24PackedTokenAttributeImpl11startOffsetEv, 
                       __ZN7morphun8analysis15tokenattributes24PackedTokenAttributeImpl17getPositionLengthEv, 
                       __ZN7morphun8analysis15tokenattributes24PackedTokenAttributeImpl17setPositionLengthEi, 
                       __ZN7morphun8analysis15tokenattributes24PackedTokenAttributeImpl20getPositionIncrementEv, 
                       __ZN7morphun8analysis15tokenattributes24PackedTokenAttributeImpl20setPositionIncrementEi, 
                       __ZN7morphun8analysis15tokenattributes24PackedTokenAttributeImpl4typeEv, 
                       __ZN7morphun8analysis15tokenattributes24PackedTokenAttributeImpl5clearEv, 
                       __ZN7morphun8analysis15tokenattributes24PackedTokenAttributeImpl6createEv, 
                       __ZN7morphun8analysis15tokenattributes24PackedTokenAttributeImpl7setTypeERKNSt3__112basic_stringIDsNS3_11char_traitsIDsEENS3_9allocatorIDsEEEE, 
                       __ZN7morphun8analysis15tokenattributes24PackedTokenAttributeImpl9endOffsetEv, 
                       __ZN7morphun8analysis15tokenattributes24PackedTokenAttributeImpl9setOffsetEii, 
                       __ZN7morphun8analysis15tokenattributes24PackedTokenAttributeImplC1ERKS2_, 
                       __ZN7morphun8analysis15tokenattributes24PackedTokenAttributeImplC1Ev, 
                       __ZN7morphun8analysis15tokenattributes24PackedTokenAttributeImplC2ERKS2_, 
                       __ZN7morphun8analysis15tokenattributes24PackedTokenAttributeImplC2Ev, 
                       __ZN7morphun8analysis15tokenattributes25LemmaMappingAttributeImpl16getLemmaMappingsEv, 
                       __ZN7morphun8analysis15tokenattributes25LemmaMappingAttributeImpl16setLemmaMappingsERKNSt3__16vectorINS1_12LemmaMappingENS3_9allocatorIS5_EEEE, 
                       __ZN7morphun8analysis15tokenattributes25LemmaMappingAttributeImpl5clearEv, 
                       __ZN7morphun8analysis15tokenattributes25LemmaMappingAttributeImpl6createEv, 
                       __ZN7morphun8analysis15tokenattributes25LemmaMappingAttributeImplC1ERKS2_, 
                       __ZN7morphun8analysis15tokenattributes25LemmaMappingAttributeImplC1Ev, 
                       __ZN7morphun8analysis15tokenattributes25LemmaMappingAttributeImplC2ERKS2_, 
                       __ZN7morphun8analysis15tokenattributes25LemmaMappingAttributeImplC2Ev, 
                       __ZN7morphun8analysis15tokenattributes27PositionLengthAttributeImpl17getPositionLengthEv, 
                       __ZN7morphun8analysis15tokenattributes27PositionLengthAttributeImpl17setPositionLengthEi, 
                       __ZN7morphun8analysis15tokenattributes27PositionLengthAttributeImpl5clearEv, 
                       __ZN7morphun8analysis15tokenattributes27PositionLengthAttributeImpl6createEv, 
                       __ZN7morphun8analysis15tokenattributes27PositionLengthAttributeImplC1Ev, 
                       __ZN7morphun8analysis15tokenattributes27PositionLengthAttributeImplC2Ev, 
                       __ZN7morphun8analysis15tokenattributes30PositionIncrementAttributeImpl20getPositionIncrementEv, 
                       __ZN7morphun8analysis15tokenattributes30PositionIncrementAttributeImpl20setPositionIncrementEi, 
                       __ZN7morphun8analysis15tokenattributes30PositionIncrementAttributeImpl5clearEv, 
                       __ZN7morphun8analysis15tokenattributes30PositionIncrementAttributeImpl6createEv, 
                       __ZN7morphun8analysis15tokenattributes30PositionIncrementAttributeImplC1Ev, 
                       __ZN7morphun8analysis15tokenattributes30PositionIncrementAttributeImplC2Ev, 
                       __ZN7morphun8analysis20ConfigurableAnalyzer13addStopFilterEPNS0_11TokenStreamE, 
                       __ZN7morphun8analysis20ConfigurableAnalyzer16createComponentsEv, 
                       __ZN7morphun8analysis20ConfigurableAnalyzer16createTokenChainEPNS0_8AnalyzerEPNS_5ChunkERKNSt3__112basic_stringIDsNS6_11char_traitsIDsEENS6_9allocatorIDsEEEE, 
                       __ZN7morphun8analysis20ConfigurableAnalyzer16createTokenChainEPNS_5ChunkE, 
                       __ZN7morphun8analysis20ConfigurableAnalyzer16createTokenChainERKNSt3__112basic_stringIDsNS2_11char_traitsIDsEENS2_9allocatorIDsEEEE, 
                       __ZN7morphun8analysis20ConfigurableAnalyzer17isStripAllAccentsEv, 
                       __ZN7morphun8analysis20ConfigurableAnalyzer26addWordNormalizationFilterEPNS0_11TokenStreamE, 
                       __ZN7morphun8analysis20ConfigurableAnalyzer28addNumberNormalizationFilterEPNS0_11TokenStreamE, 
                       __ZN7morphun8analysis20ConfigurableAnalyzer31addCharacterNormalizationFilterEPNS0_11TokenStreamE, 
                       __ZN7morphun8analysis20ConfigurableAnalyzer37addToLatinScriptTransliterationFilterEPNS0_11TokenStreamE, 
                       __ZN7morphun8analysis20ConfigurableAnalyzerC1ERKNS_4util7ULocaleEPKNSt3__13setINS6_12basic_stringIDsNS6_11char_traitsIDsEENS6_9allocatorIDsEEEENS6_4lessISD_EENSB_ISD_EEEERKNS6_6bitsetILm10EEE, 
                       __ZN7morphun8analysis20ConfigurableAnalyzerC2ERKNS_4util7ULocaleEPKNSt3__13setINS6_12basic_stringIDsNS6_11char_traitsIDsEENS6_9allocatorIDsEEEENS6_4lessISD_EENSB_ISD_EEEERKNS6_6bitsetILm10EEE, 
                       __ZN7morphun8analysis22Analyzer_ReuseStrategyC2Ev, __ZN7morphun8analysis22DefaultAnalyzerFactory18getDefaultInstanceEv, 
                       __ZN7morphun8analysis22DefaultAnalyzerFactory22DEFAULT_FEATURE_CONFIGEv, 
                       __ZN7morphun8analysis22DefaultAnalyzerFactoryC1ENSt3__16bitsetILm10EEE, 
                       __ZN7morphun8analysis22DefaultAnalyzerFactoryC1Ev, __ZN7morphun8analysis22DefaultAnalyzerFactoryC2ENSt3__16bitsetILm10EEE, 
                       __ZN7morphun8analysis22DefaultAnalyzerFactoryC2Ev, __ZN7morphun8analysis22DefaultAnalyzerFactoryD0Ev, 
                       __ZN7morphun8analysis22DefaultAnalyzerFactoryD1Ev, __ZN7morphun8analysis22DefaultAnalyzerFactoryD2Ev, 
                       __ZN7morphun8analysis28Analyzer_GlobalReuseStrategyC1Ev, __ZN7morphun8analysis28Analyzer_GlobalReuseStrategyC2Ev, 
                       __ZN7morphun8analysis2ar16ArabicNormalizer9normalizeEPNSt3__112basic_stringIDsNS3_11char_traitsIDsEENS3_9allocatorIDsEEEE, 
                       __ZN7morphun8analysis2ar16ArabicNormalizerC1Ev, __ZN7morphun8analysis2ar16ArabicNormalizerC2Ev, 
                       __ZN7morphun8analysis2ar25ArabicNormalizationFilter14incrementTokenEv, 
                       __ZN7morphun8analysis2ar25ArabicNormalizationFilterC1EPNS0_11TokenStreamE, 
                       __ZN7morphun8analysis2ar25ArabicNormalizationFilterC2EPNS0_11TokenStreamE, 
                       __ZN7morphun8analysis2fr20FrenchMinimalStemmer4stemEPNSt3__112basic_stringIDsNS3_11char_traitsIDsEENS3_9allocatorIDsEEEE, 
                       __ZN7morphun8analysis2fr20FrenchMinimalStemmerC1Ev, __ZN7morphun8analysis2fr20FrenchMinimalStemmerC2Ev, 
                       __ZN7morphun8analysis2it19ItalianLightStemmer4stemEPNSt3__112basic_stringIDsNS3_11char_traitsIDsEENS3_9allocatorIDsEEEE, 
                       __ZN7morphun8analysis2it19ItalianLightStemmerC1Ev, __ZN7morphun8analysis2it19ItalianLightStemmerC2Ev, 
                       __ZN7morphun8analysis2pt19BrazilianLemmatizer11getInstanceEv, 
                       __ZN7morphun8analysis2pt19BrazilianLemmatizerC1Ev, __ZN7morphun8analysis2pt19BrazilianLemmatizerC2Ev, 
                       __ZN7morphun8analysis2pt19BrazilianStemFilter14incrementTokenEv, 
                       __ZN7morphun8analysis2pt19BrazilianStemFilter4stemERKNSt3__112basic_stringIDsNS3_11char_traitsIDsEENS3_9allocatorIDsEEEE, 
                       __ZN7morphun8analysis2pt19BrazilianStemFilter5resetEv, __ZN7morphun8analysis2pt19BrazilianStemFilter9applyRuleERKNSt3__112basic_stringIDsNS3_11char_traitsIDsEENS3_9allocatorIDsEEEESB_RKNS1_34BrazilianStemFilter_InflectionRuleE, 
                       __ZN7morphun8analysis2pt19BrazilianStemFilterC1EPNS0_11TokenStreamE, 
                       __ZN7morphun8analysis2pt19BrazilianStemFilterC2EPNS0_11TokenStreamE, 
                       __ZN7morphun8analysis2pt34BrazilianStemFilter_InflectionRuleC1ERKNSt3__112basic_stringIDsNS3_11char_traitsIDsEENS3_9allocatorIDsEEEE, 
                       __ZN7morphun8analysis2pt34BrazilianStemFilter_InflectionRuleC1EiRKNSt3__112basic_stringIDsNS3_11char_traitsIDsEENS3_9allocatorIDsEEEE, 
                       __ZN7morphun8analysis2pt34BrazilianStemFilter_InflectionRuleC2ERKNSt3__112basic_stringIDsNS3_11char_traitsIDsEENS3_9allocatorIDsEEEE, 
                       __ZN7morphun8analysis2pt34BrazilianStemFilter_InflectionRuleC2EiRKNSt3__112basic_stringIDsNS3_11char_traitsIDsEENS3_9allocatorIDsEEEE, 
                       __ZN7morphun8analysis30Analyzer_TokenStreamComponents12getTokenizerEv, 
                       __ZN7morphun8analysis30Analyzer_TokenStreamComponents14getTokenStreamEv, 
                       __ZN7morphun8analysis30Analyzer_TokenStreamComponents9setReaderEP5UText, 
                       __ZN7morphun8analysis30Analyzer_TokenStreamComponentsC1EPNS0_9TokenizerE, 
                       __ZN7morphun8analysis30Analyzer_TokenStreamComponentsC1EPNS0_9TokenizerEPNS0_11TokenStreamE, 
                       __ZN7morphun8analysis30Analyzer_TokenStreamComponentsC2EPNS0_9TokenizerE, 
                       __ZN7morphun8analysis30Analyzer_TokenStreamComponentsC2EPNS0_9TokenizerEPNS0_11TokenStreamE, 
                       __ZN7morphun8analysis30Analyzer_TokenStreamComponentsD1Ev, 
                       __ZN7morphun8analysis30Analyzer_TokenStreamComponentsD2Ev, 
                       __ZN7morphun8analysis4core10StopFilter6acceptEv, __ZN7morphun8analysis4core10StopFilterC1EPNS0_11TokenStreamEPKNSt3__13setINS5_12basic_stringIDsNS5_11char_traitsIDsEENS5_9allocatorIDsEEEENS5_4lessISC_EENSA_ISC_EEEE, 
                       __ZN7morphun8analysis4core10StopFilterC2EPNS0_11TokenStreamEPKNSt3__13setINS5_12basic_stringIDsNS5_11char_traitsIDsEENS5_9allocatorIDsEEEENS5_4lessISC_EENSA_ISC_EEEE, 
                       __ZN7morphun8analysis4util13AttributeImplC2Ev, __ZN7morphun8analysis4util14WordlistLoader10getWordSetERKNSt3__112basic_stringIDsNS3_11char_traitsIDsEENS3_9allocatorIDsEEEESB_, 
                       __ZN7morphun8analysis4util14WordlistLoader10getWordSetERKNSt3__112basic_stringIDsNS3_11char_traitsIDsEENS3_9allocatorIDsEEEESB_PNS3_3setIS9_NS3_4lessIS9_EENS7_IS9_EEEE, 
                       __ZN7morphun8analysis4util14WordlistLoader18getSnowballWordSetERKNSt3__112basic_stringIDsNS3_11char_traitsIDsEENS3_9allocatorIDsEEEE, 
                       __ZN7morphun8analysis4util14WordlistLoader18getSnowballWordSetERKNSt3__112basic_stringIDsNS3_11char_traitsIDsEENS3_9allocatorIDsEEEEPNS3_3setIS9_NS3_4lessIS9_EENS7_IS9_EEEE, 
                       __ZN7morphun8analysis4util14WordlistLoaderC1Ev, __ZN7morphun8analysis4util14WordlistLoaderC2Ev, 
                       __ZN7morphun8analysis4util15AttributeSource12captureStateEv, 
                       __ZN7morphun8analysis4util15AttributeSource12restoreStateEPNS1_21AttributeSource_StateE, 
                       __ZN7morphun8analysis4util15AttributeSource13hasAttributesEv, 
                       __ZN7morphun8analysis4util15AttributeSource15clearAttributesEv, 
                       __ZN7morphun8analysis4util15AttributeSource15cloneAttributesEv, 
                       __ZN7morphun8analysis4util15AttributeSource15getCurrentStateEv, 
                       __ZN7morphun8analysis4util15AttributeSource16addAttributeImplENSt3__110shared_ptrINS1_13AttributeImplEEE, 
                       __ZN7morphun8analysis4util15AttributeSource16addAttributeImplENSt3__110shared_ptrINS1_13AttributeImplEEERKSt9type_info, 
                       __ZN7morphun8analysis4util15AttributeSource19getAttributeFactoryEv, 
                       __ZN7morphun8analysis4util15AttributeSource19removeAllAttributesEv, 
                       __ZN7morphun8analysis4util15AttributeSource8hashCodeEv, __ZN7morphun8analysis4util15AttributeSourceC1EPKNS1_16AttributeFactoryE, 
                       __ZN7morphun8analysis4util15AttributeSourceC1EPS2_, __ZN7morphun8analysis4util15AttributeSourceC1Ev, 
                       __ZN7morphun8analysis4util15AttributeSourceC2EPKNS1_16AttributeFactoryE, 
                       __ZN7morphun8analysis4util15AttributeSourceC2EPS2_, __ZN7morphun8analysis4util15AttributeSourceC2Ev, 
                       __ZN7morphun8analysis4util16AttributeFactory23getStaticImplementationEPS2_RKNSt3__113unordered_mapINS4_10type_indexENS4_8functionIFPNS1_13AttributeImplEvEEENS4_4hashIS6_EENS4_8equal_toIS6_EENS4_9allocatorINS4_4pairIKS6_SB_EEEEEE, 
                       __ZN7morphun8analysis4util16AttributeFactory25DEFAULT_ATTRIBUTE_FACTORYEv, 
                       __ZN7morphun8analysis4util16AttributeFactoryC1Ev, __ZN7morphun8analysis4util16AttributeFactoryC2Ev, 
                       __ZN7morphun8analysis4util20FilteringTokenFilter14incrementTokenEv, 
                       __ZN7morphun8analysis4util20FilteringTokenFilter3endEv, __ZN7morphun8analysis4util20FilteringTokenFilter5resetEv, 
                       __ZN7morphun8analysis4util20FilteringTokenFilterC2EPNS0_11TokenStreamE, 
                       __ZN7morphun8analysis4util20StopwordAnalyzerBase14getStopwordSetEv, 
                       __ZN7morphun8analysis4util20StopwordAnalyzerBase15loadStopwordSetERKNSt3__112basic_stringIDsNS3_11char_traitsIDsEENS3_9allocatorIDsEEEESB_SB_, 
                       __ZN7morphun8analysis4util20StopwordAnalyzerBase23loadSnowballStopwordSetERKNSt3__112basic_stringIDsNS3_11char_traitsIDsEENS3_9allocatorIDsEEEE, 
                       __ZN7morphun8analysis4util20StopwordAnalyzerBaseC2EPKNSt3__13setINS3_12basic_stringIDsNS3_11char_traitsIDsEENS3_9allocatorIDsEEEENS3_4lessISA_EENS8_ISA_EEEE, 
                       __ZN7morphun8analysis4util20StopwordAnalyzerBaseC2Ev, __ZN7morphun8analysis4util20StopwordAnalyzerBaseD0Ev, 
                       __ZN7morphun8analysis4util20StopwordAnalyzerBaseD1Ev, __ZN7morphun8analysis4util20StopwordAnalyzerBaseD2Ev, 
                       __ZN7morphun8analysis4util21AttributeSource_StateC1Ev, __ZN7morphun8analysis4util21AttributeSource_StateC2Ev, 
                       __ZN7morphun8analysis4util30AttributeRegistrationReflector7reflectERKSt9type_infoRKNSt3__112basic_stringIDsNS6_11char_traitsIDsEENS6_9allocatorIDsEEEEPKNS_6ObjectE, 
                       __ZN7morphun8analysis4util30AttributeRegistrationReflector7reflectERKSt9type_infoRKNSt3__112basic_stringIDsNS6_11char_traitsIDsEENS6_9allocatorIDsEEEESE_, 
                       __ZN7morphun8analysis4util30AttributeRegistrationReflectorC1EPNS1_15AttributeSourceENSt3__110shared_ptrINS1_13AttributeImplEEE, 
                       __ZN7morphun8analysis4util30AttributeRegistrationReflectorC2EPNS1_15AttributeSourceENSt3__110shared_ptrINS1_13AttributeImplEEE, 
                       __ZN7morphun8analysis4util40AttributeFactory_DefaultAttributeFactoryC1Ev, 
                       __ZN7morphun8analysis4util40AttributeFactory_DefaultAttributeFactoryC2Ev, 
                       __ZN7morphun8analysis4util40AttributeSource_StringAttributeReflector7reflectERKSt9type_infoRKNSt3__112basic_stringIDsNS6_11char_traitsIDsEENS6_9allocatorIDsEEEEPKNS_6ObjectE, 
                       __ZN7morphun8analysis4util40AttributeSource_StringAttributeReflector7reflectERKSt9type_infoRKNSt3__112basic_stringIDsNS6_11char_traitsIDsEENS6_9allocatorIDsEEEESE_, 
                       __ZN7morphun8analysis4util40AttributeSource_StringAttributeReflectorC1EPNSt3__112basic_stringIDsNS3_11char_traitsIDsEENS3_9allocatorIDsEEEEb, 
                       __ZN7morphun8analysis4util40AttributeSource_StringAttributeReflectorC2EPNSt3__112basic_stringIDsNS3_11char_traitsIDsEENS3_9allocatorIDsEEEEb, 
                       __ZN7morphun8analysis4util53AttributeFactory_StaticImplementationAttributeFactoryC1EPKNS1_16AttributeFactoryERKNSt3__113unordered_mapINS6_10type_indexENS6_8functionIFPNS1_13AttributeImplEvEEENS6_4hashIS8_EENS6_8equal_toIS8_EENS6_9allocatorINS6_4pairIKS8_SD_EEEEEE, 
                       __ZN7morphun8analysis4util53AttributeFactory_StaticImplementationAttributeFactoryC2EPKNS1_16AttributeFactoryERKNSt3__113unordered_mapINS6_10type_indexENS6_8functionIFPNS1_13AttributeImplEvEEENS6_4hashIS8_EENS6_8equal_toIS8_EENS6_9allocatorINS6_4pairIKS8_SD_EEEEEE, 
                       __ZN7morphun8analysis4util9AttributeD0Ev, __ZN7morphun8analysis4util9AttributeD1Ev, 
                       __ZN7morphun8analysis4util9AttributeD2Ev, __ZN7morphun8analysis6filter12SuffixFilter12removeSuffixERKNSt3__112basic_stringIDsNS3_11char_traitsIDsEENS3_9allocatorIDsEEEE, 
                       __ZN7morphun8analysis6filter12SuffixFilter14incrementTokenEv, 
                       __ZN7morphun8analysis6filter12SuffixFilter5resetEv, __ZN7morphun8analysis6filter12SuffixFilterC1EPNS0_11TokenStreamERKNSt3__16vectorINS5_12basic_stringIDsNS5_11char_traitsIDsEENS5_9allocatorIDsEEEENSA_ISC_EEEE, 
                       __ZN7morphun8analysis6filter12SuffixFilterC2EPNS0_11TokenStreamERKNSt3__16vectorINS5_12basic_stringIDsNS5_11char_traitsIDsEENS5_9allocatorIDsEEEENSA_ISC_EEEE, 
                       __ZN7morphun8analysis6filter15DiacriticFilter14incrementTokenEv, 
                       __ZN7morphun8analysis6filter15DiacriticFilter5resetEv, __ZN7morphun8analysis6filter15DiacriticFilterC1EPNS0_11TokenStreamERKNS_4util7ULocaleE, 
                       __ZN7morphun8analysis6filter15DiacriticFilterC2EPNS0_11TokenStreamERKNS_4util7ULocaleE, 
                       __ZN7morphun8analysis6filter15LowerCaseFilter14incrementTokenEv, 
                       __ZN7morphun8analysis6filter15LowerCaseFilterC1EPNS0_11TokenStreamERKNS_4util7ULocaleE, 
                       __ZN7morphun8analysis6filter15LowerCaseFilterC2EPNS0_11TokenStreamERKNS_4util7ULocaleE, 
                       __ZN7morphun8analysis6filter17PunctuationFilter14incrementTokenEv, 
                       __ZN7morphun8analysis6filter17PunctuationFilter22INTRATOKEN_PUNCTUATIONEv, 
                       __ZN7morphun8analysis6filter17PunctuationFilter5resetEv, __ZN7morphun8analysis6filter17PunctuationFilterC1EPNS0_11TokenStreamEb, 
                       __ZN7morphun8analysis6filter17PunctuationFilterC2EPNS0_11TokenStreamEb, 
                       __ZN7morphun8analysis6filter17SplitOnCharFilter13queueLeftOverEii, 
                       __ZN7morphun8analysis6filter17SplitOnCharFilter14incrementTokenEv, 
                       __ZN7morphun8analysis6filter17SplitOnCharFilter15dequeueLeftOverEv, 
                       __ZN7morphun8analysis6filter17SplitOnCharFilter5resetEv, __ZN7morphun8analysis6filter17SplitOnCharFilterC1EPNS0_11TokenStreamEiDii, 
                       __ZN7morphun8analysis6filter17SplitOnCharFilterC2EPNS0_11TokenStreamEiDii, 
                       __ZN7morphun8analysis6filter18NumberToWordFilter14incrementTokenEv, 
                       __ZN7morphun8analysis6filter18NumberToWordFilterC1EPNS0_11TokenStreamERKNS_4util7ULocaleE, 
                       __ZN7morphun8analysis6filter18NumberToWordFilterC2EPNS0_11TokenStreamERKNS_4util7ULocaleE, 
                       __ZN7morphun8analysis6filter18NumberToWordFilterD0Ev, __ZN7morphun8analysis6filter18NumberToWordFilterD1Ev, 
                       __ZN7morphun8analysis6filter18NumberToWordFilterD2Ev, __ZN7morphun8analysis6filter20AmpersandToAndFilter14incrementTokenEv, 
                       __ZN7morphun8analysis6filter20AmpersandToAndFilterC1EPNS0_11TokenStreamERKNSt3__112basic_stringIDsNS5_11char_traitsIDsEENS5_9allocatorIDsEEEE, 
                       __ZN7morphun8analysis6filter20AmpersandToAndFilterC2EPNS0_11TokenStreamERKNSt3__112basic_stringIDsNS5_11char_traitsIDsEENS5_9allocatorIDsEEEE, 
                       __ZN7morphun8analysis6filter21RemoveCharacterFilter14incrementTokenEv, 
                       __ZN7morphun8analysis6filter21RemoveCharacterFilter5resetEv, 
                       __ZN7morphun8analysis6filter21RemoveCharacterFilterC1EPNS0_11TokenStreamERKN7icu4cxx10UnicodeSetE, 
                       __ZN7morphun8analysis6filter21RemoveCharacterFilterC2EPNS0_11TokenStreamERKN7icu4cxx10UnicodeSetE, 
                       __ZN7morphun8analysis6filter21TransliterationFilter14incrementTokenEv, 
                       __ZN7morphun8analysis6filter21TransliterationFilter5resetEv, 
                       __ZN7morphun8analysis6filter21TransliterationFilterC1EPNS0_11TokenStreamEPKNS_15transliteration14TransliteratorE, 
                       __ZN7morphun8analysis6filter21TransliterationFilterC2EPNS0_11TokenStreamEPKNS_15transliteration14TransliteratorE, 
                       __ZN7morphun8analysis6filter22RecombiningTokenFilter14incrementTokenEv, 
                       __ZN7morphun8analysis6filter22RecombiningTokenFilterC1EPNS0_11TokenStreamE, 
                       __ZN7morphun8analysis6filter22RecombiningTokenFilterC2EPNS0_11TokenStreamE, 
                       __ZN7morphun8analysis6filter26ContractionExpandingFilter14incrementTokenEv, 
                       __ZN7morphun8analysis6filter26ContractionExpandingFilter18createExpansionMapERKNSt3__112basic_stringIDsNS3_11char_traitsIDsEENS3_9allocatorIDsEEEEPNS3_3mapIS9_NS3_6vectorIS9_NS7_IS9_EEEENS3_4lessIS9_EENS7_INS3_4pairISA_SF_EEEEEE, 
                       __ZN7morphun8analysis6filter26ContractionExpandingFilter6expandERKNSt3__112basic_stringIDsNS3_11char_traitsIDsEENS3_9allocatorIDsEEEE, 
                       __ZN7morphun8analysis6filter26ContractionExpandingFilterC1EPNS0_11TokenStreamERKNS_4util7ULocaleE, 
                       __ZN7morphun8analysis6filter26ContractionExpandingFilterC2EPNS0_11TokenStreamERKNS_4util7ULocaleE, 
                       __ZN7morphun8analysis6filter27NormalizeFontVariantsFilter14MAPPABLE_CHARSEv, 
                       __ZN7morphun8analysis6filter27NormalizeFontVariantsFilter14incrementTokenEv, 
                       __ZN7morphun8analysis6filter27NormalizeFontVariantsFilter9transformERKNSt3__112basic_stringIDsNS3_11char_traitsIDsEENS3_9allocatorIDsEEEE, 
                       __ZN7morphun8analysis6filter27NormalizeFontVariantsFilterC1EPNS0_11TokenStreamE, 
                       __ZN7morphun8analysis6filter27NormalizeFontVariantsFilterC2EPNS0_11TokenStreamE, 
                       __ZN7morphun8analysis7stemmer12ArStemFilter14incrementTokenEv, 
                       __ZN7morphun8analysis7stemmer12ArStemFilter5resetEv, __ZN7morphun8analysis7stemmer12ArStemFilterC1EPNS0_11TokenStreamE, 
                       __ZN7morphun8analysis7stemmer12ArStemFilterC2EPNS0_11TokenStreamE, 
                       __ZN7morphun8analysis7stemmer12DeStemFilter14incrementTokenEv, 
                       __ZN7morphun8analysis7stemmer12DeStemFilter4stemEPNSt3__112basic_stringIDsNS3_11char_traitsIDsEENS3_9allocatorIDsEEEE, 
                       __ZN7morphun8analysis7stemmer12DeStemFilter5resetEv, __ZN7morphun8analysis7stemmer12DeStemFilterC1EPNS0_11TokenStreamE, 
                       __ZN7morphun8analysis7stemmer12DeStemFilterC2EPNS0_11TokenStreamE, 
                       __ZN7morphun8analysis7stemmer12EnStemFilter14incrementTokenEv, 
                       __ZN7morphun8analysis7stemmer12EnStemFilter4stemEPNSt3__112basic_stringIDsNS3_11char_traitsIDsEENS3_9allocatorIDsEEEE, 
                       __ZN7morphun8analysis7stemmer12EnStemFilter5resetEv, __ZN7morphun8analysis7stemmer12EnStemFilterC1EPNS0_11TokenStreamE, 
                       __ZN7morphun8analysis7stemmer12EnStemFilterC2EPNS0_11TokenStreamE, 
                       __ZN7morphun8analysis7stemmer12EsStemFilter14incrementTokenEv, 
                       __ZN7morphun8analysis7stemmer12EsStemFilter3isAEDs, __ZN7morphun8analysis7stemmer12EsStemFilter3isEEDs, 
                       __ZN7morphun8analysis7stemmer12EsStemFilter4stemEPNSt3__112basic_stringIDsNS3_11char_traitsIDsEENS3_9allocatorIDsEEEE, 
                       __ZN7morphun8analysis7stemmer12EsStemFilter5resetEv, __ZN7morphun8analysis7stemmer12EsStemFilterC1EPNS0_11TokenStreamE, 
                       __ZN7morphun8analysis7stemmer12EsStemFilterC2EPNS0_11TokenStreamE, 
                       __ZN7morphun8analysis7stemmer12FrStemFilter14incrementTokenEv, 
                       __ZN7morphun8analysis7stemmer12FrStemFilter5resetEv, __ZN7morphun8analysis7stemmer12FrStemFilterC1EPNS0_11TokenStreamE, 
                       __ZN7morphun8analysis7stemmer12FrStemFilterC2EPNS0_11TokenStreamE, 
                       __ZN7morphun8analysis7stemmer12ItStemFilter14incrementTokenEv, 
                       __ZN7morphun8analysis7stemmer12ItStemFilter5resetEv, __ZN7morphun8analysis7stemmer12ItStemFilterC1EPNS0_11TokenStreamE, 
                       __ZN7morphun8analysis7stemmer12ItStemFilterC2EPNS0_11TokenStreamE, 
                       __ZN7morphun8analysis7stemmer13HeLemmaFilter10guessLemmaEPNSt3__112basic_stringIDsNS3_11char_traitsIDsEENS3_9allocatorIDsEEEERKS9_, 
                       __ZN7morphun8analysis7stemmer13HeLemmaFilter13replaceSuffixEPNSt3__112basic_stringIDsNS3_11char_traitsIDsEENS3_9allocatorIDsEEEERKS9_SC_, 
                       __ZN7morphun8analysis7stemmer13HeLemmaFilterC1EPNS0_11TokenStreamERKNS_4util7ULocaleE, 
                       __ZN7morphun8analysis7stemmer13HeLemmaFilterC2EPNS0_11TokenStreamERKNS_4util7ULocaleE, 
                       __ZN7morphun8analysis7stemmer13NlLemmaFilter10BLNMRP_SETEv, 
                       __ZN7morphun8analysis7stemmer13NlLemmaFilter10guessLemmaEPNSt3__112basic_stringIDsNS3_11char_traitsIDsEENS3_9allocatorIDsEEEERKS9_, 
                       __ZN7morphun8analysis7stemmer13NlLemmaFilter14isVowelAtIndexERKNSt3__112basic_stringIDsNS3_11char_traitsIDsEENS3_9allocatorIDsEEEEi, 
                       __ZN7morphun8analysis7stemmer13NlLemmaFilter19shouldElongateVowelERKNSt3__112basic_stringIDsNS3_11char_traitsIDsEENS3_9allocatorIDsEEEEi, 
                       __ZN7morphun8analysis7stemmer13NlLemmaFilter5E_SETEv, __ZN7morphun8analysis7stemmer13NlLemmaFilter7LRN_SETEv, 
                       __ZN7morphun8analysis7stemmer13NlLemmaFilter9AEIOU_SETEv, 
                       __ZN7morphun8analysis7stemmer13NlLemmaFilterC1EPNS0_11TokenStreamERKNS_4util7ULocaleE, 
                       __ZN7morphun8analysis7stemmer13NlLemmaFilterC2EPNS0_11TokenStreamERKNS_4util7ULocaleE, 
                       __ZN7morphun8analysis7stemmer27DictionaryLookupLemmaFilter14incrementTokenEv, 
                       __ZN7morphun8analysis7stemmer27DictionaryLookupLemmaFilter23selectBestMatchingLemmaEPNSt3__112basic_stringIDsNS3_11char_traitsIDsEENS3_9allocatorIDsEEEERKNS3_6vectorIS9_NS7_IS9_EEEEx, 
                       __ZN7morphun8analysis7stemmer27DictionaryLookupLemmaFilter5resetEv, 
                       __ZN7morphun8analysis7stemmer27DictionaryLookupLemmaFilterC2EPNS0_11TokenStreamERKNS_4util7ULocaleEiRKNSt3__16vectorINS9_12basic_stringIDsNS9_11char_traitsIDsEENS9_9allocatorIDsEEEENSE_ISG_EEEE, 
                       __ZN7morphun8analysis8Analyzer10initReaderEP5UText, __ZN7morphun8analysis8Analyzer11tokenStreamEP5UText, 
                       __ZN7morphun8analysis8Analyzer12getOffsetGapEv, __ZN7morphun8analysis8Analyzer21GLOBAL_REUSE_STRATEGYEv, 
                       __ZN7morphun8analysis8Analyzer23getPositionIncrementGapEv, 
                       __ZN7morphun8analysis8AnalyzerC2Ev, __ZN7morphun8analysis8AnalyzerD0Ev, 
                       __ZN7morphun8analysis8AnalyzerD1Ev, __ZN7morphun8analysis8AnalyzerD2Ev, 
                       __ZN7morphun8analysis9Tokenizer13correctOffsetEi, __ZN7morphun8analysis9Tokenizer18setReaderTestPointEv, 
                       __ZN7morphun8analysis9Tokenizer4initEv, __ZN7morphun8analysis9Tokenizer5closeEv, 
                       __ZN7morphun8analysis9Tokenizer5resetEv, __ZN7morphun8analysis9Tokenizer9setReaderEP5UText, 
                       __ZN7morphun8analysis9TokenizerC2EPNS0_4util16AttributeFactoryE, 
                       __ZN7morphun8analysis9TokenizerC2Ev, __ZN7morphun8analysis9tokenizer19SiriLuceneTokenizer14incrementTokenEv, 
                       __ZN7morphun8analysis9tokenizer19SiriLuceneTokenizer19DEFAULT_BUFFER_SIZEE, 
                       __ZN7morphun8analysis9tokenizer19SiriLuceneTokenizer3endEv, 
                       __ZN7morphun8analysis9tokenizer19SiriLuceneTokenizer4initEv, 
                       __ZN7morphun8analysis9tokenizer19SiriLuceneTokenizer5resetEv, 
                       __ZN7morphun8analysis9tokenizer19SiriLuceneTokenizerC1ERKNS_4util7ULocaleEPNS0_4util16AttributeFactoryEbb, 
                       __ZN7morphun8analysis9tokenizer19SiriLuceneTokenizerC1ERKNS_4util7ULocaleEbb, 
                       __ZN7morphun8analysis9tokenizer19SiriLuceneTokenizerC2ERKNS_4util7ULocaleEPNS0_4util16AttributeFactoryEbb, 
                       __ZN7morphun8analysis9tokenizer19SiriLuceneTokenizerC2ERKNS_4util7ULocaleEbb, 
                       __ZN7morphun8analysis9tokenizer19SiriLuceneTokenizerD0Ev, 
                       __ZN7morphun8analysis9tokenizer19SiriLuceneTokenizerD1Ev, 
                       __ZN7morphun8analysis9tokenizer19SiriLuceneTokenizerD2Ev, 
                       __ZN7morphun8analysis9tokenizer22MorphologicalWordTokenC1EiiRKNSt3__112basic_stringIDsNS3_11char_traitsIDsEENS3_9allocatorIDsEEEESB_bxRKNS3_6vectorINS0_15tokenattributes12LemmaMappingENS7_ISE_EEEE, 
                       __ZN7morphun8analysis9tokenizer22MorphologicalWordTokenC2EiiRKNSt3__112basic_stringIDsNS3_11char_traitsIDsEENS3_9allocatorIDsEEEESB_bxRKNS3_6vectorINS0_15tokenattributes12LemmaMappingENS7_ISE_EEEE, 
                       __ZN7morphun9Tokenizer12getMaxTokensEv, __ZN7morphun9Tokenizer12setMaxTokensEi, 
                       __ZN7morphun9Tokenizer13extractTokensERKNSt3__112basic_stringIDsNS1_11char_traitsIDsEENS1_9allocatorIDsEEEERKNS1_6vectorIPKNS_9tokenizer13TokenModifierENS5_ISE_EEEE, 
                       __ZN7morphun9Tokenizer15getMaxInputSizeEv, __ZN7morphun9Tokenizer15setMaxInputSizeEi, 
                       __ZN7morphun9Tokenizer16createTokenChainERKNSt3__112basic_stringIDsNS1_11char_traitsIDsEENS1_9allocatorIDsEEEE, 
                       __ZN7morphun9Tokenizer8setStyleENS0_16TokenizationTypeE, __ZN7morphun9TokenizerC1EPKNS_9tokenizer14TokenExtractorE, 
                       __ZN7morphun9TokenizerC2EPKNS_9tokenizer14TokenExtractorE, 
                       __ZN7morphun9TokenizerD0Ev, __ZN7morphun9TokenizerD1Ev, __ZN7morphun9TokenizerD2Ev, 
                       __ZN7morphun9exception11IOExceptionC1ERKNSt3__112basic_stringIDsNS2_11char_traitsIDsEENS2_9allocatorIDsEEEE, 
                       __ZN7morphun9exception11IOExceptionC1Ev, __ZN7morphun9exception11IOExceptionC2ERKNSt3__112basic_stringIDsNS2_11char_traitsIDsEENS2_9allocatorIDsEEEE, 
                       __ZN7morphun9exception11IOExceptionC2Ev, __ZN7morphun9exception12ICUException14throwOnFailureE10UErrorCode, 
                       __ZN7morphun9exception12ICUException14throwOnFailureE10UErrorCodeRKNSt3__112basic_stringIDsNS3_11char_traitsIDsEENS3_9allocatorIDsEEEE, 
                       __ZN7morphun9exception12ICUExceptionC1E10UErrorCode, __ZN7morphun9exception12ICUExceptionC1E10UErrorCodeRKNSt3__112basic_stringIDsNS3_11char_traitsIDsEENS3_9allocatorIDsEEEE, 
                       __ZN7morphun9exception12ICUExceptionC2E10UErrorCode, __ZN7morphun9exception12ICUExceptionC2E10UErrorCodeRKNSt3__112basic_stringIDsNS3_11char_traitsIDsEENS3_9allocatorIDsEEEE, 
                       __ZN7morphun9exception16RuntimeExceptionC1ERKNSt3__112basic_stringIDsNS2_11char_traitsIDsEENS2_9allocatorIDsEEEE, 
                       __ZN7morphun9exception16RuntimeExceptionC1Ev, __ZN7morphun9exception16RuntimeExceptionC2ERKNSt3__112basic_stringIDsNS2_11char_traitsIDsEENS2_9allocatorIDsEEEE, 
                       __ZN7morphun9exception16RuntimeExceptionC2Ev, __ZN7morphun9exception17XMLParseExceptionC1ERKNSt3__112basic_stringIDsNS2_11char_traitsIDsEENS2_9allocatorIDsEEEE, 
                       __ZN7morphun9exception17XMLParseExceptionC1Ev, __ZN7morphun9exception17XMLParseExceptionC2ERKNSt3__112basic_stringIDsNS2_11char_traitsIDsEENS2_9allocatorIDsEEEE, 
                       __ZN7morphun9exception17XMLParseExceptionC2Ev, __ZN7morphun9exception18ClassCastExceptionC1ERKNSt3__112basic_stringIDsNS2_11char_traitsIDsEENS2_9allocatorIDsEEEE, 
                       __ZN7morphun9exception18ClassCastExceptionC1Ev, __ZN7morphun9exception18ClassCastExceptionC2ERKNSt3__112basic_stringIDsNS2_11char_traitsIDsEENS2_9allocatorIDsEEEE, 
                       __ZN7morphun9exception18ClassCastExceptionC2Ev, __ZN7morphun9exception20NullPointerExceptionC1ERKNSt3__112basic_stringIDsNS2_11char_traitsIDsEENS2_9allocatorIDsEEEE, 
                       __ZN7morphun9exception20NullPointerExceptionC1Ev, __ZN7morphun9exception20NullPointerExceptionC2ERKNSt3__112basic_stringIDsNS2_11char_traitsIDsEENS2_9allocatorIDsEEEE, 
                       __ZN7morphun9exception20NullPointerExceptionC2Ev, __ZN7morphun9exception21FileNotFoundExceptionC1ERKNSt3__112basic_stringIDsNS2_11char_traitsIDsEENS2_9allocatorIDsEEEE, 
                       __ZN7morphun9exception21FileNotFoundExceptionC1Ev, __ZN7morphun9exception21FileNotFoundExceptionC2ERKNSt3__112basic_stringIDsNS2_11char_traitsIDsEENS2_9allocatorIDsEEEE, 
                       __ZN7morphun9exception21FileNotFoundExceptionC2Ev, __ZN7morphun9exception21IllegalStateExceptionC1ERKNSt3__112basic_stringIDsNS2_11char_traitsIDsEENS2_9allocatorIDsEEEE, 
                       __ZN7morphun9exception21IllegalStateExceptionC1Ev, __ZN7morphun9exception21IllegalStateExceptionC2ERKNSt3__112basic_stringIDsNS2_11char_traitsIDsEENS2_9allocatorIDsEEEE, 
                       __ZN7morphun9exception21IllegalStateExceptionC2Ev, __ZN7morphun9exception22AlreadyClosedExceptionC1ERKNSt3__112basic_stringIDsNS2_11char_traitsIDsEENS2_9allocatorIDsEEEE, 
                       __ZN7morphun9exception22AlreadyClosedExceptionC1Ev, __ZN7morphun9exception22AlreadyClosedExceptionC2ERKNSt3__112basic_stringIDsNS2_11char_traitsIDsEENS2_9allocatorIDsEEEE, 
                       __ZN7morphun9exception22AlreadyClosedExceptionC2Ev, __ZN7morphun9exception24IllegalArgumentExceptionC1ERKNSt3__112basic_stringIDsNS2_11char_traitsIDsEENS2_9allocatorIDsEEEE, 
                       __ZN7morphun9exception24IllegalArgumentExceptionC1Ev, __ZN7morphun9exception24IllegalArgumentExceptionC2ERKNSt3__112basic_stringIDsNS2_11char_traitsIDsEENS2_9allocatorIDsEEEE, 
                       __ZN7morphun9exception24IllegalArgumentExceptionC2Ev, __ZN7morphun9exception24MissingResourceExceptionC1ERKNSt3__112basic_stringIDsNS2_11char_traitsIDsEENS2_9allocatorIDsEEEESA_SA_, 
                       __ZN7morphun9exception24MissingResourceExceptionC2ERKNSt3__112basic_stringIDsNS2_11char_traitsIDsEENS2_9allocatorIDsEEEESA_SA_, 
                       __ZN7morphun9exception25IndexOutOfBoundsExceptionC1ERKNSt3__112basic_stringIDsNS2_11char_traitsIDsEENS2_9allocatorIDsEEEE, 
                       __ZN7morphun9exception25IndexOutOfBoundsExceptionC1Ev, __ZN7morphun9exception25IndexOutOfBoundsExceptionC2ERKNSt3__112basic_stringIDsNS2_11char_traitsIDsEENS2_9allocatorIDsEEEE, 
                       __ZN7morphun9exception25IndexOutOfBoundsExceptionC2Ev, __ZN7morphun9exception28IncompatibleVersionExceptionC1ERKNSt3__112basic_stringIDsNS2_11char_traitsIDsEENS2_9allocatorIDsEEEE, 
                       __ZN7morphun9exception28IncompatibleVersionExceptionC1Ev, 
                       __ZN7morphun9exception28IncompatibleVersionExceptionC2ERKNSt3__112basic_stringIDsNS2_11char_traitsIDsEENS2_9allocatorIDsEEEE, 
                       __ZN7morphun9exception28IncompatibleVersionExceptionC2Ev, 
                       __ZN7morphun9exception29InvalidConfigurationExceptionC1ERKNSt3__112basic_stringIDsNS2_11char_traitsIDsEENS2_9allocatorIDsEEEE, 
                       __ZN7morphun9exception29InvalidConfigurationExceptionC1Ev, 
                       __ZN7morphun9exception29InvalidConfigurationExceptionC2ERKNSt3__112basic_stringIDsNS2_11char_traitsIDsEENS2_9allocatorIDsEEEE, 
                       __ZN7morphun9exception29InvalidConfigurationExceptionC2Ev, 
                       __ZN7morphun9exception31StringIndexOutOfBoundsExceptionC1ERKNSt3__112basic_stringIDsNS2_11char_traitsIDsEENS2_9allocatorIDsEEEE, 
                       __ZN7morphun9exception31StringIndexOutOfBoundsExceptionC1Ei, 
                       __ZN7morphun9exception31StringIndexOutOfBoundsExceptionC1Ev, 
                       __ZN7morphun9exception31StringIndexOutOfBoundsExceptionC2ERKNSt3__112basic_stringIDsNS2_11char_traitsIDsEENS2_9allocatorIDsEEEE, 
                       __ZN7morphun9exception31StringIndexOutOfBoundsExceptionC2Ei, 
                       __ZN7morphun9exception31StringIndexOutOfBoundsExceptionC2Ev, 
                       __ZN7morphun9exception9ExceptionC1ERKNSt3__112basic_stringIDsNS2_11char_traitsIDsEENS2_9allocatorIDsEEEE, 
                       __ZN7morphun9exception9ExceptionC1Ev, __ZN7morphun9exception9ExceptionC2ERKNSt3__112basic_stringIDsNS2_11char_traitsIDsEENS2_9allocatorIDsEEEE, 
                       __ZN7morphun9exception9ExceptionC2Ev, __ZN7morphun9exception9ThrowableC1ERKNSt3__112basic_stringIDsNS2_11char_traitsIDsEENS2_9allocatorIDsEEEE, 
                       __ZN7morphun9exception9ThrowableC1Ev, __ZN7morphun9exception9ThrowableC2ERKNSt3__112basic_stringIDsNS2_11char_traitsIDsEENS2_9allocatorIDsEEEE, 
                       __ZN7morphun9exception9ThrowableC2Ev, __ZN7morphun9resources12DataResource13getPropertiesERKNSt3__112basic_stringIDsNS2_11char_traitsIDsEENS2_9allocatorIDsEEEE, 
                       __ZN7morphun9resources12DataResource9getStringERKNSt3__112basic_stringIDsNS2_11char_traitsIDsEENS2_9allocatorIDsEEEE, 
                       __ZN7morphun9tokenizer10dictionary12SegmentFuger18detachFugenelementEPNS1_7SegmentE, 
                       __ZN7morphun9tokenizer10dictionary12SegmentFugerC1EPNS1_25DictionaryTokenizerConfigEPNS0_4trie15DoubleArrayTrieE, 
                       __ZN7morphun9tokenizer10dictionary12SegmentFugerC2EPNS1_25DictionaryTokenizerConfigEPNS0_4trie15DoubleArrayTrieE, 
                       __ZN7morphun9tokenizer10dictionary14ParsingsScorer11_printLeafsERKNSt3__16vectorINS3_10shared_ptrINS1_7SegmentEEENS3_9allocatorIS7_EEEE, 
                       __ZN7morphun9tokenizer10dictionary14ParsingsScorer12_getBestLeafEPNSt3__16vectorINS3_10shared_ptrINS1_7SegmentEEENS3_9allocatorIS7_EEEE, 
                       __ZN7morphun9tokenizer10dictionary14ParsingsScorer14getBestOffsetsEPNSt3__16vectorIiNS3_9allocatorIiEEEEPNS4_INS3_10shared_ptrINS1_7SegmentEEENS5_ISB_EEEE, 
                       __ZN7morphun9tokenizer10dictionary14ParsingsScorer6_pruneERKNSt3__16vectorINS3_10shared_ptrINS1_7SegmentEEENS3_9allocatorIS7_EEEE, 
                       __ZN7morphun9tokenizer10dictionary14ParsingsScorerC1EPNS1_25DictionaryTokenizerConfigE, 
                       __ZN7morphun9tokenizer10dictionary14ParsingsScorerC2EPNS1_25DictionaryTokenizerConfigE, 
                       __ZN7morphun9tokenizer10dictionary16SegmentValidator13validateFirstEPNS1_7SegmentES4_S4_b, 
                       __ZN7morphun9tokenizer10dictionary16SegmentValidator14validateSecondEPNS1_7SegmentE, 
                       __ZN7morphun9tokenizer10dictionary16SegmentValidatorC1EPNS1_25DictionaryTokenizerConfigEPNS1_12SegmentFugerE, 
                       __ZN7morphun9tokenizer10dictionary16SegmentValidatorC2EPNS1_25DictionaryTokenizerConfigEPNS1_12SegmentFugerE, 
                       __ZN7morphun9tokenizer10dictionary16SegmentValidatorD1Ev, 
                       __ZN7morphun9tokenizer10dictionary16SegmentValidatorD2Ev, 
                       __ZN7morphun9tokenizer10dictionary20GermanicDecompounder10decompoundERKNSt3__112basic_stringIDsNS3_11char_traitsIDsEENS3_9allocatorIDsEEEEPNS3_6vectorIiNS7_IiEEEE, 
                       __ZN7morphun9tokenizer10dictionary20GermanicDecompounder11_newSegmentEPKNSt3__112basic_stringIDsNS3_11char_traitsIDsEENS3_9allocatorIDsEEEEii, 
                       __ZN7morphun9tokenizer10dictionary20GermanicDecompounder11_newSegmentEPKNSt3__112basic_stringIDsNS3_11char_traitsIDsEENS3_9allocatorIDsEEEEiiiNS3_10shared_ptrIS9_EE, 
                       __ZN7morphun9tokenizer10dictionary20GermanicDecompounder7analyzeENSt3__110shared_ptrINS1_7SegmentEEES6_ibPNS3_6vectorIS6_NS3_9allocatorIS6_EEEE, 
                       __ZN7morphun9tokenizer10dictionary20GermanicDecompounder8readTrieEPNSt3__114basic_ifstreamIcNS3_11char_traitsIcEEEE, 
                       __ZN7morphun9tokenizer10dictionary20GermanicDecompounderC1EPNS1_25DictionaryTokenizerConfigEPNS0_4trie15DoubleArrayTrieE, 
                       __ZN7morphun9tokenizer10dictionary20GermanicDecompounderC2EPNS1_25DictionaryTokenizerConfigEPNS0_4trie15DoubleArrayTrieE, 
                       __ZN7morphun9tokenizer10dictionary20GermanicDecompounderD0Ev, 
                       __ZN7morphun9tokenizer10dictionary20GermanicDecompounderD1Ev, 
                       __ZN7morphun9tokenizer10dictionary20GermanicDecompounderD2Ev, 
                       __ZN7morphun9tokenizer10dictionary25DictionaryTokenizerConfig10initializeEv, 
                       __ZN7morphun9tokenizer10dictionary25DictionaryTokenizerConfig11getMaxDepthEv, 
                       __ZN7morphun9tokenizer10dictionary25DictionaryTokenizerConfig11getMinScoreEv, 
                       __ZN7morphun9tokenizer10dictionary25DictionaryTokenizerConfig11setMaxDepthEi, 
                       __ZN7morphun9tokenizer10dictionary25DictionaryTokenizerConfig11setMinScoreEi, 
                       __ZN7morphun9tokenizer10dictionary25DictionaryTokenizerConfig14isFugenelementERKNSt3__112basic_stringIDsNS3_11char_traitsIDsEENS3_9allocatorIDsEEEE, 
                       __ZN7morphun9tokenizer10dictionary25DictionaryTokenizerConfig15getFallbackFreqEv, 
                       __ZN7morphun9tokenizer10dictionary25DictionaryTokenizerConfig15getMinFrequencyEv, 
                       __ZN7morphun9tokenizer10dictionary25DictionaryTokenizerConfig15getReplacementsEv, 
                       __ZN7morphun9tokenizer10dictionary25DictionaryTokenizerConfig15setFallbackFreqEf, 
                       __ZN7morphun9tokenizer10dictionary25DictionaryTokenizerConfig15setMinFrequencyEi, 
                       __ZN7morphun9tokenizer10dictionary25DictionaryTokenizerConfig18getMaxCompoundFreqEv, 
                       __ZN7morphun9tokenizer10dictionary25DictionaryTokenizerConfig18setMaxCompoundFreqEi, 
                       __ZN7morphun9tokenizer10dictionary25DictionaryTokenizerConfig19getMinSegmentLengthEv, 
                       __ZN7morphun9tokenizer10dictionary25DictionaryTokenizerConfig19setMinSegmentLengthEi, 
                       __ZN7morphun9tokenizer10dictionary25DictionaryTokenizerConfig20getMaxCompoundLengthEv, 
                       __ZN7morphun9tokenizer10dictionary25DictionaryTokenizerConfig20setMaxCompoundLengthEi, 
                       __ZN7morphun9tokenizer10dictionary25DictionaryTokenizerConfig21_collectFugenelementsEv, 
                       __ZN7morphun9tokenizer10dictionary25DictionaryTokenizerConfig21getLowerMinScoreRatioEv, 
                       __ZN7morphun9tokenizer10dictionary25DictionaryTokenizerConfig21getMaxReplacementFreqEv, 
                       __ZN7morphun9tokenizer10dictionary25DictionaryTokenizerConfig21getMinCandidateLengthEv, 
                       __ZN7morphun9tokenizer10dictionary25DictionaryTokenizerConfig21getMinCredibilityDiffEv, 
                       __ZN7morphun9tokenizer10dictionary25DictionaryTokenizerConfig21getMinFrequenciesDiffEv, 
                       __ZN7morphun9tokenizer10dictionary25DictionaryTokenizerConfig21getUpperMinScoreRatioEv, 
                       __ZN7morphun9tokenizer10dictionary25DictionaryTokenizerConfig21setLowerMinScoreRatioEf, 
                       __ZN7morphun9tokenizer10dictionary25DictionaryTokenizerConfig21setMaxReplacementFreqEi, 
                       __ZN7morphun9tokenizer10dictionary25DictionaryTokenizerConfig21setMinCandidateLengthEi, 
                       __ZN7morphun9tokenizer10dictionary25DictionaryTokenizerConfig21setMinCredibilityDiffEf, 
                       __ZN7morphun9tokenizer10dictionary25DictionaryTokenizerConfig21setMinFrequenciesDiffEi, 
                       __ZN7morphun9tokenizer10dictionary25DictionaryTokenizerConfig21setUpperMinScoreRatioEf, 
                       __ZN7morphun9tokenizer10dictionary25DictionaryTokenizerConfig22doReplaceFugenelementsEv, 
                       __ZN7morphun9tokenizer10dictionary25DictionaryTokenizerConfig22getLowerMinCredibilityEv, 
                       __ZN7morphun9tokenizer10dictionary25DictionaryTokenizerConfig22getUpperMinCredibilityEv, 
                       __ZN7morphun9tokenizer10dictionary25DictionaryTokenizerConfig22isPositiveFugenelementERKNSt3__112basic_stringIDsNS3_11char_traitsIDsEENS3_9allocatorIDsEEEE, 
                       __ZN7morphun9tokenizer10dictionary25DictionaryTokenizerConfig22setLowerMinCredibilityEi, 
                       __ZN7morphun9tokenizer10dictionary25DictionaryTokenizerConfig22setUpperMinCredibilityEi, 
                       __ZN7morphun9tokenizer10dictionary25DictionaryTokenizerConfig23setReplaceFugenelementsEb, 
                       __ZN7morphun9tokenizer10dictionary25DictionaryTokenizerConfig24getExpectedSegmentLengthEv, 
                       __ZN7morphun9tokenizer10dictionary25DictionaryTokenizerConfig24getMaxFugenelementLengthEv, 
                       __ZN7morphun9tokenizer10dictionary25DictionaryTokenizerConfig24getNegativeFugenelementsEv, 
                       __ZN7morphun9tokenizer10dictionary25DictionaryTokenizerConfig24setExpectedSegmentLengthEi, 
                       __ZN7morphun9tokenizer10dictionary25DictionaryTokenizerConfig24setMaxFugenelementLengthEi, 
                       __ZN7morphun9tokenizer10dictionary25DictionaryTokenizerConfig25isReplaceableFugenelementERKNSt3__112basic_stringIDsNS3_11char_traitsIDsEENS3_9allocatorIDsEEEE, 
                       __ZN7morphun9tokenizer10dictionary25DictionaryTokenizerConfig28INCLUDE_FUGENELEMENT_OFFSETSE, 
                       __ZN7morphun9tokenizer10dictionary25DictionaryTokenizerConfig31STORE_FUGENELEMENTS_IN_SEGMENTSE, 
                       __ZN7morphun9tokenizer10dictionary25DictionaryTokenizerConfig34getMinCompoundLengthForCredibilityEv, 
                       __ZN7morphun9tokenizer10dictionary25DictionaryTokenizerConfig34setMinCompoundLengthForCredibilityEi, 
                       __ZN7morphun9tokenizer10dictionary25DictionaryTokenizerConfig5DEBUGE, 
                       __ZN7morphun9tokenizer10dictionary25DictionaryTokenizerConfig7VERBOSEE, 
                       __ZN7morphun9tokenizer10dictionary25DictionaryTokenizerConfigC1Ev, 
                       __ZN7morphun9tokenizer10dictionary25DictionaryTokenizerConfigC2Ev, 
                       __ZN7morphun9tokenizer10dictionary7Segment10_parseDataEi, 
                       __ZN7morphun9tokenizer10dictionary7Segment12_collectDataEv, 
                       __ZN7morphun9tokenizer10dictionary7Segment12getDebugInfoERKNSt3__112basic_stringIDsNS3_11char_traitsIDsEENS3_9allocatorIDsEEEE, 
                       __ZN7morphun9tokenizer10dictionary7Segment14setRootAndFugeEPNSt3__112basic_stringIDsNS3_11char_traitsIDsEENS3_9allocatorIDsEEEENS3_10shared_ptrIS9_EEi, 
                       __ZN7morphun9tokenizer10dictionary7Segment3tieENSt3__110shared_ptrIS2_EE, 
                       __ZN7morphun9tokenizer10dictionary7Segment5scoreEv, __ZN7morphun9tokenizer10dictionary7Segment7hasFugeEv, 
                       __ZN7morphun9tokenizer10dictionary7Segment7setRootEPNSt3__112basic_stringIDsNS3_11char_traitsIDsEENS3_9allocatorIDsEEEEii, 
                       __ZN7morphun9tokenizer10dictionary7SegmentC1EPNS1_25DictionaryTokenizerConfigEPNS0_4trie15DoubleArrayTrieEPKNSt3__112basic_stringIDsNS8_11char_traitsIDsEENS8_9allocatorIDsEEEEii, 
                       __ZN7morphun9tokenizer10dictionary7SegmentC1EPNS1_25DictionaryTokenizerConfigEPNS0_4trie15DoubleArrayTrieEPKNSt3__112basic_stringIDsNS8_11char_traitsIDsEENS8_9allocatorIDsEEEEiiiNS8_10shared_ptrISE_EE, 
                       __ZN7morphun9tokenizer10dictionary7SegmentC2EPNS1_25DictionaryTokenizerConfigEPNS0_4trie15DoubleArrayTrieEPKNSt3__112basic_stringIDsNS8_11char_traitsIDsEENS8_9allocatorIDsEEEEii, 
                       __ZN7morphun9tokenizer10dictionary7SegmentC2EPNS1_25DictionaryTokenizerConfigEPNS0_4trie15DoubleArrayTrieEPKNSt3__112basic_stringIDsNS8_11char_traitsIDsEENS8_9allocatorIDsEEEEiiiNS8_10shared_ptrISE_EE, 
                       __ZN7morphun9tokenizer10dictionary7SegmentD1Ev, __ZN7morphun9tokenizer10dictionary7SegmentD2Ev, 
                       __ZN7morphun9tokenizer13NumberCleaver11PUNCTUATIONEv, __ZN7morphun9tokenizer13NumberCleaver18DIGITS_PUNCTUATIONEv, 
                       __ZN7morphun9tokenizer13NumberCleaver6DIGITSEv, __ZN7morphun9tokenizer13NumberCleaver8INSTANCEEv, 
                       __ZN7morphun9tokenizer13NumberCleaverC1Ev, __ZN7morphun9tokenizer13NumberCleaverC2Ev, 
                       __ZN7morphun9tokenizer17TokenExtractorICUC1ERKNS_4util7ULocaleEPKNSt3__13mapINS6_12basic_stringIDsNS6_11char_traitsIDsEENS6_9allocatorIDsEEEEPKDsNS6_4lessISD_EENSB_INS6_4pairIKSD_SF_EEEEEE, 
                       __ZN7morphun9tokenizer17TokenExtractorICUC2ERKNS_4util7ULocaleEPKNSt3__13mapINS6_12basic_stringIDsNS6_11char_traitsIDsEENS6_9allocatorIDsEEEEPKDsNS6_4lessISD_EENSB_INS6_4pairIKSD_SF_EEEEEE, 
                       __ZN7morphun9tokenizer18GroupTokenModifier21MINIMUM_QUOTED_LENGTHE, 
                       __ZN7morphun9tokenizer18GroupTokenModifier8INSTANCEEv, __ZN7morphun9tokenizer18GroupTokenModifierC1Ev, 
                       __ZN7morphun9tokenizer18GroupTokenModifierC2Ev, __ZN7morphun9tokenizer19TokenExtractorMecab25MECAB_DICTIONARY_ROOT_KEYE, 
                       __ZN7morphun9tokenizer19TokenExtractorMecabC1ERKNS_4util7ULocaleEiRKN7icu4cxx10UnicodeSetEPKNSt3__13mapINSA_12basic_stringIDsNSA_11char_traitsIDsEENSA_9allocatorIDsEEEEPKDsNSA_4lessISH_EENSF_INSA_4pairIKSH_SJ_EEEEEE, 
                       __ZN7morphun9tokenizer19TokenExtractorMecabC2ERKNS_4util7ULocaleEiRKN7icu4cxx10UnicodeSetEPKNSt3__13mapINSA_12basic_stringIDsNSA_11char_traitsIDsEENSA_9allocatorIDsEEEEPKDsNSA_4lessISH_EENSF_INSA_4pairIKSH_SJ_EEEEEE, 
                       __ZN7morphun9tokenizer21ExplicitTokenModifier10splitCaretEPNS_5TokenE, 
                       __ZN7morphun9tokenizer21ExplicitTokenModifier11createTokenEPNS_5TokenEb, 
                       __ZN7morphun9tokenizer21ExplicitTokenModifier8INSTANCEEv, 
                       __ZN7morphun9tokenizer21ExplicitTokenModifier8getValueEPNS_5TokenES3_PNSt3__112basic_stringIDsNS4_11char_traitsIDsEENS4_9allocatorIDsEEEESB_, 
                       __ZN7morphun9tokenizer21ExplicitTokenModifier9findCaretEPNS_5TokenE, 
                       __ZN7morphun9tokenizer21ExplicitTokenModifierC1Ev, __ZN7morphun9tokenizer21ExplicitTokenModifierC2Ev, 
                       __ZN7morphun9tokenizer21StringTokenizerBridge12setMecabRootERKNSt3__112basic_stringIDsNS2_11char_traitsIDsEENS2_9allocatorIDsEEEEi, 
                       __ZN7morphun9tokenizer21StringTokenizerBridge13MECAB_ZH_HANSE, 
                       __ZN7morphun9tokenizer21StringTokenizerBridge13MECAB_ZH_HANTE, 
                       __ZN7morphun9tokenizer21StringTokenizerBridge13tokenizeMecabERKNSt3__112basic_stringIDsNS2_11char_traitsIDsEENS2_9allocatorIDsEEEEiPNS2_6vectorIiNS6_IiEEEE, 
                       __ZN7morphun9tokenizer21StringTokenizerBridge14MECAB_YUE_HANSE, 
                       __ZN7morphun9tokenizer21StringTokenizerBridge14MECAB_YUE_HANTE, 
                       __ZN7morphun9tokenizer21StringTokenizerBridge8MECAB_JAE, __ZN7morphun9tokenizer21StringTokenizerBridge8MECAB_KOE, 
                       __ZN7morphun9tokenizer21StringTokenizerBridge8MECAB_TRE, __ZN7morphun9tokenizer21StringTokenizerBridge8tokenizeERKNSt3__112basic_stringIDsNS2_11char_traitsIDsEENS2_9allocatorIDsEEEESA_PNS2_6vectorIiNS6_IiEEEE, 
                       __ZN7morphun9tokenizer21StringTokenizerBridgeC1Ev, __ZN7morphun9tokenizer21StringTokenizerBridgeC2Ev, 
                       __ZN7morphun9tokenizer22OversizedTokenModifier8INSTANCEEv, 
                       __ZN7morphun9tokenizer22OversizedTokenModifierC1Ev, __ZN7morphun9tokenizer22OversizedTokenModifierC2Ev, 
                       __ZN7morphun9tokenizer28TokenExtractorCoreFoundationC1ERKN7icu4cxx10UnicodeSetERKNS_4util7ULocaleEPKNSt3__13mapINSA_12basic_stringIDsNSA_11char_traitsIDsEENSA_9allocatorIDsEEEEPKDsNSA_4lessISH_EENSF_INSA_4pairIKSH_SJ_EEEEEE, 
                       __ZN7morphun9tokenizer28TokenExtractorCoreFoundationC2ERKN7icu4cxx10UnicodeSetERKNS_4util7ULocaleEPKNSt3__13mapINSA_12basic_stringIDsNSA_11char_traitsIDsEENSA_9allocatorIDsEEEEPKDsNSA_4lessISH_EENSF_INSA_4pairIKSH_SJ_EEEEEE, 
                       __ZN7morphun9tokenizer29StringTokenizerBridgeProvider18TOKENIZER_DATA_DIRE, 
                       __ZN7morphun9tokenizer29StringTokenizerBridgeProvider24TOKENIZER_ROOT_DIRECTORYEv, 
                       __ZN7morphun9tokenizer29StringTokenizerBridgeProviderC1Ev, 
                       __ZN7morphun9tokenizer29StringTokenizerBridgeProviderC2Ev, 
                       __ZN7morphun9tokenizer30WordAndDelimiterTokenExtractor14DECOMPOUND_KEYE, 
                       __ZN7morphun9tokenizer30WordAndDelimiterTokenExtractor18NON_DECOMPOUND_KEYE, 
                       __ZN7morphun9tokenizer30WordAndDelimiterTokenExtractor23NON_DECOMPOUND_FILE_KEYE, 
                       __ZN7morphun9tokenizer30WordAndDelimiterTokenExtractor4DASHE, 
                       __ZN7morphun9tokenizer30WordAndDelimiterTokenExtractorC2ERKNS_4util7ULocaleEPKNSt3__13mapINS6_12basic_stringIDsNS6_11char_traitsIDsEENS6_9allocatorIDsEEEEPKDsNS6_4lessISD_EENSB_INS6_4pairIKSD_SF_EEEEEE, 
                       __ZN7morphun9tokenizer37SemiticWordAndDelimiterTokenExtractor10PREFIX_KEYE, 
                       __ZN7morphun9tokenizer37SemiticWordAndDelimiterTokenExtractor10SUFFIX_KEYE, 
                       __ZN7morphun9tokenizer37SemiticWordAndDelimiterTokenExtractor11REPLACE_KEYE, 
                       __ZN7morphun9tokenizer37SemiticWordAndDelimiterTokenExtractor11addPrefixesEPKNSt3__13mapINS2_12basic_stringIDsNS2_11char_traitsIDsEENS2_9allocatorIDsEEEEPKDsNS2_4lessIS9_EENS7_INS2_4pairIKS9_SB_EEEEEE, 
                       __ZN7morphun9tokenizer37SemiticWordAndDelimiterTokenExtractor11addSuffixesEPKNSt3__13mapINS2_12basic_stringIDsNS2_11char_traitsIDsEENS2_9allocatorIDsEEEEPKDsNS2_4lessIS9_EENS7_INS2_4pairIKS9_SB_EEEEEE, 
                       __ZN7morphun9tokenizer37SemiticWordAndDelimiterTokenExtractor13NORMALIZE_KEYE, 
                       __ZN7morphun9tokenizer37SemiticWordAndDelimiterTokenExtractor16getPrefixClassesEPKNSt3__13mapINS2_12basic_stringIDsNS2_11char_traitsIDsEENS2_9allocatorIDsEEEEPKDsNS2_4lessIS9_EENS7_INS2_4pairIKS9_SB_EEEEEE, 
                       __ZN7morphun9tokenizer37SemiticWordAndDelimiterTokenExtractor19MINIMUM_WORD_LENGTHE, 
                       __ZN7morphun9tokenizer37SemiticWordAndDelimiterTokenExtractor9addPrefixEPNS0_49SemiticWordAndDelimiterTokenExtractor_AffixRecordERKNSt3__112basic_stringIDsNS4_11char_traitsIDsEENS4_9allocatorIDsEEEE, 
                       __ZN7morphun9tokenizer37SemiticWordAndDelimiterTokenExtractor9addSuffixEPNS0_49SemiticWordAndDelimiterTokenExtractor_AffixRecordERKNSt3__112basic_stringIDsNS4_11char_traitsIDsEENS4_9allocatorIDsEEEE, 
                       __ZN7morphun9tokenizer37SemiticWordAndDelimiterTokenExtractorC1ERKNS_4util7ULocaleEPKNSt3__13mapINS6_12basic_stringIDsNS6_11char_traitsIDsEENS6_9allocatorIDsEEEEPKDsNS6_4lessISD_EENSB_INS6_4pairIKSD_SF_EEEEEE, 
                       __ZN7morphun9tokenizer37SemiticWordAndDelimiterTokenExtractorC2ERKNS_4util7ULocaleEPKNSt3__13mapINS6_12basic_stringIDsNS6_11char_traitsIDsEENS6_9allocatorIDsEEEEPKDsNS6_4lessISD_EENSB_INS6_4pairIKSD_SF_EEEEEE, 
                       __ZN7morphun9tokenizer38GermanicWordAndDelimiterTokenExtractor10TRIE_CACHEEv, 
                       __ZN7morphun9tokenizer38GermanicWordAndDelimiterTokenExtractorC1ERKNS_4util7ULocaleEPKNSt3__13mapINS6_12basic_stringIDsNS6_11char_traitsIDsEENS6_9allocatorIDsEEEEPKDsNS6_4lessISD_EENSB_INS6_4pairIKSD_SF_EEEEEEPNS0_10dictionary25DictionaryTokenizerConfigE, 
                       __ZN7morphun9tokenizer38GermanicWordAndDelimiterTokenExtractorC2ERKNS_4util7ULocaleEPKNSt3__13mapINS6_12basic_stringIDsNS6_11char_traitsIDsEENS6_9allocatorIDsEEEEPKDsNS6_4lessISD_EENSB_INS6_4pairIKSD_SF_EEEEEEPNS0_10dictionary25DictionaryTokenizerConfigE, 
                       __ZN7morphun9tokenizer38GermanicWordAndDelimiterTokenExtractorD0Ev, 
                       __ZN7morphun9tokenizer38GermanicWordAndDelimiterTokenExtractorD1Ev, 
                       __ZN7morphun9tokenizer38GermanicWordAndDelimiterTokenExtractorD2Ev, 
                       __ZN7morphun9tokenizer49SemiticWordAndDelimiterTokenExtractor_AffixRecord12getNextAffixEDs, 
                       __ZN7morphun9tokenizer49SemiticWordAndDelimiterTokenExtractor_AffixRecord16addNextCharacterEDs, 
                       __ZN7morphun9tokenizer49SemiticWordAndDelimiterTokenExtractor_AffixRecord8containsERKNSt3__16vectorIPS1_NS2_9allocatorIS4_EEEEDs, 
                       __ZN7morphun9tokenizer49SemiticWordAndDelimiterTokenExtractor_AffixRecordC1Ev, 
                       __ZN7morphun9tokenizer49SemiticWordAndDelimiterTokenExtractor_AffixRecordC2Ev, 
                       __ZN7morphun9tokenizer4trie15DoubleArrayTrieC1EPNSt3__114basic_ifstreamIcNS3_11char_traitsIcEEEE, 
                       __ZN7morphun9tokenizer4trie15DoubleArrayTrieC2EPNSt3__114basic_ifstreamIcNS3_11char_traitsIcEEEE, 
                       __ZN7morphun9tokenizer4trie15DoubleArrayTrieD1Ev, __ZN7morphun9tokenizer4trie15DoubleArrayTrieD2Ev, 
                       __ZN7morphun9tokenizer6locale16DefaultTokenizerC1ERKNS_4util7ULocaleEPKNSt3__13mapINS7_12basic_stringIDsNS7_11char_traitsIDsEENS7_9allocatorIDsEEEEPKDsNS7_4lessISE_EENSC_INS7_4pairIKSE_SG_EEEEEE, 
                       __ZN7morphun9tokenizer6locale16DefaultTokenizerC2ERKNS_4util7ULocaleEPKNSt3__13mapINS7_12basic_stringIDsNS7_11char_traitsIDsEENS7_9allocatorIDsEEEEPKDsNS7_4lessISE_EENSC_INS7_4pairIKSE_SG_EEEEEE, 
                       __ZN7morphun9tokenizer6locale2ar11ArTokenizerC1ERKNS_4util7ULocaleEPKNSt3__13mapINS8_12basic_stringIDsNS8_11char_traitsIDsEENS8_9allocatorIDsEEEEPKDsNS8_4lessISF_EENSD_INS8_4pairIKSF_SH_EEEEEE, 
                       __ZN7morphun9tokenizer6locale2ar11ArTokenizerC2ERKNS_4util7ULocaleEPKNSt3__13mapINS8_12basic_stringIDsNS8_11char_traitsIDsEENS8_9allocatorIDsEEEEPKDsNS8_4lessISF_EENSD_INS8_4pairIKSF_SH_EEEEEE, 
                       __ZN7morphun9tokenizer6locale2da11DaTokenizerC1ERKNS_4util7ULocaleEPKNSt3__13mapINS8_12basic_stringIDsNS8_11char_traitsIDsEENS8_9allocatorIDsEEEEPKDsNS8_4lessISF_EENSD_INS8_4pairIKSF_SH_EEEEEE, 
                       __ZN7morphun9tokenizer6locale2da11DaTokenizerC2ERKNS_4util7ULocaleEPKNSt3__13mapINS8_12basic_stringIDsNS8_11char_traitsIDsEENS8_9allocatorIDsEEEEPKDsNS8_4lessISF_EENSD_INS8_4pairIKSF_SH_EEEEEE, 
                       __ZN7morphun9tokenizer6locale2da27DaDictionaryTokenizerConfigC1Ev, 
                       __ZN7morphun9tokenizer6locale2da27DaDictionaryTokenizerConfigC2Ev, 
                       __ZN7morphun9tokenizer6locale2de11DeTokenizerC1ERKNS_4util7ULocaleEPKNSt3__13mapINS8_12basic_stringIDsNS8_11char_traitsIDsEENS8_9allocatorIDsEEEEPKDsNS8_4lessISF_EENSD_INS8_4pairIKSF_SH_EEEEEE, 
                       __ZN7morphun9tokenizer6locale2de11DeTokenizerC2ERKNS_4util7ULocaleEPKNSt3__13mapINS8_12basic_stringIDsNS8_11char_traitsIDsEENS8_9allocatorIDsEEEEPKDsNS8_4lessISF_EENSD_INS8_4pairIKSF_SH_EEEEEE, 
                       __ZN7morphun9tokenizer6locale2de32DeWordAndDelimiterTokenExtractor21createMergedWordTokenEPNS_5TokenES5_, 
                       __ZN7morphun9tokenizer6locale2de32DeWordAndDelimiterTokenExtractor9LATIN_SETEv, 
                       __ZN7morphun9tokenizer6locale2de32DeWordAndDelimiterTokenExtractor9titleCaseEPNSt3__112basic_stringIDsNS4_11char_traitsIDsEENS4_9allocatorIDsEEEERKSA_, 
                       __ZN7morphun9tokenizer6locale2de32DeWordAndDelimiterTokenExtractorC1ERKNS_4util7ULocaleEPKNSt3__13mapINS8_12basic_stringIDsNS8_11char_traitsIDsEENS8_9allocatorIDsEEEEPKDsNS8_4lessISF_EENSD_INS8_4pairIKSF_SH_EEEEEE, 
                       __ZN7morphun9tokenizer6locale2de32DeWordAndDelimiterTokenExtractorC2ERKNS_4util7ULocaleEPKNSt3__13mapINS8_12basic_stringIDsNS8_11char_traitsIDsEENS8_9allocatorIDsEEEEPKDsNS8_4lessISF_EENSD_INS8_4pairIKSF_SH_EEEEEE, 
                       __ZN7morphun9tokenizer6locale2fi10FiCompound13addBoundariesEPNSt3__16vectorIiNS4_9allocatorIiEEEE, 
                       __ZN7morphun9tokenizer6locale2fi10FiCompoundC1EPNS2_13FiSuffixSplitE, 
                       __ZN7morphun9tokenizer6locale2fi10FiCompoundC2EPNS2_13FiSuffixSplitE, 
                       __ZN7morphun9tokenizer6locale2fi11FiTokenizerC1ERKNS_4util7ULocaleEPKNSt3__13mapINS8_12basic_stringIDsNS8_11char_traitsIDsEENS8_9allocatorIDsEEEEPKDsNS8_4lessISF_EENSD_INS8_4pairIKSF_SH_EEEEEE, 
                       __ZN7morphun9tokenizer6locale2fi11FiTokenizerC2ERKNS_4util7ULocaleEPKNSt3__13mapINS8_12basic_stringIDsNS8_11char_traitsIDsEENS8_9allocatorIDsEEEEPKDsNS8_4lessISF_EENSD_INS8_4pairIKSF_SH_EEEEEE, 
                       __ZN7morphun9tokenizer6locale2fi12FiNominative17isInNotNominativeEPNS2_9FiSegmentERKNSt3__112basic_stringIDsNS6_11char_traitsIDsEENS6_9allocatorIDsEEEE, 
                       __ZN7morphun9tokenizer6locale2fi12FiNominative19NOTNOMINATIVESUFFIXEv, 
                       __ZN7morphun9tokenizer6locale2fi12FiNominative25NOTNOMINATIVESUFFIX_SPLITEv, 
                       __ZN7morphun9tokenizer6locale2fi12FiNominativeC1Ev, __ZN7morphun9tokenizer6locale2fi12FiNominativeC2Ev, 
                       __ZN7morphun9tokenizer6locale2fi13FiSuffixSplit10SUFFIXINFOEv, 
                       __ZN7morphun9tokenizer6locale2fi13FiSuffixSplit13addBoundariesEPNSt3__16vectorIiNS4_9allocatorIiEEEENS3_10SuffixTypeE, 
                       __ZN7morphun9tokenizer6locale2fi13FiSuffixSplit13getSuffixInfoERKNSt3__112basic_stringIDsNS4_11char_traitsIDsEENS4_9allocatorIDsEEEE, 
                       __ZN7morphun9tokenizer6locale2fi13FiSuffixSplit13loadAffixFileERKNSt3__112basic_stringIDsNS4_11char_traitsIDsEENS4_9allocatorIDsEEEE, 
                       __ZN7morphun9tokenizer6locale2fi13FiSuffixSplit14loadSuffixInfoERKNSt3__112basic_stringIDsNS4_11char_traitsIDsEENS4_9allocatorIDsEEEESC_, 
                       __ZN7morphun9tokenizer6locale2fi13FiSuffixSplit15MIDDLESUFFIXSETEv, 
                       __ZN7morphun9tokenizer6locale2fi13FiSuffixSplit8isSuffixERKNSt3__112basic_stringIDsNS4_11char_traitsIDsEENS4_9allocatorIDsEEEE, 
                       __ZN7morphun9tokenizer6locale2fi13FiSuffixSplit8stemmingEPNSt3__16vectorINS4_12basic_stringIDsNS4_11char_traitsIDsEENS4_9allocatorIDsEEEENS9_ISB_EEEERKSB_NS3_10SuffixTypeE, 
                       __ZN7morphun9tokenizer6locale2fi13FiSuffixSplit9CLITICSETEv, 
                       __ZN7morphun9tokenizer6locale2fi13FiSuffixSplitC1EPNS2_9FiSegmentE, 
                       __ZN7morphun9tokenizer6locale2fi13FiSuffixSplitC2EPNS2_9FiSegmentE, 
                       __ZN7morphun9tokenizer6locale2fi17FiTokenizerConfig10MINLOGPROBE, 
                       __ZN7morphun9tokenizer6locale2fi17FiTokenizerConfig13MINSTEMLENGTHE, 
                       __ZN7morphun9tokenizer6locale2fi17FiTokenizerConfig14MINSUFFIXSPLITE, 
                       __ZN7morphun9tokenizer6locale2fi17FiTokenizerConfig15MAXCLITICLENGTHE, 
                       __ZN7morphun9tokenizer6locale2fi17FiTokenizerConfig15MAXSUFFIXLENGTHE, 
                       __ZN7morphun9tokenizer6locale2fi17FiTokenizerConfig17MIN_FISUFFIXSPLITE, 
                       __ZN7morphun9tokenizer6locale2fi17FiTokenizerConfig19MIN_FICOMPOUNDSPLITE, 
                       __ZN7morphun9tokenizer6locale2fi17FiTokenizerConfig20MINUNKNOWNSTEMLENGTHE, 
                       __ZN7morphun9tokenizer6locale2fi17FiTokenizerConfig21MAXMIDDLESUFFIXLENGTHE, 
                       __ZN7morphun9tokenizer6locale2fi17FiTokenizerConfigC1Ev, __ZN7morphun9tokenizer6locale2fi17FiTokenizerConfigC2Ev, 
                       __ZN7morphun9tokenizer6locale2fi32FiWordAndDelimiterTokenExtractor10TRIE_CACHEEv, 
                       __ZN7morphun9tokenizer6locale2fi32FiWordAndDelimiterTokenExtractor9lowerCaseEPNSt3__112basic_stringIDsNS4_11char_traitsIDsEENS4_9allocatorIDsEEEERKSA_ii, 
                       __ZN7morphun9tokenizer6locale2fi32FiWordAndDelimiterTokenExtractorC1ERKNS_4util7ULocaleEPKNSt3__13mapINS8_12basic_stringIDsNS8_11char_traitsIDsEENS8_9allocatorIDsEEEEPKDsNS8_4lessISF_EENSD_INS8_4pairIKSF_SH_EEEEEE, 
                       __ZN7morphun9tokenizer6locale2fi32FiWordAndDelimiterTokenExtractorC2ERKNS_4util7ULocaleEPKNSt3__13mapINS8_12basic_stringIDsNS8_11char_traitsIDsEENS8_9allocatorIDsEEEEPKDsNS8_4lessISF_EENSD_INS8_4pairIKSF_SH_EEEEEE, 
                       __ZN7morphun9tokenizer6locale2fi9FiSegment13MAX_WORD_FREQEv, 
                       __ZN7morphun9tokenizer6locale2fi9FiSegment13addBoundariesEPNSt3__16vectorIiNS4_9allocatorIiEEEE, 
                       __ZN7morphun9tokenizer6locale2fi9FiSegment16FREQ_TO_LOG_PROBEv, 
                       __ZN7morphun9tokenizer6locale2fi9FiSegment18loadFreqToProbFileERKNSt3__112basic_stringIDsNS4_11char_traitsIDsEENS4_9allocatorIDsEEEE, 
                       __ZN7morphun9tokenizer6locale2fi9FiSegmentC1EPKNS0_4trie15DoubleArrayTrieEPKNSt3__112basic_stringIDsNS8_11char_traitsIDsEENS8_9allocatorIDsEEEESG_iib, 
                       __ZN7morphun9tokenizer6locale2fi9FiSegmentC1EPS3_iib, __ZN7morphun9tokenizer6locale2fi9FiSegmentC2EPKNS0_4trie15DoubleArrayTrieEPKNSt3__112basic_stringIDsNS8_11char_traitsIDsEENS8_9allocatorIDsEEEESG_iib, 
                       __ZN7morphun9tokenizer6locale2fi9FiSegmentC2EPS3_iib, __ZN7morphun9tokenizer6locale2ja11JaTokenizer20JAPANESE_UNICODE_SETEv, 
                       __ZN7morphun9tokenizer6locale2ja11JaTokenizerC1ERKNS_4util7ULocaleEPKNSt3__13mapINS8_12basic_stringIDsNS8_11char_traitsIDsEENS8_9allocatorIDsEEEEPKDsNS8_4lessISF_EENSD_INS8_4pairIKSF_SH_EEEEEE, 
                       __ZN7morphun9tokenizer6locale2ja11JaTokenizerC2ERKNS_4util7ULocaleEPKNSt3__13mapINS8_12basic_stringIDsNS8_11char_traitsIDsEENS8_9allocatorIDsEEEEPKDsNS8_4lessISF_EENSD_INS8_4pairIKSF_SH_EEEEEE, 
                       __ZN7morphun9tokenizer6locale2ko11KoTokenizer14HANGUL_LETTERSEv, 
                       __ZN7morphun9tokenizer6locale2ko11KoTokenizerC1ERKNS_4util7ULocaleEPKNSt3__13mapINS8_12basic_stringIDsNS8_11char_traitsIDsEENS8_9allocatorIDsEEEEPKDsNS8_4lessISF_EENSD_INS8_4pairIKSF_SH_EEEEEE, 
                       __ZN7morphun9tokenizer6locale2ko11KoTokenizerC2ERKNS_4util7ULocaleEPKNSt3__13mapINS8_12basic_stringIDsNS8_11char_traitsIDsEENS8_9allocatorIDsEEEEPKDsNS8_4lessISF_EENSD_INS8_4pairIKSF_SH_EEEEEE, 
                       __ZN7morphun9tokenizer6locale2nb11NbTokenizerC1ERKNS_4util7ULocaleEPKNSt3__13mapINS8_12basic_stringIDsNS8_11char_traitsIDsEENS8_9allocatorIDsEEEEPKDsNS8_4lessISF_EENSD_INS8_4pairIKSF_SH_EEEEEE, 
                       __ZN7morphun9tokenizer6locale2nb11NbTokenizerC2ERKNS_4util7ULocaleEPKNSt3__13mapINS8_12basic_stringIDsNS8_11char_traitsIDsEENS8_9allocatorIDsEEEEPKDsNS8_4lessISF_EENSD_INS8_4pairIKSF_SH_EEEEEE, 
                       __ZN7morphun9tokenizer6locale2nb27NbDictionaryTokenizerConfigC1Ev, 
                       __ZN7morphun9tokenizer6locale2nb27NbDictionaryTokenizerConfigC2Ev, 
                       __ZN7morphun9tokenizer6locale2nl11NlTokenizerC1ERKNS_4util7ULocaleEPKNSt3__13mapINS8_12basic_stringIDsNS8_11char_traitsIDsEENS8_9allocatorIDsEEEEPKDsNS8_4lessISF_EENSD_INS8_4pairIKSF_SH_EEEEEE, 
                       __ZN7morphun9tokenizer6locale2nl11NlTokenizerC2ERKNS_4util7ULocaleEPKNSt3__13mapINS8_12basic_stringIDsNS8_11char_traitsIDsEENS8_9allocatorIDsEEEEPKDsNS8_4lessISF_EENSD_INS8_4pairIKSF_SH_EEEEEE, 
                       __ZN7morphun9tokenizer6locale2nl27NlDictionaryTokenizerConfigC1Ev, 
                       __ZN7morphun9tokenizer6locale2nl27NlDictionaryTokenizerConfigC2Ev, 
                       __ZN7morphun9tokenizer6locale2sv11SvTokenizerC1ERKNS_4util7ULocaleEPKNSt3__13mapINS8_12basic_stringIDsNS8_11char_traitsIDsEENS8_9allocatorIDsEEEEPKDsNS8_4lessISF_EENSD_INS8_4pairIKSF_SH_EEEEEE, 
                       __ZN7morphun9tokenizer6locale2sv11SvTokenizerC2ERKNS_4util7ULocaleEPKNSt3__13mapINS8_12basic_stringIDsNS8_11char_traitsIDsEENS8_9allocatorIDsEEEEPKDsNS8_4lessISF_EENSD_INS8_4pairIKSF_SH_EEEEEE, 
                       __ZN7morphun9tokenizer6locale2sv27SvDictionaryTokenizerConfigC1Ev, 
                       __ZN7morphun9tokenizer6locale2sv27SvDictionaryTokenizerConfigC2Ev, 
                       __ZN7morphun9tokenizer6locale2th11ThTokenizer12THAI_LETTERSEv, 
                       __ZN7morphun9tokenizer6locale2th11ThTokenizerC1ERKNS_4util7ULocaleEPKNSt3__13mapINS8_12basic_stringIDsNS8_11char_traitsIDsEENS8_9allocatorIDsEEEEPKDsNS8_4lessISF_EENSD_INS8_4pairIKSF_SH_EEEEEE, 
                       __ZN7morphun9tokenizer6locale2th11ThTokenizerC2ERKNS_4util7ULocaleEPKNSt3__13mapINS8_12basic_stringIDsNS8_11char_traitsIDsEENS8_9allocatorIDsEEEEPKDsNS8_4lessISF_EENSD_INS8_4pairIKSF_SH_EEEEEE, 
                       __ZN7morphun9tokenizer6locale2tr11TrTokenizer15TURKISH_LETTERSEv, 
                       __ZN7morphun9tokenizer6locale2tr11TrTokenizerC1ERKNS_4util7ULocaleEPKNSt3__13mapINS8_12basic_stringIDsNS8_11char_traitsIDsEENS8_9allocatorIDsEEEEPKDsNS8_4lessISF_EENSD_INS8_4pairIKSF_SH_EEEEEE, 
                       __ZN7morphun9tokenizer6locale2tr11TrTokenizerC2ERKNS_4util7ULocaleEPKNSt3__13mapINS8_12basic_stringIDsNS8_11char_traitsIDsEENS8_9allocatorIDsEEEEPKDsNS8_4lessISF_EENSD_INS8_4pairIKSF_SH_EEEEEE, 
                       __ZN7morphun9tokenizer6locale2zh11ZhTokenizerC1ERKNS_4util7ULocaleEPKNSt3__13mapINS8_12basic_stringIDsNS8_11char_traitsIDsEENS8_9allocatorIDsEEEEPKDsNS8_4lessISF_EENSD_INS8_4pairIKSF_SH_EEEEEE, 
                       __ZN7morphun9tokenizer6locale2zh11ZhTokenizerC2ERKNS_4util7ULocaleEPKNSt3__13mapINS8_12basic_stringIDsNS8_11char_traitsIDsEENS8_9allocatorIDsEEEEPKDsNS8_4lessISF_EENSD_INS8_4pairIKSF_SH_EEEEEE, 
                       __ZN7morphun9tokenizer6locale2zh32ZhWordAndDelimiterTokenExtractor16getTokenizerTypeERKNS_4util7ULocaleE, 
                       __ZN7morphun9tokenizer6locale2zh32ZhWordAndDelimiterTokenExtractor7HAN_SETEv, 
                       __ZN7morphun9tokenizer6locale2zh32ZhWordAndDelimiterTokenExtractorC1ERKNS_4util7ULocaleEPKNSt3__13mapINS8_12basic_stringIDsNS8_11char_traitsIDsEENS8_9allocatorIDsEEEEPKDsNS8_4lessISF_EENSD_INS8_4pairIKSF_SH_EEEEEE, 
                       __ZN7morphun9tokenizer6locale2zh32ZhWordAndDelimiterTokenExtractorC2ERKNS_4util7ULocaleEPKNSt3__13mapINS8_12basic_stringIDsNS8_11char_traitsIDsEENS8_9allocatorIDsEEEEPKDsNS8_4lessISF_EENSD_INS8_4pairIKSF_SH_EEEEEE, 
                       __ZN7morphun9tokenizer9TokenUtil11appendTokenEPNS_5TokenES3_, 
                       __ZN7morphun9tokenizer9TokenUtil12prependTokenEPNS_5TokenES3_S3_, 
                       __ZN7morphun9tokenizer9TokenUtil13isSignificantERKNSt3__112basic_stringIDsNS2_11char_traitsIDsEENS2_9allocatorIDsEEEE, 
                       __ZN7morphun9tokenizer9TokenUtil13replaceTokensEPNS_5TokenES3_S3_S3_S3_, 
                       __ZN7morphun9tokenizer9TokenUtil17createClosedChunkEPNS_5TokenES3_, 
                       __ZN7morphun9tokenizer9TokenUtil20DELIMITER_CHARACTERSEv, 
                       __ZN7morphun9tokenizer9TokenUtil21containsAllDelimitorsERKNSt3__112basic_stringIDsNS2_11char_traitsIDsEENS2_9allocatorIDsEEEE, 
                       __ZN7morphun9tokenizer9TokenUtil22SIGNIFICANT_CHARACTERSEv, 
                       __ZN7morphun9tokenizer9TokenUtil22createClosedTokenChainEPNS_5TokenES3_, 
                       __ZN7morphun9tokenizer9TokenUtil22isDelimiterPriorToDashEPNS_5TokenE, 
                       __ZN7morphun9tokenizer9TokenUtil23PRIOR_TO_DASH_DELIMITEREv, 
                       __ZN7morphun9tokenizer9TokenUtil24previousSignificantTokenEiPNS_10TokenChainE, 
                       __ZNK10Dictionary14getTypeToValueEv, __ZNK10Dictionary14getValueToTypeEv, 
                       __ZNK10Dictionary15getWordsToTypesEv, __ZNK10Dictionary22getWordToPropertyValueEv, 
                       __ZNK10Dictionary8getTypesEv, __ZNK10Dictionary9getLocaleEv, 
                       __ZNK7morphun10TokenChain7getHeadEv, __ZNK7morphun10TokenChain7getTailEv, 
                       __ZNK7morphun10TokenChain8getTokenEi, __ZNK7morphun10TokenChain8hashCodeEv, 
                       __ZNK7morphun10TokenChain8toStringEv, __ZNK7morphun10TokenChaineqERKS0_, 
                       __ZNK7morphun10TokenChainneERKS0_, __ZNK7morphun10Token_Head11newInstanceEi, 
                       __ZNK7morphun10Token_Tail11newInstanceEi, __ZNK7morphun10Token_Word11newInstanceEi, 
                       __ZNK7morphun10dictionary16Inflector_Suffix12getFrequencyEv, 
                       __ZNK7morphun10dictionary16Inflector_Suffix5getIdEv, __ZNK7morphun10dictionary16Inflector_SuffixltERKS1_, 
                       __ZNK7morphun10dictionary18DictionaryMetaData11hasPropertyERKNSt3__112basic_stringIDsNS2_11char_traitsIDsEENS2_9allocatorIDsEEEESA_, 
                       __ZNK7morphun10dictionary18DictionaryMetaData11isKnownWordERKNSt3__112basic_stringIDsNS2_11char_traitsIDsEENS2_9allocatorIDsEEEE, 
                       __ZNK7morphun10dictionary18DictionaryMetaData13getKnownWordsEv, 
                       __ZNK7morphun10dictionary18DictionaryMetaData13getPropertiesERKNSt3__112basic_stringIDsNS2_11char_traitsIDsEENS2_9allocatorIDsEEEE, 
                       __ZNK7morphun10dictionary18DictionaryMetaData14hasAnyPropertyERKNSt3__112basic_stringIDsNS2_11char_traitsIDsEENS2_9allocatorIDsEEEEx, 
                       __ZNK7morphun10dictionary18DictionaryMetaData15getPropertyNameEx, 
                       __ZNK7morphun10dictionary18DictionaryMetaData16getPropertyNamesEx, 
                       __ZNK7morphun10dictionary18DictionaryMetaData16hasAllPropertiesERKNSt3__112basic_stringIDsNS2_11char_traitsIDsEENS2_9allocatorIDsEEEEx, 
                       __ZNK7morphun10dictionary18DictionaryMetaData17getPropertyValuesERKNSt3__112basic_stringIDsNS2_11char_traitsIDsEENS2_9allocatorIDsEEEESA_, 
                       __ZNK7morphun10dictionary18DictionaryMetaData19getBinaryPropertiesEPxRKNSt3__16vectorINS3_12basic_stringIDsNS3_11char_traitsIDsEENS3_9allocatorIDsEEEENS8_ISA_EEEE, 
                       __ZNK7morphun10dictionary18DictionaryMetaData19getBinaryPropertiesERKNSt3__16vectorINS2_12basic_stringIDsNS2_11char_traitsIDsEENS2_9allocatorIDsEEEENS7_IS9_EEEE, 
                       __ZNK7morphun10dictionary18DictionaryMetaData21getCombinedBinaryTypeEPxRKNSt3__112basic_stringIDsNS3_11char_traitsIDsEENS3_9allocatorIDsEEEE, 
                       __ZNK7morphun10dictionary20Inflector_Inflection12getGrammemesEv, 
                       __ZNK7morphun10dictionary20Inflector_Inflection7inflectERKNSt3__112basic_stringIDsNS2_11char_traitsIDsEENS2_9allocatorIDsEEEE, 
                       __ZNK7morphun10dictionary20Inflector_Inflection8endswithERKNSt3__112basic_stringIDsNS2_11char_traitsIDsEENS2_9allocatorIDsEEEESA_, 
                       __ZNK7morphun10dictionary20Inflector_Inflection9getSuffixEv, 
                       __ZNK7morphun10dictionary20Inflector_Inflection9lemmatizeERKNSt3__112basic_stringIDsNS2_11char_traitsIDsEENS2_9allocatorIDsEEEE, 
                       __ZNK7morphun10dictionary27Inflector_InflectionPattern12getFrequencyEv, 
                       __ZNK7morphun10dictionary27Inflector_InflectionPattern13getIdentifierEv, 
                       __ZNK7morphun10dictionary27Inflector_InflectionPattern15getInflectCountEv, 
                       __ZNK7morphun10dictionary27Inflector_InflectionPattern16getLemmaSuffixesEv, 
                       __ZNK7morphun10dictionary27Inflector_InflectionPattern16getPartsOfSpeechEv, 
                       __ZNK7morphun10dictionary27Inflector_InflectionPattern9constrainERKNSt3__16vectorINS2_12basic_stringIDsNS2_11char_traitsIDsEENS2_9allocatorIDsEEEENS7_IS9_EEEE, 
                       __ZNK7morphun10dictionary27Inflector_InflectionPattern9constrainERKNSt3__16vectorINS2_12basic_stringIDsNS2_11char_traitsIDsEENS2_9allocatorIDsEEEENS7_IS9_EEEEb, 
                       __ZNK7morphun10dictionary27Inflector_InflectionPatternltERKS1_, 
                       __ZNK7morphun10dictionary34DictionaryMetaData_EmptyDictionary11getAllWordsEv, 
                       __ZNK7morphun10dictionary34DictionaryMetaData_EmptyDictionary11getWordTypeEPKDs, 
                       __ZNK7morphun10dictionary34DictionaryMetaData_EmptyDictionary14getTypeOfValueEx, 
                       __ZNK7morphun10dictionary34DictionaryMetaData_EmptyDictionary14getValueOfTypeEPKDs, 
                       __ZNK7morphun10dictionary34DictionaryMetaData_EmptyDictionary21getWordPropertyValuesEPKDsS3_, 
                       __ZNK7morphun10dictionary34DictionaryMetaData_EmptyDictionary5writeERKNSt3__112basic_stringIDsNS2_11char_traitsIDsEENS2_9allocatorIDsEEEE, 
                       __ZNK7morphun10dictionary34DictionaryMetaData_EmptyDictionary8getTypesEx, 
                       __ZNK7morphun10dictionary34DictionaryMetaData_EmptyDictionary9getLocaleEv, 
                       __ZNK7morphun10dictionary36DictionaryMetaData_MMappedDictionary11getAllWordsEv, 
                       __ZNK7morphun10dictionary36DictionaryMetaData_MMappedDictionary11getWordTypeEPKDs, 
                       __ZNK7morphun10dictionary36DictionaryMetaData_MMappedDictionary14getTypeOfValueEx, 
                       __ZNK7morphun10dictionary36DictionaryMetaData_MMappedDictionary14getValueOfTypeEPKDs, 
                       __ZNK7morphun10dictionary36DictionaryMetaData_MMappedDictionary21getWordPropertyValuesEPKDsS3_, 
                       __ZNK7morphun10dictionary36DictionaryMetaData_MMappedDictionary5writeERKNSt3__112basic_stringIDsNS2_11char_traitsIDsEENS2_9allocatorIDsEEEE, 
                       __ZNK7morphun10dictionary36DictionaryMetaData_MMappedDictionary8getTypesEx, 
                       __ZNK7morphun10dictionary36DictionaryMetaData_MMappedDictionary9getLocaleEv, 
                       __ZNK7morphun10dictionary8metadata16CharsetConverter6decodeEPKci, 
                       __ZNK7morphun10dictionary8metadata16CharsetConverter6encodeEPKDs, 
                       __ZNK7morphun10dictionary8metadata16PropertyValueMap4findEPKDsS4_, 
                       __ZNK7morphun10dictionary9Inflector21getInflectionPatternsERKNSt3__112basic_stringIDsNS2_11char_traitsIDsEENS2_9allocatorIDsEEEERKNS2_3setIS8_NS2_4lessIS8_EENS6_IS8_EEEE, 
                       __ZNK7morphun10dictionary9Inflector21getInflectionPatternsERKNSt3__13setINS2_12basic_stringIDsNS2_11char_traitsIDsEENS2_9allocatorIDsEEEENS2_4lessIS9_EENS7_IS9_EEEE, 
                       __ZNK7morphun10dictionary9Inflector26getInflectionPatternByNameERKNSt3__112basic_stringIDsNS2_11char_traitsIDsEENS2_9allocatorIDsEEEE, 
                       __ZNK7morphun10dictionary9Inflector28getInflectionPatternBySuffixERKNSt3__112basic_stringIDsNS2_11char_traitsIDsEENS2_9allocatorIDsEEEE, 
                       __ZNK7morphun11Token_Delim11newInstanceEi, __ZNK7morphun11Token_Group11newInstanceEi, 
                       __ZNK7morphun11Token_Group14cloneSubTokensEi, __ZNK7morphun14Token_Explicit11newInstanceEi, 
                       __ZNK7morphun14Token_Explicit8getLabelEv, __ZNK7morphun15transliteration14Transliterator11getToLocaleEv, 
                       __ZNK7morphun15transliteration14Transliterator13getFromLocaleEv, 
                       __ZNK7morphun15transliteration23ICUScriptTransliterator13transliterateERKNSt3__112basic_stringIDsNS2_11char_traitsIDsEENS2_9allocatorIDsEEEEPS8_, 
                       __ZNK7morphun15transliteration28ToRomanizationTransliterator13transliterateERKNSt3__112basic_stringIDsNS2_11char_traitsIDsEENS2_9allocatorIDsEEEEPS8_, 
                       __ZNK7morphun20Token_OverSizedToken11newInstanceEi, __ZNK7morphun4lang8features23LanguageGrammarFeatures11getFeaturesEv, 
                       __ZNK7morphun4lang8features23LanguageGrammarFeatures11getLanguageEv, 
                       __ZNK7morphun4lang8features23LanguageGrammarFeatures13getCategoriesEv, 
                       __ZNK7morphun4lang8features31LanguageGrammarFeatures_Feature14getConstraintsEv, 
                       __ZNK7morphun4lang8features31LanguageGrammarFeatures_Feature8getValueEv, 
                       __ZNK7morphun4lang8features39LanguageGrammarFeatures_GrammarCategory14isUniqueValuesEv, 
                       __ZNK7morphun4lang8features39LanguageGrammarFeatures_GrammarCategory7getNameEv, 
                       __ZNK7morphun4lang8features39LanguageGrammarFeatures_GrammarCategory9compareToERKS2_, 
                       __ZNK7morphun4lang8features39LanguageGrammarFeatures_GrammarCategory9getValuesEv, 
                       __ZNK7morphun4lang8features39LanguageGrammarFeatures_GrammarCategoryltERKS2_, 
                       __ZNK7morphun4lang8features39LanguageGrammarFeatures_GrammarFeatures7getNameEv, 
                       __ZNK7morphun4lang8features39LanguageGrammarFeatures_GrammarFeatures9compareToERKS2_, 
                       __ZNK7morphun4lang8features39LanguageGrammarFeatures_GrammarFeatures9getValuesEv, 
                       __ZNK7morphun4lang8features39LanguageGrammarFeatures_GrammarFeaturesltERKS2_, 
                       __ZNK7morphun4util19BinaryStringCompareclEPKDsS3_, __ZNK7morphun4util23DelimitedStringIteratoreqERKS1_, 
                       __ZNK7morphun4util23DelimitedStringIteratorneERKS1_, __ZNK7morphun4util7ULocale11getFallbackEv, 
                       __ZNK7morphun4util7ULocale8hashCodeEv, __ZNK7morphun4util7ULocale8toStringEv, 
                       __ZNK7morphun5Chunk19getNormalizedStringEb, __ZNK7morphun5Chunk6getEndEv, 
                       __ZNK7morphun5Chunk7getSizeEv, __ZNK7morphun5Chunk8getStartEv, 
                       __ZNK7morphun5Chunk8toStringEv, __ZNK7morphun5Chunk9getStringEv, 
                       __ZNK7morphun5Token10getEndCharEv, __ZNK7morphun5Token11getPreviousEv, 
                       __ZNK7morphun5Token11isLineStartEv, __ZNK7morphun5Token12getStartCharEv, 
                       __ZNK7morphun5Token12isWhitespaceEv, __ZNK7morphun5Token13getCleanValueEv, 
                       __ZNK7morphun5Token13isSignificantEv, __ZNK7morphun5Token19calculateWhiteSpaceEv, 
                       __ZNK7morphun5Token6isHeadEv, __ZNK7morphun5Token6isTailEv, 
                       __ZNK7morphun5Token7getNextEv, __ZNK7morphun5Token8getValueEv, 
                       __ZNK7morphun5Token8hashCodeEv, __ZNK7morphun5Token8toStringEv, 
                       __ZNK7morphun5Token9getLengthEv, __ZNK7morphun5Token9isLineEndEv, 
                       __ZNK7morphun5TokeneqERKS0_, __ZNK7morphun5TokenneERKS0_, 
                       __ZNK7morphun6Object8toStringEv, __ZNK7morphun8analysis15tokenattributes12LemmaMappingeqERKS2_, 
                       __ZNK7morphun8analysis15tokenattributes17TypeAttributeImpl11reflectWithEPNS0_4util18AttributeReflectorE, 
                       __ZNK7morphun8analysis15tokenattributes17TypeAttributeImpl5cloneEv, 
                       __ZNK7morphun8analysis15tokenattributes17TypeAttributeImpl6copyToEPNS0_4util13AttributeImplE, 
                       __ZNK7morphun8analysis15tokenattributes17TypeAttributeImpl6equalsERKNS0_4util9AttributeE, 
                       __ZNK7morphun8analysis15tokenattributes17TypeAttributeImpl8hashCodeEv, 
                       __ZNK7morphun8analysis15tokenattributes18FlagsAttributeImpl11reflectWithEPNS0_4util18AttributeReflectorE, 
                       __ZNK7morphun8analysis15tokenattributes18FlagsAttributeImpl5cloneEv, 
                       __ZNK7morphun8analysis15tokenattributes18FlagsAttributeImpl6copyToEPNS0_4util13AttributeImplE, 
                       __ZNK7morphun8analysis15tokenattributes18FlagsAttributeImpl6equalsERKNS0_4util9AttributeE, 
                       __ZNK7morphun8analysis15tokenattributes18FlagsAttributeImpl8hashCodeEv, 
                       __ZNK7morphun8analysis15tokenattributes19OffsetAttributeImpl11reflectWithEPNS0_4util18AttributeReflectorE, 
                       __ZNK7morphun8analysis15tokenattributes19OffsetAttributeImpl5cloneEv, 
                       __ZNK7morphun8analysis15tokenattributes19OffsetAttributeImpl6copyToEPNS0_4util13AttributeImplE, 
                       __ZNK7morphun8analysis15tokenattributes19OffsetAttributeImpl6equalsERKNS0_4util9AttributeE, 
                       __ZNK7morphun8analysis15tokenattributes19OffsetAttributeImpl8hashCodeEv, 
                       __ZNK7morphun8analysis15tokenattributes20KeywordAttributeImpl11reflectWithEPNS0_4util18AttributeReflectorE, 
                       __ZNK7morphun8analysis15tokenattributes20KeywordAttributeImpl5cloneEv, 
                       __ZNK7morphun8analysis15tokenattributes20KeywordAttributeImpl6copyToEPNS0_4util13AttributeImplE, 
                       __ZNK7morphun8analysis15tokenattributes20KeywordAttributeImpl6equalsERKNS0_4util9AttributeE, 
                       __ZNK7morphun8analysis15tokenattributes20KeywordAttributeImpl8hashCodeEv, 
                       __ZNK7morphun8analysis15tokenattributes21CharTermAttributeImpl11reflectWithEPNS0_4util18AttributeReflectorE, 
                       __ZNK7morphun8analysis15tokenattributes21CharTermAttributeImpl5cloneEv, 
                       __ZNK7morphun8analysis15tokenattributes21CharTermAttributeImpl6copyToEPNS0_4util13AttributeImplE, 
                       __ZNK7morphun8analysis15tokenattributes21CharTermAttributeImpl6equalsERKNS0_4util9AttributeE, 
                       __ZNK7morphun8analysis15tokenattributes21CharTermAttributeImpl8hashCodeEv, 
                       __ZNK7morphun8analysis15tokenattributes21CharTermAttributeImpl8toStringEv, 
                       __ZNK7morphun8analysis15tokenattributes21GrammemeAttributeImpl11reflectWithEPNS0_4util18AttributeReflectorE, 
                       __ZNK7morphun8analysis15tokenattributes21GrammemeAttributeImpl5cloneEv, 
                       __ZNK7morphun8analysis15tokenattributes21GrammemeAttributeImpl6copyToEPNS0_4util13AttributeImplE, 
                       __ZNK7morphun8analysis15tokenattributes21GrammemeAttributeImpl6equalsERKNS0_4util9AttributeE, 
                       __ZNK7morphun8analysis15tokenattributes21GrammemeAttributeImpl8hashCodeEv, 
                       __ZNK7morphun8analysis15tokenattributes24PackedTokenAttributeImpl11reflectWithEPNS0_4util18AttributeReflectorE, 
                       __ZNK7morphun8analysis15tokenattributes24PackedTokenAttributeImpl5cloneEv, 
                       __ZNK7morphun8analysis15tokenattributes24PackedTokenAttributeImpl6copyToEPNS0_4util13AttributeImplE, 
                       __ZNK7morphun8analysis15tokenattributes24PackedTokenAttributeImpl6equalsERKNS0_4util9AttributeE, 
                       __ZNK7morphun8analysis15tokenattributes24PackedTokenAttributeImpl8hashCodeEv, 
                       __ZNK7morphun8analysis15tokenattributes25LemmaMappingAttributeImpl11reflectWithEPNS0_4util18AttributeReflectorE, 
                       __ZNK7morphun8analysis15tokenattributes25LemmaMappingAttributeImpl5cloneEv, 
                       __ZNK7morphun8analysis15tokenattributes25LemmaMappingAttributeImpl6copyToEPNS0_4util13AttributeImplE, 
                       __ZNK7morphun8analysis15tokenattributes25LemmaMappingAttributeImpl6equalsERKNS0_4util9AttributeE, 
                       __ZNK7morphun8analysis15tokenattributes25LemmaMappingAttributeImpl8hashCodeEv, 
                       __ZNK7morphun8analysis15tokenattributes27PositionLengthAttributeImpl11reflectWithEPNS0_4util18AttributeReflectorE, 
                       __ZNK7morphun8analysis15tokenattributes27PositionLengthAttributeImpl5cloneEv, 
                       __ZNK7morphun8analysis15tokenattributes27PositionLengthAttributeImpl6copyToEPNS0_4util13AttributeImplE, 
                       __ZNK7morphun8analysis15tokenattributes27PositionLengthAttributeImpl6equalsERKNS0_4util9AttributeE, 
                       __ZNK7morphun8analysis15tokenattributes27PositionLengthAttributeImpl8hashCodeEv, 
                       __ZNK7morphun8analysis15tokenattributes30PositionIncrementAttributeImpl11reflectWithEPNS0_4util18AttributeReflectorE, 
                       __ZNK7morphun8analysis15tokenattributes30PositionIncrementAttributeImpl5cloneEv, 
                       __ZNK7morphun8analysis15tokenattributes30PositionIncrementAttributeImpl6copyToEPNS0_4util13AttributeImplE, 
                       __ZNK7morphun8analysis15tokenattributes30PositionIncrementAttributeImpl6equalsERKNS0_4util9AttributeE, 
                       __ZNK7morphun8analysis15tokenattributes30PositionIncrementAttributeImpl8hashCodeEv, 
                       __ZNK7morphun8analysis22Analyzer_ReuseStrategy14getStoredValueEPKNS0_8AnalyzerE, 
                       __ZNK7morphun8analysis22Analyzer_ReuseStrategy14setStoredValueEPNS0_8AnalyzerEPNS0_30Analyzer_TokenStreamComponentsE, 
                       __ZNK7morphun8analysis22DefaultAnalyzerFactory14createAnalyzerERKNS_4util7ULocaleE, 
                       __ZNK7morphun8analysis28Analyzer_GlobalReuseStrategy21getReusableComponentsEPKNS0_8AnalyzerE, 
                       __ZNK7morphun8analysis28Analyzer_GlobalReuseStrategy21setReusableComponentsEPNS0_8AnalyzerEPNS0_30Analyzer_TokenStreamComponentsE, 
                       __ZNK7morphun8analysis2pt19BrazilianLemmatizer8getLemmaERKNSt3__112basic_stringIDsNS3_11char_traitsIDsEENS3_9allocatorIDsEEEERKNS3_6vectorIS9_NS7_IS9_EEEESG_, 
                       __ZNK7morphun8analysis4util13AttributeImpl15reflectAsStringEb, 
                       __ZNK7morphun8analysis4util15AttributeSource11reflectWithEPNS1_18AttributeReflectorE, 
                       __ZNK7morphun8analysis4util15AttributeSource15reflectAsStringEb, 
                       __ZNK7morphun8analysis4util15AttributeSource6copyToEPS2_, 
                       __ZNK7morphun8analysis4util15AttributeSource8toStringEv, __ZNK7morphun8analysis4util15AttributeSourceeqERKS2_, 
                       __ZNK7morphun8analysis4util16AttributeFactory23createAttributeInstanceERKSt9type_info, 
                       __ZNK7morphun8analysis4util21AttributeSource_State5cloneEv, 
                       __ZNK7morphun8analysis4util53AttributeFactory_StaticImplementationAttributeFactory23createAttributeInstanceERKSt9type_info, 
                       __ZNK7morphun8analysis9tokenizer22MorphologicalWordToken11newInstanceEi, 
                       __ZNK7morphun8analysis9tokenizer22MorphologicalWordToken12getGrammemesEv, 
                       __ZNK7morphun8analysis9tokenizer22MorphologicalWordToken16getLemmaMappingsEv, 
                       __ZNK7morphun9Tokenizer11cloneObjectEv, __ZNK7morphun9exception24MissingResourceException12getClassNameEv, 
                       __ZNK7morphun9exception24MissingResourceException6getKeyEv, 
                       __ZNK7morphun9exception9Throwable10getMessageEv, __ZNK7morphun9exception9Throwable4whatEv, 
                       __ZNK7morphun9tokenizer10dictionary7Segment10isNoAtomicEv, 
                       __ZNK7morphun9tokenizer10dictionary7Segment11getCompoundEv, 
                       __ZNK7morphun9tokenizer10dictionary7Segment12isNoCompoundEv, 
                       __ZNK7morphun9tokenizer10dictionary7Segment13getRootOffsetEv, 
                       __ZNK7morphun9tokenizer10dictionary7Segment14getCredibilityEv, 
                       __ZNK7morphun9tokenizer10dictionary7Segment14getFreqProductEv, 
                       __ZNK7morphun9tokenizer10dictionary7Segment16getLengthProductEv, 
                       __ZNK7morphun9tokenizer10dictionary7Segment17getCompoundLengthEv, 
                       __ZNK7morphun9tokenizer10dictionary7Segment22getGeometricMeanLengthEv, 
                       __ZNK7morphun9tokenizer10dictionary7Segment23getArithmeticMeanLengthEv, 
                       __ZNK7morphun9tokenizer10dictionary7Segment7getFreqEv, __ZNK7morphun9tokenizer10dictionary7Segment7getFugeEv, 
                       __ZNK7morphun9tokenizer10dictionary7Segment7getRootEv, __ZNK7morphun9tokenizer10dictionary7Segment8getDepthEv, 
                       __ZNK7morphun9tokenizer10dictionary7Segment8getScoreEv, __ZNK7morphun9tokenizer10dictionary7Segment8isNoHeadEv, 
                       __ZNK7morphun9tokenizer10dictionary7Segment9getLengthEv, __ZNK7morphun9tokenizer10dictionary7Segment9getOffsetEv, 
                       __ZNK7morphun9tokenizer10dictionary7Segment9getParentEv, __ZNK7morphun9tokenizer10dictionary7Segment9getSplitsEv, 
                       __ZNK7morphun9tokenizer10dictionary7Segment9getStringEv, __ZNK7morphun9tokenizer10dictionary7Segment9isEnglishEv, 
                       __ZNK7morphun9tokenizer10dictionary7Segment9isSegmentEv, __ZNK7morphun9tokenizer10dictionary7SegmenteqERKS2_, 
                       __ZNK7morphun9tokenizer13NumberCleaver12modifyTokensEPNS_9TokenizerERKNSt3__112basic_stringIDsNS4_11char_traitsIDsEENS4_9allocatorIDsEEEEPNS_5TokenE, 
                       __ZNK7morphun9tokenizer17TokenExtractorICU11getBoundaryERKNSt3__112basic_stringIDsNS2_11char_traitsIDsEENS2_9allocatorIDsEEEEPNS2_6vectorIiNS6_IiEEEE, 
                       __ZNK7morphun9tokenizer18GroupTokenModifier12modifyTokensEPNS_9TokenizerERKNSt3__112basic_stringIDsNS4_11char_traitsIDsEENS4_9allocatorIDsEEEEPNS_5TokenE, 
                       __ZNK7morphun9tokenizer19TokenExtractorMecab11getBoundaryERKNSt3__112basic_stringIDsNS2_11char_traitsIDsEENS2_9allocatorIDsEEEEPNS2_6vectorIiNS6_IiEEEE, 
                       __ZNK7morphun9tokenizer21ExplicitTokenModifier12modifyTokensEPNS_9TokenizerERKNSt3__112basic_stringIDsNS4_11char_traitsIDsEENS4_9allocatorIDsEEEEPNS_5TokenE, 
                       __ZNK7morphun9tokenizer22OversizedTokenModifier12modifyTokensEPNS_9TokenizerERKNSt3__112basic_stringIDsNS4_11char_traitsIDsEENS4_9allocatorIDsEEEEPNS_5TokenE, 
                       __ZNK7morphun9tokenizer28TokenExtractorCoreFoundation11getBoundaryERKNSt3__112basic_stringIDsNS2_11char_traitsIDsEENS2_9allocatorIDsEEEEPNS2_6vectorIiNS6_IiEEEE, 
                       __ZNK7morphun9tokenizer30WordAndDelimiterTokenExtractor12modifyTokensERKNSt3__112basic_stringIDsNS2_11char_traitsIDsEENS2_9allocatorIDsEEEEPNS_5TokenE, 
                       __ZNK7morphun9tokenizer30WordAndDelimiterTokenExtractor13addBoundariesERKNSt3__112basic_stringIDsNS2_11char_traitsIDsEENS2_9allocatorIDsEEEEPNS2_6vectorIiNS6_IiEEEE, 
                       __ZNK7morphun9tokenizer30WordAndDelimiterTokenExtractor13extractTokensERKNSt3__112basic_stringIDsNS2_11char_traitsIDsEENS2_9allocatorIDsEEEEi, 
                       __ZNK7morphun9tokenizer30WordAndDelimiterTokenExtractor23replaceNonnativeWithICUERKN7icu4cxx10UnicodeSetERKNSt3__112basic_stringIDsNS6_11char_traitsIDsEENS6_9allocatorIDsEEEEPNS6_6vectorIiNSA_IiEEEE, 
                       __ZNK7morphun9tokenizer30WordAndDelimiterTokenExtractor26getCachedWordBreakIteratorEv, 
                       __ZNK7morphun9tokenizer30WordAndDelimiterTokenExtractor9getLocaleEv, 
                       __ZNK7morphun9tokenizer37SemiticWordAndDelimiterTokenExtractor11getBoundaryERKNSt3__112basic_stringIDsNS2_11char_traitsIDsEENS2_9allocatorIDsEEEEPNS2_6vectorIiNS6_IiEEEE, 
                       __ZNK7morphun9tokenizer37SemiticWordAndDelimiterTokenExtractor11isKnownWordERKNSt3__112basic_stringIDsNS2_11char_traitsIDsEENS2_9allocatorIDsEEEE, 
                       __ZNK7morphun9tokenizer37SemiticWordAndDelimiterTokenExtractor12modifyTokensERKNSt3__112basic_stringIDsNS2_11char_traitsIDsEENS2_9allocatorIDsEEEEPNS_5TokenE, 
                       __ZNK7morphun9tokenizer37SemiticWordAndDelimiterTokenExtractor14decompoundWordERKNSt3__112basic_stringIDsNS2_11char_traitsIDsEENS2_9allocatorIDsEEEEPNS2_6vectorIiNS6_IiEEEEii, 
                       __ZNK7morphun9tokenizer38GermanicWordAndDelimiterTokenExtractor11getBoundaryERKNSt3__112basic_stringIDsNS2_11char_traitsIDsEENS2_9allocatorIDsEEEEPNS2_6vectorIiNS6_IiEEEE, 
                       __ZNK7morphun9tokenizer4trie15DoubleArrayTrie6lookupERKNSt3__112basic_stringIDsNS3_11char_traitsIDsEENS3_9allocatorIDsEEEE, 
                       __ZNK7morphun9tokenizer6locale2de32DeWordAndDelimiterTokenExtractor11getBoundaryERKNSt3__112basic_stringIDsNS4_11char_traitsIDsEENS4_9allocatorIDsEEEEPNS4_6vectorIiNS8_IiEEEE, 
                       __ZNK7morphun9tokenizer6locale2de32DeWordAndDelimiterTokenExtractor12modifyTokensERKNSt3__112basic_stringIDsNS4_11char_traitsIDsEENS4_9allocatorIDsEEEEPNS_5TokenE, 
                       __ZNK7morphun9tokenizer6locale2fi10FiCompound10getLogProbEv, 
                       __ZNK7morphun9tokenizer6locale2fi10FiCompound8getLabelEv, 
                       __ZNK7morphun9tokenizer6locale2fi13FiSuffixSplit10getLogProbEv, 
                       __ZNK7morphun9tokenizer6locale2fi13FiSuffixSplit10getSegmentEv, 
                       __ZNK7morphun9tokenizer6locale2fi13FiSuffixSplit5foundEv, 
                       __ZNK7morphun9tokenizer6locale2fi13FiSuffixSplit6getEndEv, 
                       __ZNK7morphun9tokenizer6locale2fi13FiSuffixSplit8getStartEv, 
                       __ZNK7morphun9tokenizer6locale2fi32FiWordAndDelimiterTokenExtractor11getBoundaryERKNSt3__112basic_stringIDsNS4_11char_traitsIDsEENS4_9allocatorIDsEEEEPNS4_6vectorIiNS8_IiEEEE, 
                       __ZNK7morphun9tokenizer6locale2fi9FiSegment10getLogProbEv, 
                       __ZNK7morphun9tokenizer6locale2fi9FiSegment5foundEv, __ZNK7morphun9tokenizer6locale2fi9FiSegment6getEndEv, 
                       __ZNK7morphun9tokenizer6locale2fi9FiSegment8getLabelEv, __ZNK7morphun9tokenizer6locale2fi9FiSegment8getStartEv, 
                       __ZNK7morphun9tokenizer6locale2fi9FiSegment9getLengthEv, __ZNK7morphun9tokenizer6locale2zh32ZhWordAndDelimiterTokenExtractor11getBoundaryERKNSt3__112basic_stringIDsNS4_11char_traitsIDsEENS4_9allocatorIDsEEEEPNS4_6vectorIiNS8_IiEEEE, 
                       __ZTCN7morphun10TokenChainE0_NS_5ChunkE, __ZTCN7morphun10Token_HeadE0_NS_11Token_DelimE, 
                       __ZTCN7morphun10Token_HeadE0_NS_5TokenE, __ZTCN7morphun10Token_HeadE0_NS_9CharRangeE, 
                       __ZTCN7morphun10Token_TailE0_NS_11Token_DelimE, __ZTCN7morphun10Token_TailE0_NS_5TokenE, 
                       __ZTCN7morphun10Token_TailE0_NS_9CharRangeE, __ZTCN7morphun10Token_WordE0_NS_5TokenE, 
                       __ZTCN7morphun10Token_WordE0_NS_9CharRangeE, __ZTCN7morphun10dictionary34DictionaryMetaData_EmptyDictionaryE0_NS0_29DictionaryMetaData_DictionaryE, 
                       __ZTCN7morphun10dictionary36DictionaryMetaData_MMappedDictionaryE0_NS0_29DictionaryMetaData_DictionaryE, 
                       __ZTCN7morphun11Token_DelimE0_NS_5TokenE, __ZTCN7morphun11Token_DelimE0_NS_9CharRangeE, 
                       __ZTCN7morphun11Token_GroupE0_NS_5TokenE, __ZTCN7morphun11Token_GroupE0_NS_9CharRangeE, 
                       __ZTCN7morphun14Token_ExplicitE0_NS_11Token_GroupE, __ZTCN7morphun14Token_ExplicitE0_NS_5TokenE, 
                       __ZTCN7morphun14Token_ExplicitE0_NS_9CharRangeE, __ZTCN7morphun15transliteration23ICUScriptTransliteratorE0_NS0_14TransliteratorE, 
                       __ZTCN7morphun15transliteration28ToRomanizationTransliteratorE0_NS0_14TransliteratorE, 
                       __ZTCN7morphun20Token_OverSizedTokenE0_NS_5TokenE, __ZTCN7morphun20Token_OverSizedTokenE0_NS_9CharRangeE, 
                       __ZTCN7morphun5TokenE0_NS_9CharRangeE, __ZTCN7morphun8analysis10ArAnalyzerE0_NS0_20ConfigurableAnalyzerE, 
                       __ZTCN7morphun8analysis10ArAnalyzerE0_NS0_4util20StopwordAnalyzerBaseE, 
                       __ZTCN7morphun8analysis10ArAnalyzerE0_NS0_8AnalyzerE, __ZTCN7morphun8analysis10DeAnalyzerE0_NS0_20ConfigurableAnalyzerE, 
                       __ZTCN7morphun8analysis10DeAnalyzerE0_NS0_4util20StopwordAnalyzerBaseE, 
                       __ZTCN7morphun8analysis10DeAnalyzerE0_NS0_8AnalyzerE, __ZTCN7morphun8analysis10EnAnalyzerE0_NS0_20ConfigurableAnalyzerE, 
                       __ZTCN7morphun8analysis10EnAnalyzerE0_NS0_4util20StopwordAnalyzerBaseE, 
                       __ZTCN7morphun8analysis10EnAnalyzerE0_NS0_8AnalyzerE, __ZTCN7morphun8analysis10EsAnalyzerE0_NS0_20ConfigurableAnalyzerE, 
                       __ZTCN7morphun8analysis10EsAnalyzerE0_NS0_4util20StopwordAnalyzerBaseE, 
                       __ZTCN7morphun8analysis10EsAnalyzerE0_NS0_8AnalyzerE, __ZTCN7morphun8analysis10FrAnalyzerE0_NS0_20ConfigurableAnalyzerE, 
                       __ZTCN7morphun8analysis10FrAnalyzerE0_NS0_4util20StopwordAnalyzerBaseE, 
                       __ZTCN7morphun8analysis10FrAnalyzerE0_NS0_8AnalyzerE, __ZTCN7morphun8analysis10HeAnalyzerE0_NS0_20ConfigurableAnalyzerE, 
                       __ZTCN7morphun8analysis10HeAnalyzerE0_NS0_4util20StopwordAnalyzerBaseE, 
                       __ZTCN7morphun8analysis10HeAnalyzerE0_NS0_8AnalyzerE, __ZTCN7morphun8analysis10ItAnalyzerE0_NS0_20ConfigurableAnalyzerE, 
                       __ZTCN7morphun8analysis10ItAnalyzerE0_NS0_4util20StopwordAnalyzerBaseE, 
                       __ZTCN7morphun8analysis10ItAnalyzerE0_NS0_8AnalyzerE, __ZTCN7morphun8analysis10JaAnalyzerE0_NS0_20ConfigurableAnalyzerE, 
                       __ZTCN7morphun8analysis10JaAnalyzerE0_NS0_4util20StopwordAnalyzerBaseE, 
                       __ZTCN7morphun8analysis10JaAnalyzerE0_NS0_8AnalyzerE, __ZTCN7morphun8analysis10NlAnalyzerE0_NS0_20ConfigurableAnalyzerE, 
                       __ZTCN7morphun8analysis10NlAnalyzerE0_NS0_4util20StopwordAnalyzerBaseE, 
                       __ZTCN7morphun8analysis10NlAnalyzerE0_NS0_8AnalyzerE, __ZTCN7morphun8analysis10TrAnalyzerE0_NS0_20ConfigurableAnalyzerE, 
                       __ZTCN7morphun8analysis10TrAnalyzerE0_NS0_4util20StopwordAnalyzerBaseE, 
                       __ZTCN7morphun8analysis10TrAnalyzerE0_NS0_8AnalyzerE, __ZTCN7morphun8analysis10ZhAnalyzerE0_NS0_20ConfigurableAnalyzerE, 
                       __ZTCN7morphun8analysis10ZhAnalyzerE0_NS0_4util20StopwordAnalyzerBaseE, 
                       __ZTCN7morphun8analysis10ZhAnalyzerE0_NS0_8AnalyzerE, __ZTCN7morphun8analysis11TokenFilterE0_NS0_11TokenStreamE, 
                       __ZTCN7morphun8analysis11TokenFilterE0_NS0_4util15AttributeSourceE, 
                       __ZTCN7morphun8analysis11TokenStreamE0_NS0_4util15AttributeSourceE, 
                       __ZTCN7morphun8analysis12PtBrAnalyzerE0_NS0_20ConfigurableAnalyzerE, 
                       __ZTCN7morphun8analysis12PtBrAnalyzerE0_NS0_4util20StopwordAnalyzerBaseE, 
                       __ZTCN7morphun8analysis12PtBrAnalyzerE0_NS0_8AnalyzerE, __ZTCN7morphun8analysis15AnalyzerWrapperE0_NS0_8AnalyzerE, 
                       __ZTCN7morphun8analysis15tokenattributes17TypeAttributeImplE0_NS0_4util13AttributeImplE, 
                       __ZTCN7morphun8analysis15tokenattributes17TypeAttributeImplE0_NS0_4util9AttributeE, 
                       __ZTCN7morphun8analysis15tokenattributes17TypeAttributeImplE0_NS_4util9CloneableE, 
                       __ZTCN7morphun8analysis15tokenattributes17TypeAttributeImplE32_NS1_13TypeAttributeE, 
                       __ZTCN7morphun8analysis15tokenattributes18FlagsAttributeImplE0_NS0_4util13AttributeImplE, 
                       __ZTCN7morphun8analysis15tokenattributes18FlagsAttributeImplE0_NS0_4util9AttributeE, 
                       __ZTCN7morphun8analysis15tokenattributes18FlagsAttributeImplE0_NS_4util9CloneableE, 
                       __ZTCN7morphun8analysis15tokenattributes18FlagsAttributeImplE16_NS1_14FlagsAttributeE, 
                       __ZTCN7morphun8analysis15tokenattributes19OffsetAttributeImplE0_NS0_4util13AttributeImplE, 
                       __ZTCN7morphun8analysis15tokenattributes19OffsetAttributeImplE0_NS0_4util9AttributeE, 
                       __ZTCN7morphun8analysis15tokenattributes19OffsetAttributeImplE0_NS_4util9CloneableE, 
                       __ZTCN7morphun8analysis15tokenattributes19OffsetAttributeImplE16_NS1_15OffsetAttributeE, 
                       __ZTCN7morphun8analysis15tokenattributes20KeywordAttributeImplE0_NS0_4util13AttributeImplE, 
                       __ZTCN7morphun8analysis15tokenattributes20KeywordAttributeImplE0_NS0_4util9AttributeE, 
                       __ZTCN7morphun8analysis15tokenattributes20KeywordAttributeImplE0_NS_4util9CloneableE, 
                       __ZTCN7morphun8analysis15tokenattributes20KeywordAttributeImplE8_NS1_16KeywordAttributeE, 
                       __ZTCN7morphun8analysis15tokenattributes21CharTermAttributeImplE0_NS0_4util13AttributeImplE, 
                       __ZTCN7morphun8analysis15tokenattributes21CharTermAttributeImplE0_NS0_4util9AttributeE, 
                       __ZTCN7morphun8analysis15tokenattributes21CharTermAttributeImplE0_NS_4util9CloneableE, 
                       __ZTCN7morphun8analysis15tokenattributes21CharTermAttributeImplE8_NS1_17CharTermAttributeE, 
                       __ZTCN7morphun8analysis15tokenattributes21GrammemeAttributeImplE0_NS0_4util13AttributeImplE, 
                       __ZTCN7morphun8analysis15tokenattributes21GrammemeAttributeImplE0_NS0_4util9AttributeE, 
                       __ZTCN7morphun8analysis15tokenattributes21GrammemeAttributeImplE0_NS_4util9CloneableE, 
                       __ZTCN7morphun8analysis15tokenattributes21GrammemeAttributeImplE16_NS1_17GrammemeAttributeE, 
                       __ZTCN7morphun8analysis15tokenattributes24PackedTokenAttributeImplE0_NS0_4util13AttributeImplE, 
                       __ZTCN7morphun8analysis15tokenattributes24PackedTokenAttributeImplE0_NS0_4util9AttributeE, 
                       __ZTCN7morphun8analysis15tokenattributes24PackedTokenAttributeImplE0_NS1_21CharTermAttributeImplE, 
                       __ZTCN7morphun8analysis15tokenattributes24PackedTokenAttributeImplE0_NS_4util9CloneableE, 
                       __ZTCN7morphun8analysis15tokenattributes24PackedTokenAttributeImplE104_NS1_15OffsetAttributeE, 
                       __ZTCN7morphun8analysis15tokenattributes24PackedTokenAttributeImplE48_NS1_17CharTermAttributeE, 
                       __ZTCN7morphun8analysis15tokenattributes24PackedTokenAttributeImplE80_NS1_13TypeAttributeE, 
                       __ZTCN7morphun8analysis15tokenattributes24PackedTokenAttributeImplE88_NS1_26PositionIncrementAttributeE, 
                       __ZTCN7morphun8analysis15tokenattributes24PackedTokenAttributeImplE96_NS1_23PositionLengthAttributeE, 
                       __ZTCN7morphun8analysis15tokenattributes25LemmaMappingAttributeImplE0_NS0_4util13AttributeImplE, 
                       __ZTCN7morphun8analysis15tokenattributes25LemmaMappingAttributeImplE0_NS0_4util9AttributeE, 
                       __ZTCN7morphun8analysis15tokenattributes25LemmaMappingAttributeImplE0_NS_4util9CloneableE, 
                       __ZTCN7morphun8analysis15tokenattributes25LemmaMappingAttributeImplE32_NS1_21LemmaMappingAttributeE, 
                       __ZTCN7morphun8analysis15tokenattributes27PositionLengthAttributeImplE0_NS0_4util13AttributeImplE, 
                       __ZTCN7morphun8analysis15tokenattributes27PositionLengthAttributeImplE0_NS0_4util9AttributeE, 
                       __ZTCN7morphun8analysis15tokenattributes27PositionLengthAttributeImplE0_NS_4util9CloneableE, 
                       __ZTCN7morphun8analysis15tokenattributes27PositionLengthAttributeImplE16_NS1_23PositionLengthAttributeE, 
                       __ZTCN7morphun8analysis15tokenattributes30PositionIncrementAttributeImplE0_NS0_4util13AttributeImplE, 
                       __ZTCN7morphun8analysis15tokenattributes30PositionIncrementAttributeImplE0_NS0_4util9AttributeE, 
                       __ZTCN7morphun8analysis15tokenattributes30PositionIncrementAttributeImplE0_NS_4util9CloneableE, 
                       __ZTCN7morphun8analysis15tokenattributes30PositionIncrementAttributeImplE16_NS1_26PositionIncrementAttributeE, 
                       __ZTCN7morphun8analysis20ConfigurableAnalyzerE0_NS0_4util20StopwordAnalyzerBaseE, 
                       __ZTCN7morphun8analysis20ConfigurableAnalyzerE0_NS0_8AnalyzerE, 
                       __ZTCN7morphun8analysis22DefaultAnalyzerFactoryE0_NS0_15AnalyzerFactoryE, 
                       __ZTCN7morphun8analysis28Analyzer_GlobalReuseStrategyE0_NS0_22Analyzer_ReuseStrategyE, 
                       __ZTCN7morphun8analysis2ar25ArabicNormalizationFilterE0_NS0_11TokenFilterE, 
                       __ZTCN7morphun8analysis2ar25ArabicNormalizationFilterE0_NS0_11TokenStreamE, 
                       __ZTCN7morphun8analysis2ar25ArabicNormalizationFilterE0_NS0_4util15AttributeSourceE, 
                       __ZTCN7morphun8analysis2pt19BrazilianStemFilterE0_NS0_11TokenFilterE, 
                       __ZTCN7morphun8analysis2pt19BrazilianStemFilterE0_NS0_11TokenStreamE, 
                       __ZTCN7morphun8analysis2pt19BrazilianStemFilterE0_NS0_4util15AttributeSourceE, 
                       __ZTCN7morphun8analysis4core10StopFilterE0_NS0_11TokenFilterE, 
                       __ZTCN7morphun8analysis4core10StopFilterE0_NS0_11TokenStreamE, 
                       __ZTCN7morphun8analysis4core10StopFilterE0_NS0_4util15AttributeSourceE, 
                       __ZTCN7morphun8analysis4core10StopFilterE0_NS0_4util20FilteringTokenFilterE, 
                       __ZTCN7morphun8analysis4util20FilteringTokenFilterE0_NS0_11TokenFilterE, 
                       __ZTCN7morphun8analysis4util20FilteringTokenFilterE0_NS0_11TokenStreamE, 
                       __ZTCN7morphun8analysis4util20FilteringTokenFilterE0_NS1_15AttributeSourceE, 
                       __ZTCN7morphun8analysis4util20StopwordAnalyzerBaseE0_NS0_8AnalyzerE, 
                       __ZTCN7morphun8analysis4util21AttributeSource_StateE0_NS_4util9CloneableE, 
                       __ZTCN7morphun8analysis4util30AttributeRegistrationReflectorE0_NS1_18AttributeReflectorE, 
                       __ZTCN7morphun8analysis4util40AttributeSource_StringAttributeReflectorE0_NS1_18AttributeReflectorE, 
                       __ZTCN7morphun8analysis4util53AttributeFactory_StaticImplementationAttributeFactoryE0_NS1_16AttributeFactoryE, 
                       __ZTCN7morphun8analysis4util9AttributeE0_NS_4util9CloneableE, 
                       __ZTCN7morphun8analysis6filter12SuffixFilterE0_NS0_11TokenFilterE, 
                       __ZTCN7morphun8analysis6filter12SuffixFilterE0_NS0_11TokenStreamE, 
                       __ZTCN7morphun8analysis6filter12SuffixFilterE0_NS0_4util15AttributeSourceE, 
                       __ZTCN7morphun8analysis6filter15DiacriticFilterE0_NS0_11TokenFilterE, 
                       __ZTCN7morphun8analysis6filter15DiacriticFilterE0_NS0_11TokenStreamE, 
                       __ZTCN7morphun8analysis6filter15DiacriticFilterE0_NS0_4util15AttributeSourceE, 
                       __ZTCN7morphun8analysis6filter15LowerCaseFilterE0_NS0_11TokenFilterE, 
                       __ZTCN7morphun8analysis6filter15LowerCaseFilterE0_NS0_11TokenStreamE, 
                       __ZTCN7morphun8analysis6filter15LowerCaseFilterE0_NS0_4util15AttributeSourceE, 
                       __ZTCN7morphun8analysis6filter17PunctuationFilterE0_NS0_11TokenFilterE, 
                       __ZTCN7morphun8analysis6filter17PunctuationFilterE0_NS0_11TokenStreamE, 
                       __ZTCN7morphun8analysis6filter17PunctuationFilterE0_NS0_4util15AttributeSourceE, 
                       __ZTCN7morphun8analysis6filter17SplitOnCharFilterE0_NS0_11TokenFilterE, 
                       __ZTCN7morphun8analysis6filter17SplitOnCharFilterE0_NS0_11TokenStreamE, 
                       __ZTCN7morphun8analysis6filter17SplitOnCharFilterE0_NS0_4util15AttributeSourceE, 
                       __ZTCN7morphun8analysis6filter18NumberToWordFilterE0_NS0_11TokenFilterE, 
                       __ZTCN7morphun8analysis6filter18NumberToWordFilterE0_NS0_11TokenStreamE, 
                       __ZTCN7morphun8analysis6filter18NumberToWordFilterE0_NS0_4util15AttributeSourceE, 
                       __ZTCN7morphun8analysis6filter20AmpersandToAndFilterE0_NS0_11TokenFilterE, 
                       __ZTCN7morphun8analysis6filter20AmpersandToAndFilterE0_NS0_11TokenStreamE, 
                       __ZTCN7morphun8analysis6filter20AmpersandToAndFilterE0_NS0_4util15AttributeSourceE, 
                       __ZTCN7morphun8analysis6filter21RemoveCharacterFilterE0_NS0_11TokenFilterE, 
                       __ZTCN7morphun8analysis6filter21RemoveCharacterFilterE0_NS0_11TokenStreamE, 
                       __ZTCN7morphun8analysis6filter21RemoveCharacterFilterE0_NS0_4util15AttributeSourceE, 
                       __ZTCN7morphun8analysis6filter21TransliterationFilterE0_NS0_11TokenFilterE, 
                       __ZTCN7morphun8analysis6filter21TransliterationFilterE0_NS0_11TokenStreamE, 
                       __ZTCN7morphun8analysis6filter21TransliterationFilterE0_NS0_4util15AttributeSourceE, 
                       __ZTCN7morphun8analysis6filter22RecombiningTokenFilterE0_NS0_11TokenFilterE, 
                       __ZTCN7morphun8analysis6filter22RecombiningTokenFilterE0_NS0_11TokenStreamE, 
                       __ZTCN7morphun8analysis6filter22RecombiningTokenFilterE0_NS0_4util15AttributeSourceE, 
                       __ZTCN7morphun8analysis6filter26ContractionExpandingFilterE0_NS0_11TokenFilterE, 
                       __ZTCN7morphun8analysis6filter26ContractionExpandingFilterE0_NS0_11TokenStreamE, 
                       __ZTCN7morphun8analysis6filter26ContractionExpandingFilterE0_NS0_4util15AttributeSourceE, 
                       __ZTCN7morphun8analysis6filter27NormalizeFontVariantsFilterE0_NS0_11TokenFilterE, 
                       __ZTCN7morphun8analysis6filter27NormalizeFontVariantsFilterE0_NS0_11TokenStreamE, 
                       __ZTCN7morphun8analysis6filter27NormalizeFontVariantsFilterE0_NS0_4util15AttributeSourceE, 
                       __ZTCN7morphun8analysis7stemmer12ArStemFilterE0_NS0_11TokenFilterE, 
                       __ZTCN7morphun8analysis7stemmer12ArStemFilterE0_NS0_11TokenStreamE, 
                       __ZTCN7morphun8analysis7stemmer12ArStemFilterE0_NS0_4util15AttributeSourceE, 
                       __ZTCN7morphun8analysis7stemmer12DeStemFilterE0_NS0_11TokenFilterE, 
                       __ZTCN7morphun8analysis7stemmer12DeStemFilterE0_NS0_11TokenStreamE, 
                       __ZTCN7morphun8analysis7stemmer12DeStemFilterE0_NS0_4util15AttributeSourceE, 
                       __ZTCN7morphun8analysis7stemmer12EnStemFilterE0_NS0_11TokenFilterE, 
                       __ZTCN7morphun8analysis7stemmer12EnStemFilterE0_NS0_11TokenStreamE, 
                       __ZTCN7morphun8analysis7stemmer12EnStemFilterE0_NS0_4util15AttributeSourceE, 
                       __ZTCN7morphun8analysis7stemmer12EsStemFilterE0_NS0_11TokenFilterE, 
                       __ZTCN7morphun8analysis7stemmer12EsStemFilterE0_NS0_11TokenStreamE, 
                       __ZTCN7morphun8analysis7stemmer12EsStemFilterE0_NS0_4util15AttributeSourceE, 
                       __ZTCN7morphun8analysis7stemmer12FrStemFilterE0_NS0_11TokenFilterE, 
                       __ZTCN7morphun8analysis7stemmer12FrStemFilterE0_NS0_11TokenStreamE, 
                       __ZTCN7morphun8analysis7stemmer12FrStemFilterE0_NS0_4util15AttributeSourceE, 
                       __ZTCN7morphun8analysis7stemmer12ItStemFilterE0_NS0_11TokenFilterE, 
                       __ZTCN7morphun8analysis7stemmer12ItStemFilterE0_NS0_11TokenStreamE, 
                       __ZTCN7morphun8analysis7stemmer12ItStemFilterE0_NS0_4util15AttributeSourceE, 
                       __ZTCN7morphun8analysis7stemmer13HeLemmaFilterE0_NS0_11TokenFilterE, 
                       __ZTCN7morphun8analysis7stemmer13HeLemmaFilterE0_NS0_11TokenStreamE, 
                       __ZTCN7morphun8analysis7stemmer13HeLemmaFilterE0_NS0_4util15AttributeSourceE, 
                       __ZTCN7morphun8analysis7stemmer13HeLemmaFilterE0_NS1_27DictionaryLookupLemmaFilterE, 
                       __ZTCN7morphun8analysis7stemmer13NlLemmaFilterE0_NS0_11TokenFilterE, 
                       __ZTCN7morphun8analysis7stemmer13NlLemmaFilterE0_NS0_11TokenStreamE, 
                       __ZTCN7morphun8analysis7stemmer13NlLemmaFilterE0_NS0_4util15AttributeSourceE, 
                       __ZTCN7morphun8analysis7stemmer13NlLemmaFilterE0_NS1_27DictionaryLookupLemmaFilterE, 
                       __ZTCN7morphun8analysis7stemmer27DictionaryLookupLemmaFilterE0_NS0_11TokenFilterE, 
                       __ZTCN7morphun8analysis7stemmer27DictionaryLookupLemmaFilterE0_NS0_11TokenStreamE, 
                       __ZTCN7morphun8analysis7stemmer27DictionaryLookupLemmaFilterE0_NS0_4util15AttributeSourceE, 
                       __ZTCN7morphun8analysis9TokenizerE0_NS0_11TokenStreamE, __ZTCN7morphun8analysis9TokenizerE0_NS0_4util15AttributeSourceE, 
                       __ZTCN7morphun8analysis9tokenizer19SiriLuceneTokenizerE0_NS0_11TokenStreamE, 
                       __ZTCN7morphun8analysis9tokenizer19SiriLuceneTokenizerE0_NS0_4util15AttributeSourceE, 
                       __ZTCN7morphun8analysis9tokenizer19SiriLuceneTokenizerE0_NS0_9TokenizerE, 
                       __ZTCN7morphun8analysis9tokenizer22MorphologicalWordTokenE0_NS_10Token_WordE, 
                       __ZTCN7morphun8analysis9tokenizer22MorphologicalWordTokenE0_NS_5TokenE, 
                       __ZTCN7morphun8analysis9tokenizer22MorphologicalWordTokenE0_NS_9CharRangeE, 
                       __ZTCN7morphun9tokenizer13NumberCleaverE0_NS0_13TokenModifierE, 
                       __ZTCN7morphun9tokenizer17TokenExtractorICUE0_NS0_14TokenExtractorE, 
                       __ZTCN7morphun9tokenizer17TokenExtractorICUE0_NS0_30WordAndDelimiterTokenExtractorE, 
                       __ZTCN7morphun9tokenizer18GroupTokenModifierE0_NS0_13TokenModifierE, 
                       __ZTCN7morphun9tokenizer19TokenExtractorMecabE0_NS0_14TokenExtractorE, 
                       __ZTCN7morphun9tokenizer19TokenExtractorMecabE0_NS0_30WordAndDelimiterTokenExtractorE, 
                       __ZTCN7morphun9tokenizer21ExplicitTokenModifierE0_NS0_13TokenModifierE, 
                       __ZTCN7morphun9tokenizer22OversizedTokenModifierE0_NS0_13TokenModifierE, 
                       __ZTCN7morphun9tokenizer28TokenExtractorCoreFoundationE0_NS0_14TokenExtractorE, 
                       __ZTCN7morphun9tokenizer28TokenExtractorCoreFoundationE0_NS0_30WordAndDelimiterTokenExtractorE, 
                       __ZTCN7morphun9tokenizer30WordAndDelimiterTokenExtractorE0_NS0_14TokenExtractorE, 
                       __ZTCN7morphun9tokenizer37SemiticWordAndDelimiterTokenExtractorE0_NS0_14TokenExtractorE, 
                       __ZTCN7morphun9tokenizer37SemiticWordAndDelimiterTokenExtractorE0_NS0_17TokenExtractorICUE, 
                       __ZTCN7morphun9tokenizer37SemiticWordAndDelimiterTokenExtractorE0_NS0_30WordAndDelimiterTokenExtractorE, 
                       __ZTCN7morphun9tokenizer38GermanicWordAndDelimiterTokenExtractorE0_NS0_14TokenExtractorE, 
                       __ZTCN7morphun9tokenizer38GermanicWordAndDelimiterTokenExtractorE0_NS0_17TokenExtractorICUE, 
                       __ZTCN7morphun9tokenizer38GermanicWordAndDelimiterTokenExtractorE0_NS0_30WordAndDelimiterTokenExtractorE, 
                       __ZTCN7morphun9tokenizer6locale2de32DeWordAndDelimiterTokenExtractorE0_NS0_14TokenExtractorE, 
                       __ZTCN7morphun9tokenizer6locale2de32DeWordAndDelimiterTokenExtractorE0_NS0_28TokenExtractorCoreFoundationE, 
                       __ZTCN7morphun9tokenizer6locale2de32DeWordAndDelimiterTokenExtractorE0_NS0_30WordAndDelimiterTokenExtractorE, 
                       __ZTCN7morphun9tokenizer6locale2fi32FiWordAndDelimiterTokenExtractorE0_NS0_14TokenExtractorE, 
                       __ZTCN7morphun9tokenizer6locale2fi32FiWordAndDelimiterTokenExtractorE0_NS0_17TokenExtractorICUE, 
                       __ZTCN7morphun9tokenizer6locale2fi32FiWordAndDelimiterTokenExtractorE0_NS0_30WordAndDelimiterTokenExtractorE, 
                       __ZTCN7morphun9tokenizer6locale2zh32ZhWordAndDelimiterTokenExtractorE0_NS0_14TokenExtractorE, 
                       __ZTCN7morphun9tokenizer6locale2zh32ZhWordAndDelimiterTokenExtractorE0_NS0_19TokenExtractorMecabE, 
                       __ZTCN7morphun9tokenizer6locale2zh32ZhWordAndDelimiterTokenExtractorE0_NS0_30WordAndDelimiterTokenExtractorE, 
                       __ZTI10Dictionary, __ZTIN7morphun10TokenChainE, __ZTIN7morphun10Token_HeadE, 
                       __ZTIN7morphun10Token_TailE, __ZTIN7morphun10Token_WordE, 
                       __ZTIN7morphun10dictionary18DictionaryMetaDataE, __ZTIN7morphun10dictionary27Inflector_InflectionPatternE, 
                       __ZTIN7morphun10dictionary34DictionaryMetaData_EmptyDictionaryE, 
                       __ZTIN7morphun10dictionary36DictionaryMetaData_MMappedDictionaryE, 
                       __ZTIN7morphun10dictionary39DictionaryMetaData_WiktionaryDictionaryE, 
                       __ZTIN7morphun10dictionary9InflectorE, __ZTIN7morphun11Token_DelimE, 
                       __ZTIN7morphun11Token_GroupE, __ZTIN7morphun14Token_ExplicitE, 
                       __ZTIN7morphun15transliteration14TransliteratorE, __ZTIN7morphun15transliteration23ICUScriptTransliteratorE, 
                       __ZTIN7morphun15transliteration28ToRomanizationTransliteratorE, 
                       __ZTIN7morphun20Token_OverSizedTokenE, __ZTIN7morphun4lang8features23LanguageGrammarFeaturesE, 
                       __ZTIN7morphun4lang8features31LanguageGrammarFeatures_FeatureE, 
                       __ZTIN7morphun4lang8features39LanguageGrammarFeatures_GrammarCategoryE, 
                       __ZTIN7morphun4lang8features39LanguageGrammarFeatures_GrammarFeaturesE, 
                       __ZTIN7morphun4util7ULocaleE, __ZTIN7morphun5ChunkE, __ZTIN7morphun5TokenE, 
                       __ZTIN7morphun6ObjectE, __ZTIN7morphun8analysis10ArAnalyzerE, 
                       __ZTIN7morphun8analysis10DeAnalyzerE, __ZTIN7morphun8analysis10EnAnalyzerE, 
                       __ZTIN7morphun8analysis10EsAnalyzerE, __ZTIN7morphun8analysis10FrAnalyzerE, 
                       __ZTIN7morphun8analysis10HeAnalyzerE, __ZTIN7morphun8analysis10ItAnalyzerE, 
                       __ZTIN7morphun8analysis10JaAnalyzerE, __ZTIN7morphun8analysis10NlAnalyzerE, 
                       __ZTIN7morphun8analysis10TrAnalyzerE, __ZTIN7morphun8analysis10ZhAnalyzerE, 
                       __ZTIN7morphun8analysis11TokenFilterE, __ZTIN7morphun8analysis11TokenStreamE, 
                       __ZTIN7morphun8analysis12PtBrAnalyzerE, __ZTIN7morphun8analysis15AnalyzerWrapperE, 
                       __ZTIN7morphun8analysis15tokenattributes12LemmaMappingE, __ZTIN7morphun8analysis15tokenattributes17TypeAttributeImplE, 
                       __ZTIN7morphun8analysis15tokenattributes18FlagsAttributeImplE, 
                       __ZTIN7morphun8analysis15tokenattributes19OffsetAttributeImplE, 
                       __ZTIN7morphun8analysis15tokenattributes20KeywordAttributeImplE, 
                       __ZTIN7morphun8analysis15tokenattributes21CharTermAttributeImplE, 
                       __ZTIN7morphun8analysis15tokenattributes21GrammemeAttributeImplE, 
                       __ZTIN7morphun8analysis15tokenattributes24PackedTokenAttributeImplE, 
                       __ZTIN7morphun8analysis15tokenattributes25LemmaMappingAttributeImplE, 
                       __ZTIN7morphun8analysis15tokenattributes27PositionLengthAttributeImplE, 
                       __ZTIN7morphun8analysis15tokenattributes30PositionIncrementAttributeImplE, 
                       __ZTIN7morphun8analysis20ConfigurableAnalyzerE, __ZTIN7morphun8analysis22DefaultAnalyzerFactoryE, 
                       __ZTIN7morphun8analysis28Analyzer_GlobalReuseStrategyE, __ZTIN7morphun8analysis2ar25ArabicNormalizationFilterE, 
                       __ZTIN7morphun8analysis2pt19BrazilianStemFilterE, __ZTIN7morphun8analysis30Analyzer_TokenStreamComponentsE, 
                       __ZTIN7morphun8analysis4core10StopFilterE, __ZTIN7morphun8analysis4util15AttributeSourceE, 
                       __ZTIN7morphun8analysis4util16AttributeFactoryE, __ZTIN7morphun8analysis4util20FilteringTokenFilterE, 
                       __ZTIN7morphun8analysis4util20StopwordAnalyzerBaseE, __ZTIN7morphun8analysis4util21AttributeSource_StateE, 
                       __ZTIN7morphun8analysis4util30AttributeRegistrationReflectorE, 
                       __ZTIN7morphun8analysis4util40AttributeSource_StringAttributeReflectorE, 
                       __ZTIN7morphun8analysis4util53AttributeFactory_StaticImplementationAttributeFactoryE, 
                       __ZTIN7morphun8analysis4util9AttributeE, __ZTIN7morphun8analysis6filter12SuffixFilterE, 
                       __ZTIN7morphun8analysis6filter15DiacriticFilterE, __ZTIN7morphun8analysis6filter15LowerCaseFilterE, 
                       __ZTIN7morphun8analysis6filter17PunctuationFilterE, __ZTIN7morphun8analysis6filter17SplitOnCharFilterE, 
                       __ZTIN7morphun8analysis6filter18NumberToWordFilterE, __ZTIN7morphun8analysis6filter20AmpersandToAndFilterE, 
                       __ZTIN7morphun8analysis6filter21RemoveCharacterFilterE, __ZTIN7morphun8analysis6filter21TransliterationFilterE, 
                       __ZTIN7morphun8analysis6filter22RecombiningTokenFilterE, __ZTIN7morphun8analysis6filter26ContractionExpandingFilterE, 
                       __ZTIN7morphun8analysis6filter27NormalizeFontVariantsFilterE, 
                       __ZTIN7morphun8analysis7stemmer12ArStemFilterE, __ZTIN7morphun8analysis7stemmer12DeStemFilterE, 
                       __ZTIN7morphun8analysis7stemmer12EnStemFilterE, __ZTIN7morphun8analysis7stemmer12EsStemFilterE, 
                       __ZTIN7morphun8analysis7stemmer12FrStemFilterE, __ZTIN7morphun8analysis7stemmer12ItStemFilterE, 
                       __ZTIN7morphun8analysis7stemmer13HeLemmaFilterE, __ZTIN7morphun8analysis7stemmer13NlLemmaFilterE, 
                       __ZTIN7morphun8analysis7stemmer27DictionaryLookupLemmaFilterE, 
                       __ZTIN7morphun8analysis8AnalyzerE, __ZTIN7morphun8analysis9TokenizerE, 
                       __ZTIN7morphun8analysis9tokenizer19SiriLuceneTokenizerE, __ZTIN7morphun8analysis9tokenizer22MorphologicalWordTokenE, 
                       __ZTIN7morphun9TokenizerE, __ZTIN7morphun9exception24MissingResourceExceptionE, 
                       __ZTIN7morphun9exception9ThrowableE, __ZTIN7morphun9tokenizer10dictionary20GermanicDecompounderE, 
                       __ZTIN7morphun9tokenizer10dictionary25DictionaryTokenizerConfigE, 
                       __ZTIN7morphun9tokenizer13NumberCleaverE, __ZTIN7morphun9tokenizer17TokenExtractorICUE, 
                       __ZTIN7morphun9tokenizer18GroupTokenModifierE, __ZTIN7morphun9tokenizer19TokenExtractorMecabE, 
                       __ZTIN7morphun9tokenizer21ExplicitTokenModifierE, __ZTIN7morphun9tokenizer22OversizedTokenModifierE, 
                       __ZTIN7morphun9tokenizer28TokenExtractorCoreFoundationE, __ZTIN7morphun9tokenizer30WordAndDelimiterTokenExtractorE, 
                       __ZTIN7morphun9tokenizer37SemiticWordAndDelimiterTokenExtractorE, 
                       __ZTIN7morphun9tokenizer38GermanicWordAndDelimiterTokenExtractorE, 
                       __ZTIN7morphun9tokenizer6locale2de32DeWordAndDelimiterTokenExtractorE, 
                       __ZTIN7morphun9tokenizer6locale2fi32FiWordAndDelimiterTokenExtractorE, 
                       __ZTIN7morphun9tokenizer6locale2zh32ZhWordAndDelimiterTokenExtractorE, 
                       __ZTS10Dictionary, __ZTSN7morphun10TokenChainE, __ZTSN7morphun10Token_HeadE, 
                       __ZTSN7morphun10Token_TailE, __ZTSN7morphun10Token_WordE, 
                       __ZTSN7morphun10dictionary18DictionaryMetaDataE, __ZTSN7morphun10dictionary27Inflector_InflectionPatternE, 
                       __ZTSN7morphun10dictionary34DictionaryMetaData_EmptyDictionaryE, 
                       __ZTSN7morphun10dictionary36DictionaryMetaData_MMappedDictionaryE, 
                       __ZTSN7morphun10dictionary39DictionaryMetaData_WiktionaryDictionaryE, 
                       __ZTSN7morphun10dictionary9InflectorE, __ZTSN7morphun11Token_DelimE, 
                       __ZTSN7morphun11Token_GroupE, __ZTSN7morphun14Token_ExplicitE, 
                       __ZTSN7morphun15transliteration14TransliteratorE, __ZTSN7morphun15transliteration23ICUScriptTransliteratorE, 
                       __ZTSN7morphun15transliteration28ToRomanizationTransliteratorE, 
                       __ZTSN7morphun20Token_OverSizedTokenE, __ZTSN7morphun4lang8features23LanguageGrammarFeaturesE, 
                       __ZTSN7morphun4lang8features31LanguageGrammarFeatures_FeatureE, 
                       __ZTSN7morphun4lang8features39LanguageGrammarFeatures_GrammarCategoryE, 
                       __ZTSN7morphun4lang8features39LanguageGrammarFeatures_GrammarFeaturesE, 
                       __ZTSN7morphun4util7ULocaleE, __ZTSN7morphun5ChunkE, __ZTSN7morphun5TokenE, 
                       __ZTSN7morphun6ObjectE, __ZTSN7morphun8analysis10ArAnalyzerE, 
                       __ZTSN7morphun8analysis10DeAnalyzerE, __ZTSN7morphun8analysis10EnAnalyzerE, 
                       __ZTSN7morphun8analysis10EsAnalyzerE, __ZTSN7morphun8analysis10FrAnalyzerE, 
                       __ZTSN7morphun8analysis10HeAnalyzerE, __ZTSN7morphun8analysis10ItAnalyzerE, 
                       __ZTSN7morphun8analysis10JaAnalyzerE, __ZTSN7morphun8analysis10NlAnalyzerE, 
                       __ZTSN7morphun8analysis10TrAnalyzerE, __ZTSN7morphun8analysis10ZhAnalyzerE, 
                       __ZTSN7morphun8analysis11TokenFilterE, __ZTSN7morphun8analysis11TokenStreamE, 
                       __ZTSN7morphun8analysis12PtBrAnalyzerE, __ZTSN7morphun8analysis15AnalyzerWrapperE, 
                       __ZTSN7morphun8analysis15tokenattributes12LemmaMappingE, __ZTSN7morphun8analysis15tokenattributes17TypeAttributeImplE, 
                       __ZTSN7morphun8analysis15tokenattributes18FlagsAttributeImplE, 
                       __ZTSN7morphun8analysis15tokenattributes19OffsetAttributeImplE, 
                       __ZTSN7morphun8analysis15tokenattributes20KeywordAttributeImplE, 
                       __ZTSN7morphun8analysis15tokenattributes21CharTermAttributeImplE, 
                       __ZTSN7morphun8analysis15tokenattributes21GrammemeAttributeImplE, 
                       __ZTSN7morphun8analysis15tokenattributes24PackedTokenAttributeImplE, 
                       __ZTSN7morphun8analysis15tokenattributes25LemmaMappingAttributeImplE, 
                       __ZTSN7morphun8analysis15tokenattributes27PositionLengthAttributeImplE, 
                       __ZTSN7morphun8analysis15tokenattributes30PositionIncrementAttributeImplE, 
                       __ZTSN7morphun8analysis20ConfigurableAnalyzerE, __ZTSN7morphun8analysis22DefaultAnalyzerFactoryE, 
                       __ZTSN7morphun8analysis28Analyzer_GlobalReuseStrategyE, __ZTSN7morphun8analysis2ar25ArabicNormalizationFilterE, 
                       __ZTSN7morphun8analysis2pt19BrazilianStemFilterE, __ZTSN7morphun8analysis30Analyzer_TokenStreamComponentsE, 
                       __ZTSN7morphun8analysis4core10StopFilterE, __ZTSN7morphun8analysis4util15AttributeSourceE, 
                       __ZTSN7morphun8analysis4util16AttributeFactoryE, __ZTSN7morphun8analysis4util20FilteringTokenFilterE, 
                       __ZTSN7morphun8analysis4util20StopwordAnalyzerBaseE, __ZTSN7morphun8analysis4util21AttributeSource_StateE, 
                       __ZTSN7morphun8analysis4util30AttributeRegistrationReflectorE, 
                       __ZTSN7morphun8analysis4util40AttributeSource_StringAttributeReflectorE, 
                       __ZTSN7morphun8analysis4util53AttributeFactory_StaticImplementationAttributeFactoryE, 
                       __ZTSN7morphun8analysis4util9AttributeE, __ZTSN7morphun8analysis6filter12SuffixFilterE, 
                       __ZTSN7morphun8analysis6filter15DiacriticFilterE, __ZTSN7morphun8analysis6filter15LowerCaseFilterE, 
                       __ZTSN7morphun8analysis6filter17PunctuationFilterE, __ZTSN7morphun8analysis6filter17SplitOnCharFilterE, 
                       __ZTSN7morphun8analysis6filter18NumberToWordFilterE, __ZTSN7morphun8analysis6filter20AmpersandToAndFilterE, 
                       __ZTSN7morphun8analysis6filter21RemoveCharacterFilterE, __ZTSN7morphun8analysis6filter21TransliterationFilterE, 
                       __ZTSN7morphun8analysis6filter22RecombiningTokenFilterE, __ZTSN7morphun8analysis6filter26ContractionExpandingFilterE, 
                       __ZTSN7morphun8analysis6filter27NormalizeFontVariantsFilterE, 
                       __ZTSN7morphun8analysis7stemmer12ArStemFilterE, __ZTSN7morphun8analysis7stemmer12DeStemFilterE, 
                       __ZTSN7morphun8analysis7stemmer12EnStemFilterE, __ZTSN7morphun8analysis7stemmer12EsStemFilterE, 
                       __ZTSN7morphun8analysis7stemmer12FrStemFilterE, __ZTSN7morphun8analysis7stemmer12ItStemFilterE, 
                       __ZTSN7morphun8analysis7stemmer13HeLemmaFilterE, __ZTSN7morphun8analysis7stemmer13NlLemmaFilterE, 
                       __ZTSN7morphun8analysis7stemmer27DictionaryLookupLemmaFilterE, 
                       __ZTSN7morphun8analysis8AnalyzerE, __ZTSN7morphun8analysis9TokenizerE, 
                       __ZTSN7morphun8analysis9tokenizer19SiriLuceneTokenizerE, __ZTSN7morphun8analysis9tokenizer22MorphologicalWordTokenE, 
                       __ZTSN7morphun9TokenizerE, __ZTSN7morphun9exception24MissingResourceExceptionE, 
                       __ZTSN7morphun9exception9ThrowableE, __ZTSN7morphun9tokenizer10dictionary20GermanicDecompounderE, 
                       __ZTSN7morphun9tokenizer10dictionary25DictionaryTokenizerConfigE, 
                       __ZTSN7morphun9tokenizer13NumberCleaverE, __ZTSN7morphun9tokenizer17TokenExtractorICUE, 
                       __ZTSN7morphun9tokenizer18GroupTokenModifierE, __ZTSN7morphun9tokenizer19TokenExtractorMecabE, 
                       __ZTSN7morphun9tokenizer21ExplicitTokenModifierE, __ZTSN7morphun9tokenizer22OversizedTokenModifierE, 
                       __ZTSN7morphun9tokenizer28TokenExtractorCoreFoundationE, __ZTSN7morphun9tokenizer30WordAndDelimiterTokenExtractorE, 
                       __ZTSN7morphun9tokenizer37SemiticWordAndDelimiterTokenExtractorE, 
                       __ZTSN7morphun9tokenizer38GermanicWordAndDelimiterTokenExtractorE, 
                       __ZTSN7morphun9tokenizer6locale2de32DeWordAndDelimiterTokenExtractorE, 
                       __ZTSN7morphun9tokenizer6locale2fi32FiWordAndDelimiterTokenExtractorE, 
                       __ZTSN7morphun9tokenizer6locale2zh32ZhWordAndDelimiterTokenExtractorE, 
                       __ZTTN7morphun10TokenChainE, __ZTTN7morphun10Token_HeadE, 
                       __ZTTN7morphun10Token_TailE, __ZTTN7morphun10Token_WordE, 
                       __ZTTN7morphun10dictionary18DictionaryMetaDataE, __ZTTN7morphun10dictionary27Inflector_InflectionPatternE, 
                       __ZTTN7morphun10dictionary34DictionaryMetaData_EmptyDictionaryE, 
                       __ZTTN7morphun10dictionary36DictionaryMetaData_MMappedDictionaryE, 
                       __ZTTN7morphun10dictionary39DictionaryMetaData_WiktionaryDictionaryE, 
                       __ZTTN7morphun10dictionary9InflectorE, __ZTTN7morphun11Token_DelimE, 
                       __ZTTN7morphun11Token_GroupE, __ZTTN7morphun14Token_ExplicitE, 
                       __ZTTN7morphun15transliteration14TransliteratorE, __ZTTN7morphun15transliteration23ICUScriptTransliteratorE, 
                       __ZTTN7morphun15transliteration28ToRomanizationTransliteratorE, 
                       __ZTTN7morphun20Token_OverSizedTokenE, __ZTTN7morphun4lang8features23LanguageGrammarFeaturesE, 
                       __ZTTN7morphun4lang8features31LanguageGrammarFeatures_FeatureE, 
                       __ZTTN7morphun4lang8features39LanguageGrammarFeatures_GrammarCategoryE, 
                       __ZTTN7morphun4lang8features39LanguageGrammarFeatures_GrammarFeaturesE, 
                       __ZTTN7morphun4util7ULocaleE, __ZTTN7morphun5ChunkE, __ZTTN7morphun5TokenE, 
                       __ZTTN7morphun8analysis10ArAnalyzerE, __ZTTN7morphun8analysis10DeAnalyzerE, 
                       __ZTTN7morphun8analysis10EnAnalyzerE, __ZTTN7morphun8analysis10EsAnalyzerE, 
                       __ZTTN7morphun8analysis10FrAnalyzerE, __ZTTN7morphun8analysis10HeAnalyzerE, 
                       __ZTTN7morphun8analysis10ItAnalyzerE, __ZTTN7morphun8analysis10JaAnalyzerE, 
                       __ZTTN7morphun8analysis10NlAnalyzerE, __ZTTN7morphun8analysis10TrAnalyzerE, 
                       __ZTTN7morphun8analysis10ZhAnalyzerE, __ZTTN7morphun8analysis11TokenFilterE, 
                       __ZTTN7morphun8analysis11TokenStreamE, __ZTTN7morphun8analysis12PtBrAnalyzerE, 
                       __ZTTN7morphun8analysis15AnalyzerWrapperE, __ZTTN7morphun8analysis15tokenattributes12LemmaMappingE, 
                       __ZTTN7morphun8analysis15tokenattributes17TypeAttributeImplE, 
                       __ZTTN7morphun8analysis15tokenattributes18FlagsAttributeImplE, 
                       __ZTTN7morphun8analysis15tokenattributes19OffsetAttributeImplE, 
                       __ZTTN7morphun8analysis15tokenattributes20KeywordAttributeImplE, 
                       __ZTTN7morphun8analysis15tokenattributes21CharTermAttributeImplE, 
                       __ZTTN7morphun8analysis15tokenattributes21GrammemeAttributeImplE, 
                       __ZTTN7morphun8analysis15tokenattributes24PackedTokenAttributeImplE, 
                       __ZTTN7morphun8analysis15tokenattributes25LemmaMappingAttributeImplE, 
                       __ZTTN7morphun8analysis15tokenattributes27PositionLengthAttributeImplE, 
                       __ZTTN7morphun8analysis15tokenattributes30PositionIncrementAttributeImplE, 
                       __ZTTN7morphun8analysis20ConfigurableAnalyzerE, __ZTTN7morphun8analysis22DefaultAnalyzerFactoryE, 
                       __ZTTN7morphun8analysis28Analyzer_GlobalReuseStrategyE, __ZTTN7morphun8analysis2ar25ArabicNormalizationFilterE, 
                       __ZTTN7morphun8analysis2pt19BrazilianStemFilterE, __ZTTN7morphun8analysis30Analyzer_TokenStreamComponentsE, 
                       __ZTTN7morphun8analysis4core10StopFilterE, __ZTTN7morphun8analysis4util15AttributeSourceE, 
                       __ZTTN7morphun8analysis4util16AttributeFactoryE, __ZTTN7morphun8analysis4util20FilteringTokenFilterE, 
                       __ZTTN7morphun8analysis4util20StopwordAnalyzerBaseE, __ZTTN7morphun8analysis4util21AttributeSource_StateE, 
                       __ZTTN7morphun8analysis4util30AttributeRegistrationReflectorE, 
                       __ZTTN7morphun8analysis4util40AttributeSource_StringAttributeReflectorE, 
                       __ZTTN7morphun8analysis4util53AttributeFactory_StaticImplementationAttributeFactoryE, 
                       __ZTTN7morphun8analysis4util9AttributeE, __ZTTN7morphun8analysis6filter12SuffixFilterE, 
                       __ZTTN7morphun8analysis6filter15DiacriticFilterE, __ZTTN7morphun8analysis6filter15LowerCaseFilterE, 
                       __ZTTN7morphun8analysis6filter17PunctuationFilterE, __ZTTN7morphun8analysis6filter17SplitOnCharFilterE, 
                       __ZTTN7morphun8analysis6filter18NumberToWordFilterE, __ZTTN7morphun8analysis6filter20AmpersandToAndFilterE, 
                       __ZTTN7morphun8analysis6filter21RemoveCharacterFilterE, __ZTTN7morphun8analysis6filter21TransliterationFilterE, 
                       __ZTTN7morphun8analysis6filter22RecombiningTokenFilterE, __ZTTN7morphun8analysis6filter26ContractionExpandingFilterE, 
                       __ZTTN7morphun8analysis6filter27NormalizeFontVariantsFilterE, 
                       __ZTTN7morphun8analysis7stemmer12ArStemFilterE, __ZTTN7morphun8analysis7stemmer12DeStemFilterE, 
                       __ZTTN7morphun8analysis7stemmer12EnStemFilterE, __ZTTN7morphun8analysis7stemmer12EsStemFilterE, 
                       __ZTTN7morphun8analysis7stemmer12FrStemFilterE, __ZTTN7morphun8analysis7stemmer12ItStemFilterE, 
                       __ZTTN7morphun8analysis7stemmer13HeLemmaFilterE, __ZTTN7morphun8analysis7stemmer13NlLemmaFilterE, 
                       __ZTTN7morphun8analysis7stemmer27DictionaryLookupLemmaFilterE, 
                       __ZTTN7morphun8analysis8AnalyzerE, __ZTTN7morphun8analysis9TokenizerE, 
                       __ZTTN7morphun8analysis9tokenizer19SiriLuceneTokenizerE, __ZTTN7morphun8analysis9tokenizer22MorphologicalWordTokenE, 
                       __ZTTN7morphun9TokenizerE, __ZTTN7morphun9tokenizer10dictionary25DictionaryTokenizerConfigE, 
                       __ZTTN7morphun9tokenizer13NumberCleaverE, __ZTTN7morphun9tokenizer17TokenExtractorICUE, 
                       __ZTTN7morphun9tokenizer18GroupTokenModifierE, __ZTTN7morphun9tokenizer19TokenExtractorMecabE, 
                       __ZTTN7morphun9tokenizer21ExplicitTokenModifierE, __ZTTN7morphun9tokenizer22OversizedTokenModifierE, 
                       __ZTTN7morphun9tokenizer28TokenExtractorCoreFoundationE, __ZTTN7morphun9tokenizer30WordAndDelimiterTokenExtractorE, 
                       __ZTTN7morphun9tokenizer37SemiticWordAndDelimiterTokenExtractorE, 
                       __ZTTN7morphun9tokenizer38GermanicWordAndDelimiterTokenExtractorE, 
                       __ZTTN7morphun9tokenizer6locale2de32DeWordAndDelimiterTokenExtractorE, 
                       __ZTTN7morphun9tokenizer6locale2fi32FiWordAndDelimiterTokenExtractorE, 
                       __ZTTN7morphun9tokenizer6locale2zh32ZhWordAndDelimiterTokenExtractorE, 
                       __ZTV10Dictionary, __ZTVN7morphun10TokenChainE, __ZTVN7morphun10Token_HeadE, 
                       __ZTVN7morphun10Token_TailE, __ZTVN7morphun10Token_WordE, 
                       __ZTVN7morphun10dictionary18DictionaryMetaDataE, __ZTVN7morphun10dictionary27Inflector_InflectionPatternE, 
                       __ZTVN7morphun10dictionary34DictionaryMetaData_EmptyDictionaryE, 
                       __ZTVN7morphun10dictionary36DictionaryMetaData_MMappedDictionaryE, 
                       __ZTVN7morphun10dictionary39DictionaryMetaData_WiktionaryDictionaryE, 
                       __ZTVN7morphun10dictionary9InflectorE, __ZTVN7morphun11Token_DelimE, 
                       __ZTVN7morphun11Token_GroupE, __ZTVN7morphun14Token_ExplicitE, 
                       __ZTVN7morphun15transliteration14TransliteratorE, __ZTVN7morphun15transliteration23ICUScriptTransliteratorE, 
                       __ZTVN7morphun15transliteration28ToRomanizationTransliteratorE, 
                       __ZTVN7morphun20Token_OverSizedTokenE, __ZTVN7morphun4lang8features23LanguageGrammarFeaturesE, 
                       __ZTVN7morphun4lang8features31LanguageGrammarFeatures_FeatureE, 
                       __ZTVN7morphun4lang8features39LanguageGrammarFeatures_GrammarCategoryE, 
                       __ZTVN7morphun4lang8features39LanguageGrammarFeatures_GrammarFeaturesE, 
                       __ZTVN7morphun4util7ULocaleE, __ZTVN7morphun5ChunkE, __ZTVN7morphun5TokenE, 
                       __ZTVN7morphun6ObjectE, __ZTVN7morphun8analysis10ArAnalyzerE, 
                       __ZTVN7morphun8analysis10DeAnalyzerE, __ZTVN7morphun8analysis10EnAnalyzerE, 
                       __ZTVN7morphun8analysis10EsAnalyzerE, __ZTVN7morphun8analysis10FrAnalyzerE, 
                       __ZTVN7morphun8analysis10HeAnalyzerE, __ZTVN7morphun8analysis10ItAnalyzerE, 
                       __ZTVN7morphun8analysis10JaAnalyzerE, __ZTVN7morphun8analysis10NlAnalyzerE, 
                       __ZTVN7morphun8analysis10TrAnalyzerE, __ZTVN7morphun8analysis10ZhAnalyzerE, 
                       __ZTVN7morphun8analysis11TokenFilterE, __ZTVN7morphun8analysis11TokenStreamE, 
                       __ZTVN7morphun8analysis12PtBrAnalyzerE, __ZTVN7morphun8analysis15AnalyzerWrapperE, 
                       __ZTVN7morphun8analysis15tokenattributes12LemmaMappingE, __ZTVN7morphun8analysis15tokenattributes17TypeAttributeImplE, 
                       __ZTVN7morphun8analysis15tokenattributes18FlagsAttributeImplE, 
                       __ZTVN7morphun8analysis15tokenattributes19OffsetAttributeImplE, 
                       __ZTVN7morphun8analysis15tokenattributes20KeywordAttributeImplE, 
                       __ZTVN7morphun8analysis15tokenattributes21CharTermAttributeImplE, 
                       __ZTVN7morphun8analysis15tokenattributes21GrammemeAttributeImplE, 
                       __ZTVN7morphun8analysis15tokenattributes24PackedTokenAttributeImplE, 
                       __ZTVN7morphun8analysis15tokenattributes25LemmaMappingAttributeImplE, 
                       __ZTVN7morphun8analysis15tokenattributes27PositionLengthAttributeImplE, 
                       __ZTVN7morphun8analysis15tokenattributes30PositionIncrementAttributeImplE, 
                       __ZTVN7morphun8analysis20ConfigurableAnalyzerE, __ZTVN7morphun8analysis22DefaultAnalyzerFactoryE, 
                       __ZTVN7morphun8analysis28Analyzer_GlobalReuseStrategyE, __ZTVN7morphun8analysis2ar25ArabicNormalizationFilterE, 
                       __ZTVN7morphun8analysis2pt19BrazilianStemFilterE, __ZTVN7morphun8analysis30Analyzer_TokenStreamComponentsE, 
                       __ZTVN7morphun8analysis4core10StopFilterE, __ZTVN7morphun8analysis4util15AttributeSourceE, 
                       __ZTVN7morphun8analysis4util16AttributeFactoryE, __ZTVN7morphun8analysis4util20FilteringTokenFilterE, 
                       __ZTVN7morphun8analysis4util20StopwordAnalyzerBaseE, __ZTVN7morphun8analysis4util21AttributeSource_StateE, 
                       __ZTVN7morphun8analysis4util30AttributeRegistrationReflectorE, 
                       __ZTVN7morphun8analysis4util40AttributeSource_StringAttributeReflectorE, 
                       __ZTVN7morphun8analysis4util53AttributeFactory_StaticImplementationAttributeFactoryE, 
                       __ZTVN7morphun8analysis4util9AttributeE, __ZTVN7morphun8analysis6filter12SuffixFilterE, 
                       __ZTVN7morphun8analysis6filter15DiacriticFilterE, __ZTVN7morphun8analysis6filter15LowerCaseFilterE, 
                       __ZTVN7morphun8analysis6filter17PunctuationFilterE, __ZTVN7morphun8analysis6filter17SplitOnCharFilterE, 
                       __ZTVN7morphun8analysis6filter18NumberToWordFilterE, __ZTVN7morphun8analysis6filter20AmpersandToAndFilterE, 
                       __ZTVN7morphun8analysis6filter21RemoveCharacterFilterE, __ZTVN7morphun8analysis6filter21TransliterationFilterE, 
                       __ZTVN7morphun8analysis6filter22RecombiningTokenFilterE, __ZTVN7morphun8analysis6filter26ContractionExpandingFilterE, 
                       __ZTVN7morphun8analysis6filter27NormalizeFontVariantsFilterE, 
                       __ZTVN7morphun8analysis7stemmer12ArStemFilterE, __ZTVN7morphun8analysis7stemmer12DeStemFilterE, 
                       __ZTVN7morphun8analysis7stemmer12EnStemFilterE, __ZTVN7morphun8analysis7stemmer12EsStemFilterE, 
                       __ZTVN7morphun8analysis7stemmer12FrStemFilterE, __ZTVN7morphun8analysis7stemmer12ItStemFilterE, 
                       __ZTVN7morphun8analysis7stemmer13HeLemmaFilterE, __ZTVN7morphun8analysis7stemmer13NlLemmaFilterE, 
                       __ZTVN7morphun8analysis7stemmer27DictionaryLookupLemmaFilterE, 
                       __ZTVN7morphun8analysis8AnalyzerE, __ZTVN7morphun8analysis9TokenizerE, 
                       __ZTVN7morphun8analysis9tokenizer19SiriLuceneTokenizerE, __ZTVN7morphun8analysis9tokenizer22MorphologicalWordTokenE, 
                       __ZTVN7morphun9TokenizerE, __ZTVN7morphun9exception24MissingResourceExceptionE, 
                       __ZTVN7morphun9exception9ThrowableE, __ZTVN7morphun9tokenizer10dictionary20GermanicDecompounderE, 
                       __ZTVN7morphun9tokenizer10dictionary25DictionaryTokenizerConfigE, 
                       __ZTVN7morphun9tokenizer13NumberCleaverE, __ZTVN7morphun9tokenizer17TokenExtractorICUE, 
                       __ZTVN7morphun9tokenizer18GroupTokenModifierE, __ZTVN7morphun9tokenizer19TokenExtractorMecabE, 
                       __ZTVN7morphun9tokenizer21ExplicitTokenModifierE, __ZTVN7morphun9tokenizer22OversizedTokenModifierE, 
                       __ZTVN7morphun9tokenizer28TokenExtractorCoreFoundationE, __ZTVN7morphun9tokenizer30WordAndDelimiterTokenExtractorE, 
                       __ZTVN7morphun9tokenizer37SemiticWordAndDelimiterTokenExtractorE, 
                       __ZTVN7morphun9tokenizer38GermanicWordAndDelimiterTokenExtractorE, 
                       __ZTVN7morphun9tokenizer6locale2de32DeWordAndDelimiterTokenExtractorE, 
                       __ZTVN7morphun9tokenizer6locale2fi32FiWordAndDelimiterTokenExtractorE, 
                       __ZTVN7morphun9tokenizer6locale2zh32ZhWordAndDelimiterTokenExtractorE, 
                       __ZTcv0_n40_v0_n48_NK7morphun8analysis15tokenattributes17TypeAttributeImpl5cloneEv, 
                       __ZTcv0_n40_v0_n48_NK7morphun8analysis15tokenattributes18FlagsAttributeImpl5cloneEv, 
                       __ZTcv0_n40_v0_n48_NK7morphun8analysis15tokenattributes19OffsetAttributeImpl5cloneEv, 
                       __ZTcv0_n40_v0_n48_NK7morphun8analysis15tokenattributes20KeywordAttributeImpl5cloneEv, 
                       __ZTcv0_n40_v0_n48_NK7morphun8analysis15tokenattributes21CharTermAttributeImpl5cloneEv, 
                       __ZTcv0_n40_v0_n48_NK7morphun8analysis15tokenattributes21GrammemeAttributeImpl5cloneEv, 
                       __ZTcv0_n40_v0_n48_NK7morphun8analysis15tokenattributes24PackedTokenAttributeImpl5cloneEv, 
                       __ZTcv0_n40_v0_n48_NK7morphun8analysis15tokenattributes25LemmaMappingAttributeImpl5cloneEv, 
                       __ZTcv0_n40_v0_n48_NK7morphun8analysis15tokenattributes27PositionLengthAttributeImpl5cloneEv, 
                       __ZTcv0_n40_v0_n48_NK7morphun8analysis15tokenattributes30PositionIncrementAttributeImpl5cloneEv, 
                       __ZTcv0_n40_v0_n48_NK7morphun8analysis4util21AttributeSource_State5cloneEv, 
                       __ZThn8_N7morphun8analysis15tokenattributes20KeywordAttributeImpl10setKeywordEb, 
                       __ZThn8_N7morphun8analysis15tokenattributes20KeywordAttributeImpl9isKeywordEv, 
                       __ZTv0_n104_N7morphun8analysis15tokenattributes19OffsetAttributeImpl9endOffsetEv, 
                       __ZTv0_n104_N7morphun8analysis15tokenattributes24PackedTokenAttributeImpl9endOffsetEv, 
                       __ZTv0_n24_NK7morphun10TokenChain8toStringEv, __ZTv0_n24_NK7morphun4util7ULocale8toStringEv, 
                       __ZTv0_n24_NK7morphun5Chunk8toStringEv, __ZTv0_n24_NK7morphun5Token8toStringEv, 
                       __ZTv0_n24_NK7morphun8analysis15tokenattributes21CharTermAttributeImpl8toStringEv, 
                       __ZTv0_n24_NK7morphun8analysis4util15AttributeSource8toStringEv, 
                       __ZTv0_n40_N7morphun8analysis4util30AttributeRegistrationReflector7reflectERKSt9type_infoRKNSt3__112basic_stringIDsNS6_11char_traitsIDsEENS6_9allocatorIDsEEEESE_, 
                       __ZTv0_n40_N7morphun8analysis4util40AttributeSource_StringAttributeReflector7reflectERKSt9type_infoRKNSt3__112basic_stringIDsNS6_11char_traitsIDsEENS6_9allocatorIDsEEEESE_, 
                       __ZTv0_n40_NK7morphun5Token12getStartCharEv, __ZTv0_n40_NK7morphun9tokenizer13NumberCleaver12modifyTokensEPNS_9TokenizerERKNSt3__112basic_stringIDsNS4_11char_traitsIDsEENS4_9allocatorIDsEEEEPNS_5TokenE, 
                       __ZTv0_n40_NK7morphun9tokenizer18GroupTokenModifier12modifyTokensEPNS_9TokenizerERKNSt3__112basic_stringIDsNS4_11char_traitsIDsEENS4_9allocatorIDsEEEEPNS_5TokenE, 
                       __ZTv0_n40_NK7morphun9tokenizer21ExplicitTokenModifier12modifyTokensEPNS_9TokenizerERKNSt3__112basic_stringIDsNS4_11char_traitsIDsEENS4_9allocatorIDsEEEEPNS_5TokenE, 
                       __ZTv0_n40_NK7morphun9tokenizer22OversizedTokenModifier12modifyTokensEPNS_9TokenizerERKNSt3__112basic_stringIDsNS4_11char_traitsIDsEENS4_9allocatorIDsEEEEPNS_5TokenE, 
                       __ZTv0_n40_NK7morphun9tokenizer30WordAndDelimiterTokenExtractor13extractTokensERKNSt3__112basic_stringIDsNS2_11char_traitsIDsEENS2_9allocatorIDsEEEEi, 
                       __ZTv0_n48_N7morphun8analysis4util30AttributeRegistrationReflector7reflectERKSt9type_infoRKNSt3__112basic_stringIDsNS6_11char_traitsIDsEENS6_9allocatorIDsEEEEPKNS_6ObjectE, 
                       __ZTv0_n48_N7morphun8analysis4util40AttributeSource_StringAttributeReflector7reflectERKSt9type_infoRKNSt3__112basic_stringIDsNS6_11char_traitsIDsEENS6_9allocatorIDsEEEEPKNS_6ObjectE, 
                       __ZTv0_n48_NK7morphun5Token10getEndCharEv, __ZTv0_n48_NK7morphun9tokenizer30WordAndDelimiterTokenExtractor9getLocaleEv, 
                       __ZTv0_n56_N7morphun9tokenizer38GermanicWordAndDelimiterTokenExtractorD0Ev, 
                       __ZTv0_n56_N7morphun9tokenizer38GermanicWordAndDelimiterTokenExtractorD1Ev, 
                       __ZTv0_n56_NK7morphun8analysis15tokenattributes17TypeAttributeImpl6equalsERKNS0_4util9AttributeE, 
                       __ZTv0_n56_NK7morphun8analysis15tokenattributes18FlagsAttributeImpl6equalsERKNS0_4util9AttributeE, 
                       __ZTv0_n56_NK7morphun8analysis15tokenattributes19OffsetAttributeImpl6equalsERKNS0_4util9AttributeE, 
                       __ZTv0_n56_NK7morphun8analysis15tokenattributes20KeywordAttributeImpl6equalsERKNS0_4util9AttributeE, 
                       __ZTv0_n56_NK7morphun8analysis15tokenattributes21CharTermAttributeImpl6equalsERKNS0_4util9AttributeE, 
                       __ZTv0_n56_NK7morphun8analysis15tokenattributes21GrammemeAttributeImpl6equalsERKNS0_4util9AttributeE, 
                       __ZTv0_n56_NK7morphun8analysis15tokenattributes24PackedTokenAttributeImpl6equalsERKNS0_4util9AttributeE, 
                       __ZTv0_n56_NK7morphun8analysis15tokenattributes25LemmaMappingAttributeImpl6equalsERKNS0_4util9AttributeE, 
                       __ZTv0_n56_NK7morphun8analysis15tokenattributes27PositionLengthAttributeImpl6equalsERKNS0_4util9AttributeE, 
                       __ZTv0_n56_NK7morphun8analysis15tokenattributes30PositionIncrementAttributeImpl6equalsERKNS0_4util9AttributeE, 
                       __ZTv0_n64_NK7morphun8analysis15tokenattributes17TypeAttributeImpl8hashCodeEv, 
                       __ZTv0_n64_NK7morphun8analysis15tokenattributes18FlagsAttributeImpl8hashCodeEv, 
                       __ZTv0_n64_NK7morphun8analysis15tokenattributes19OffsetAttributeImpl8hashCodeEv, 
                       __ZTv0_n64_NK7morphun8analysis15tokenattributes20KeywordAttributeImpl8hashCodeEv, 
                       __ZTv0_n64_NK7morphun8analysis15tokenattributes21CharTermAttributeImpl8hashCodeEv, 
                       __ZTv0_n64_NK7morphun8analysis15tokenattributes21GrammemeAttributeImpl8hashCodeEv, 
                       __ZTv0_n64_NK7morphun8analysis15tokenattributes24PackedTokenAttributeImpl8hashCodeEv, 
                       __ZTv0_n64_NK7morphun8analysis15tokenattributes25LemmaMappingAttributeImpl8hashCodeEv, 
                       __ZTv0_n64_NK7morphun8analysis15tokenattributes27PositionLengthAttributeImpl8hashCodeEv, 
                       __ZTv0_n64_NK7morphun8analysis15tokenattributes30PositionIncrementAttributeImpl8hashCodeEv, 
                       __ZTv0_n88_N7morphun8analysis15tokenattributes17TypeAttributeImpl4typeEv, 
                       __ZTv0_n88_N7morphun8analysis15tokenattributes18FlagsAttributeImpl8getFlagsEv, 
                       __ZTv0_n88_N7morphun8analysis15tokenattributes19OffsetAttributeImpl11startOffsetEv, 
                       __ZTv0_n88_N7morphun8analysis15tokenattributes21GrammemeAttributeImpl12getGrammemesEv, 
                       __ZTv0_n88_N7morphun8analysis15tokenattributes24PackedTokenAttributeImpl11startOffsetEv, 
                       __ZTv0_n88_N7morphun8analysis15tokenattributes24PackedTokenAttributeImpl17setPositionLengthEi, 
                       __ZTv0_n88_N7morphun8analysis15tokenattributes24PackedTokenAttributeImpl20setPositionIncrementEi, 
                       __ZTv0_n88_N7morphun8analysis15tokenattributes24PackedTokenAttributeImpl4typeEv, 
                       __ZTv0_n88_N7morphun8analysis15tokenattributes25LemmaMappingAttributeImpl16getLemmaMappingsEv, 
                       __ZTv0_n88_N7morphun8analysis15tokenattributes27PositionLengthAttributeImpl17setPositionLengthEi, 
                       __ZTv0_n88_N7morphun8analysis15tokenattributes30PositionIncrementAttributeImpl20setPositionIncrementEi, 
                       __ZTv0_n96_N7morphun8analysis15tokenattributes17TypeAttributeImpl7setTypeERKNSt3__112basic_stringIDsNS3_11char_traitsIDsEENS3_9allocatorIDsEEEE, 
                       __ZTv0_n96_N7morphun8analysis15tokenattributes18FlagsAttributeImpl8setFlagsEx, 
                       __ZTv0_n96_N7morphun8analysis15tokenattributes19OffsetAttributeImpl9setOffsetEii, 
                       __ZTv0_n96_N7morphun8analysis15tokenattributes21GrammemeAttributeImpl12setGrammemesEx, 
                       __ZTv0_n96_N7morphun8analysis15tokenattributes24PackedTokenAttributeImpl17getPositionLengthEv, 
                       __ZTv0_n96_N7morphun8analysis15tokenattributes24PackedTokenAttributeImpl20getPositionIncrementEv, 
                       __ZTv0_n96_N7morphun8analysis15tokenattributes24PackedTokenAttributeImpl7setTypeERKNSt3__112basic_stringIDsNS3_11char_traitsIDsEENS3_9allocatorIDsEEEE, 
                       __ZTv0_n96_N7morphun8analysis15tokenattributes24PackedTokenAttributeImpl9setOffsetEii, 
                       __ZTv0_n96_N7morphun8analysis15tokenattributes25LemmaMappingAttributeImpl16setLemmaMappingsERKNSt3__16vectorINS1_12LemmaMappingENS3_9allocatorIS5_EEEE, 
                       __ZTv0_n96_N7morphun8analysis15tokenattributes27PositionLengthAttributeImpl17getPositionLengthEv, 
                       __ZTv0_n96_N7morphun8analysis15tokenattributes30PositionIncrementAttributeImpl20getPositionIncrementEv ]
    weak-def-symbols: [ __ZN7morphun10dictionary8metadata10MarisaTrieIiE8ENCODINGE, 
                        __ZN7morphun10dictionary8metadata10MarisaTrieIxE8ENCODINGE ]
  - archs:           [ armv7, armv7s, arm64 ]
    symbols:         [ _ScoreComparator, _main ]
...
