--- !tapi-tbd-v2
archs:           [ armv7, armv7s, arm64 ]
uuids:           [ 'armv7: 84A43E70-CAF0-3A95-B288-CA15C6E9720D', 'armv7s: A1196871-29C0-30C5-A645-FC75FB74AB2F', 
                   'arm64: C63BF569-6702-38E1-9E9C-E9F1E6EE1DF4' ]
platform:        ios
install-name:    /usr/lib/libTelephonyIOKitDynamic.dylib
objc-constraint: none
exports:         
  - archs:           [ armv7, armv7s ]
    symbols:         [ __ZN3ctu5iokit10controller12release_syncEv, __ZN3ctu5iokit10controller14setMesaQualityENS0_31TelephonyIOKitMesaSignalQualityE, 
                       __ZN3ctu5iokit10controller15registerRunLoopEP11__CFRunLoop, 
                       __ZN3ctu5iokit10controller17setMesaParametersEU13block_pointerFvjPvE, 
                       __ZN3ctu5iokit10controller18acquireMesaServiceEv, __ZN3ctu5iokit10controller19createDispatchQueueEv, 
                       __ZN3ctu5iokit10controller20destroyDispatchQueueEv, __ZN3ctu5iokit10controller20setDisplayParametersEU13block_pointerFvjPvE, 
                       __ZN3ctu5iokit10controller22setAccessoryParametersEU13block_pointerFvjPvE, 
                       __ZN3ctu5iokit10controller23registerForIOKitServiceEjPFvPvjjS2_ERN8dispatch5blockIU13block_pointerFvjS2_EEERj, 
                       __ZN3ctu5iokit10controller24displayServiceAdded_syncEj, __ZN3ctu5iokit10controller25cleanUpDisplayNotifcationEv, 
                       __ZN3ctu5iokit10controller26accessoryServiceAdded_syncEj, 
                       __ZN3ctu5iokit10controller29setPDPNotificationsParametersEU13block_pointerFvjPvEPKc, 
                       __ZN3ctu5iokit10controller4initEv, __ZN3ctu5iokit10controller6createEv, 
                       __ZN3ctu5iokit10controller9free_syncEv, __ZN3ctu5iokit10controller9init_syncEv, 
                       __ZN3ctu5iokit10controllerC1Ev, __ZN3ctu5iokit10controllerC2Ev, 
                       __ZN3ctu5iokit10controllerD1Ev, __ZN3ctu5iokit10controllerD2Ev, 
                       __ZN3ctu5iokit14SetMesaQualityENSt3__110shared_ptrINS0_10controllerEEENS0_31TelephonyIOKitMesaSignalQualityE, 
                       __ZN3ctu5iokit15RegisterRunLoopENSt3__110shared_ptrINS0_10controllerEEEP11__CFRunLoop, 
                       __ZN3ctu5iokit16CreateControllerEv, __ZN3ctu5iokit18AcquireMesaServiceENSt3__110shared_ptrINS0_10controllerEEE, 
                       __ZN3ctu5iokit28RegisterForMesaNotificationsENSt3__110shared_ptrINS0_10controllerEEEU13block_pointerFvjPvE, 
                       __ZN3ctu5iokit29RegisterForPDPNotificationsV2ENSt3__110shared_ptrINS0_10controllerEEEU13block_pointerFvjPvEPKc, 
                       __ZN3ctu5iokit31CleanUpDisplayPortNotificationsENSt3__110shared_ptrINS0_10controllerEEE, 
                       __ZN3ctu5iokit35RegisterForAccessoryNotificationsV2ENSt3__110shared_ptrINS0_10controllerEEEU13block_pointerFvjPvE, 
                       __ZN3ctu5iokit37RegisterForDisplayPortNotificationsV2ENSt3__110shared_ptrINS0_10controllerEEEU13block_pointerFvjPvE ]
    weak-def-symbols: [ __ZTINSt3__115basic_stringbufIcNS_11char_traitsIcEENS_9allocatorIcEEEE, 
                        __ZTINSt3__118basic_stringstreamIcNS_11char_traitsIcEENS_9allocatorIcEEEE, 
                        __ZTSNSt3__114default_deleteIN3ctu5power7manager14listenerHandleEEE, 
                        __ZTSNSt3__114default_deleteIN3ctu5power7managerEEE, __ZTSNSt3__114default_deleteIN3ctu5power9assertion9HandleRawEEE, 
                        __ZTSNSt3__115basic_stringbufIcNS_11char_traitsIcEENS_9allocatorIcEEEE, 
                        __ZTSNSt3__118basic_stringstreamIcNS_11char_traitsIcEENS_9allocatorIcEEEE, 
                        __ZTSU13block_pointerFvPN3ctu5iokit10controllerEE ]
  - archs:           [ arm64 ]
    symbols:         [ __ZN3ctu5iokit10Controller11mesaServiceEjjPv, __ZN3ctu5iokit10Controller14displayServiceEjPv, 
                       __ZN3ctu5iokit10Controller14setMesaQualityENS0_31TelephonyIOKitMesaSignalQualityE, 
                       __ZN3ctu5iokit10Controller14setPDPCallbackEN8dispatch8callbackIU13block_pointerFvNS0_17TelephonyIOKitPDPEEEEPKc, 
                       __ZN3ctu5iokit10Controller15setMesaCallbackEN8dispatch8callbackIU13block_pointerFvNS0_23TelephonyIOKitMesaEventEEEE, 
                       __ZN3ctu5iokit10Controller16accessoryServiceEjjPv, __ZN3ctu5iokit10Controller16getAccessoryTypeERKNSt3__112basic_stringIcNS2_11char_traitsIcEENS2_9allocatorIcEEEE, 
                       __ZN3ctu5iokit10Controller16queryPowerSourceEv, __ZN3ctu5iokit10Controller18acquireMesaServiceEv, 
                       __ZN3ctu5iokit10Controller18powerSourceServiceEv, __ZN3ctu5iokit10Controller18setDisplayCallbackEN8dispatch8callbackIU13block_pointerFvNS0_25TelephonyIOKitDisplayLinkEEEE, 
                       __ZN3ctu5iokit10Controller19displayServiceAddedEj, __ZN3ctu5iokit10Controller19getModelNumberViaMBEv, 
                       __ZN3ctu5iokit10Controller20processAccessoryTypeEj, __ZN3ctu5iokit10Controller20setAccessoryCallbackEN8dispatch8callbackIU13block_pointerFvNS0_32TelephonyIOKitAccessoryParameterEEEE, 
                       __ZN3ctu5iokit10Controller21accessoryServiceAddedEj, __ZN3ctu5iokit10Controller22setPowerSourceCallbackEN8dispatch8callbackIU13block_pointerFvNS0_25TelephonyIOKitPowerSourceEEEE, 
                       __ZN3ctu5iokit10Controller23registerForIOKitServiceEjPFvPvjjS2_ERj, 
                       __ZN3ctu5iokit10Controller25cleanUpDisplayNotifcationEv, __ZN3ctu5iokit10Controller29getAccessoryPrimaryPortNumberEv, 
                       __ZN3ctu5iokit10Controller33getModelNumberViaAccessoryManagerEj, 
                       __ZN3ctu5iokit10Controller4initEv, __ZN3ctu5iokit10Controller6createENSt3__110shared_ptrINS_9LogServerEEEP11__CFRunLoop, 
                       __ZN3ctu5iokit10Controller7releaseEv, __ZN3ctu5iokit10ControllerC1ENSt3__110shared_ptrINS_9LogServerEEEP11__CFRunLoop, 
                       __ZN3ctu5iokit10ControllerC2ENSt3__110shared_ptrINS_9LogServerEEEP11__CFRunLoop, 
                       __ZN3ctu5iokit10ControllerD0Ev, __ZN3ctu5iokit10ControllerD1Ev, 
                       __ZN3ctu5iokit10ControllerD2Ev, __ZN3ctu5iokit15IOHIDController13isProxCoveredEj, 
                       __ZN3ctu5iokit15IOHIDController15isProxSupportedEv, __ZN3ctu5iokit15IOHIDController20registerProxCallbackEN8dispatch5blockIU13block_pointerFvjEEE, 
                       __ZN3ctu5iokit15IOHIDController4initEv, __ZN3ctu5iokit15IOHIDController4stopEv, 
                       __ZN3ctu5iokit15IOHIDController5startEv, __ZN3ctu5iokit15IOHIDController6createEN8dispatch5queueE, 
                       __ZN3ctu5iokit15IOHIDController9stop_syncEv, __ZN3ctu5iokit15IOHIDControllerC1EN8dispatch5queueE, 
                       __ZN3ctu5iokit15IOHIDControllerC2EN8dispatch5queueE, __ZN3ctu5iokit15IOHIDControllerD1Ev, 
                       __ZN3ctu5iokit15IOHIDControllerD2Ev, __ZN3ctu5iokit8asStringENS0_25TelephonyIOKitPowerSourceE, 
                       __ZN3ctu5iokit8asStringENS0_27TelephonyIOKitAccessoryTypeE, 
                       __ZN3ctu5iokit8asStringENS0_29TelephonyIOKitAccessoryStatusE, 
                       __ZN3ctu5iokit8asStringEj, __ZTIN3ctu5iokit10ControllerE, 
                       __ZTSN3ctu5iokit10ControllerE, __ZTVN3ctu5iokit10ControllerE ]
  - archs:           [ armv7, armv7s, arm64 ]
    symbols:         [ _IOMikeyBusBulkPipeEnable, _IOMikeyBusBulkPipeReceiveData, 
                       _IOMikeyBusBulkPipeReceiveDataAsync, _IOMikeyBusBulkPipeReset, 
                       _IOMikeyBusBulkPipeSendAsync, _IOMikeyBusBulkPipeSendData, 
                       _IOMikeyBusBulkPipeSetAllocation, _IOMikeyBusDeviceAllocateTrafficChannel, 
                       _IOMikeyBusDeviceCopyProductFirmwareRevision, _IOMikeyBusDeviceCopyProductHardwareRevision, 
                       _IOMikeyBusDeviceCopyProductModelNumber, _IOMikeyBusDeviceCopyProductName, 
                       _IOMikeyBusDeviceCopyProductSerialNumber, _IOMikeyBusDeviceCopyVendorName, 
                       _IOMikeyBusDeviceDeallocateTrafficChannel, _IOMikeyBusDeviceGetActiveConfiguration, 
                       _IOMikeyBusDeviceGetActiveConfigurationClass, _IOMikeyBusDeviceGetActiveConfigurationSubclass, 
                       _IOMikeyBusDeviceGetAddress, _IOMikeyBusDeviceGetConfigurationInfo, 
                       _IOMikeyBusDeviceGetInterfaceChipProductID, _IOMikeyBusDeviceGetInterfaceChipRevision, 
                       _IOMikeyBusDeviceGetInterfaceChipSerialNumber, _IOMikeyBusDeviceGetInterfaceChipVendorID, 
                       _IOMikeyBusDeviceGetMikeyBusVersion, _IOMikeyBusDeviceGetNumConfigurations, 
                       _IOMikeyBusDeviceGetProductID, _IOMikeyBusDeviceGetVendorID, 
                       _IOMikeyBusDeviceGetVoltageClass, _IOMikeyBusDeviceOpen, _IOMikeyBusDeviceOpenWithBulk, 
                       _IOMikeyBusDeviceRegisterSystemLineOut, _IOMikeyBusDeviceSetConfiguration, 
                       _IOMikeyBusDeviceSetFixedSlotAssignment, _IOMikeyBusDeviceSpecifyChannelAssignment, 
                       _IOMikeyBusDeviceUnregisterSystemLineOut, _IOMikeyBusFunctionGroupCopyPropertyInfo, 
                       _IOMikeyBusFunctionGroupCreateMatching, _IOMikeyBusFunctionGroupGetDevice, 
                       _IOMikeyBusFunctionGroupGetID, _IOMikeyBusFunctionGroupGetType, 
                       _IOMikeyBusFunctionGroupOpen, _IOMikeyBusFunctionGroupSetPropertyInfo, 
                       __ZN3ctu5power7manager13_powerChangedEPjjjPv, __ZN3ctu5power7manager14_runLoopThreadEPv, 
                       __ZN3ctu5power7manager14listenerHandleC1ERKNS1_10parametersERKN8dispatch5blockIU13block_pointerFvvEEE, 
                       __ZN3ctu5power7manager14listenerHandleC2ERKNS1_10parametersERKN8dispatch5blockIU13block_pointerFvvEEE, 
                       __ZN3ctu5power7manager14listenerHandleD1Ev, __ZN3ctu5power7manager14listenerHandleD2Ev, 
                       __ZN3ctu5power7manager14listenerHandleclERKjRKbRKN8dispatch5groupERb, 
                       __ZN3ctu5power7manager16registerListenerENS1_10parametersE, 
                       __ZN3ctu5power7manager20simulateNotificationEjb, __ZN3ctu5power7manager22killRunLoopThread_syncEv, 
                       __ZN3ctu5power7manager23addPowerSourceToRunLoopEP11__CFRunLoop, 
                       __ZN3ctu5power7manager23handlePowerChanged_syncEjb, __ZN3ctu5power7manager23spawnRunLoopThread_syncEv, 
                       __ZN3ctu5power7manager24registerPowerSource_syncEv, __ZN3ctu5power7manager26deregisterPowerSource_syncEv, 
                       __ZN3ctu5power7manager28removePowerSourceFromRunLoopEP11__CFRunLoop, 
                       __ZN3ctu5power7manager3getEv, __ZN3ctu5power7manager8asStringEj, 
                       __ZN3ctu5power7managerC1Ev, __ZN3ctu5power7managerC2Ev, __ZN3ctu5power7managerD1Ev, 
                       __ZN3ctu5power7managerD2Ev, __ZN3ctu5power9assertion14createInternalERKNSt3__112basic_stringIcNS2_11char_traitsIcEENS2_9allocatorIcEEEEj, 
                       __ZN3ctu5power9assertion14lookupInternalERKNSt3__112basic_stringIcNS2_11char_traitsIcEENS2_9allocatorIcEEEE, 
                       __ZN3ctu5power9assertion19lookupInternal_syncERKNSt3__112basic_stringIcNS2_11char_traitsIcEENS2_9allocatorIcEEEE, 
                       __ZN3ctu5power9assertion9HandleRaw4initERKNSt3__112basic_stringIcNS3_11char_traitsIcEENS3_9allocatorIcEEEEj, 
                       __ZN3ctu5power9assertion9HandleRaw6createERKNSt3__112basic_stringIcNS3_11char_traitsIcEENS3_9allocatorIcEEEEj, 
                       __ZN3ctu5power9assertion9HandleRawC1Ev, __ZN3ctu5power9assertion9HandleRawC2Ev, 
                       __ZN3ctu5power9assertion9HandleRawD1Ev, __ZN3ctu5power9assertion9HandleRawD2Ev, 
                       __ZN3ctu5power9assertionC1Ev, __ZN3ctu5power9assertionC2Ev ]
    weak-def-symbols: [ __ZGVN3ctu9SingletonINS_5power9assertionES2_NS_23PthreadMutexGuardPolicyIS2_EEE9sInstanceE, 
                        __ZN3ctu9SingletonINS_5power9assertionES2_NS_23PthreadMutexGuardPolicyIS2_EEE9sInstanceE ]
...
